
Test_OptimizerV2.elf:     file format elf32-littlearm

Sections:
Idx Name          Size      VMA       LMA       File off  Algn
  0 .isr_vector   0000010c  08000000  08000000  00010000  2**0
                  CONTENTS, ALLOC, LOAD, READONLY, DATA
  1 .text         00003a50  08000110  08000110  00010110  2**3
                  CONTENTS, ALLOC, LOAD, READONLY, CODE
  2 .rodata       00000200  08003b60  08003b60  00013b60  2**3
                  CONTENTS, ALLOC, LOAD, READONLY, DATA
  3 .ARM.extab    00000000  08003d60  08003d60  00020070  2**0
                  CONTENTS
  4 .ARM          00000000  08003d60  08003d60  00020070  2**0
                  CONTENTS
  5 .preinit_array 00000000  08003d60  08003d60  00020070  2**0
                  CONTENTS, ALLOC, LOAD, DATA
  6 .init_array   00000004  08003d60  08003d60  00013d60  2**2
                  CONTENTS, ALLOC, LOAD, DATA
  7 .fini_array   00000004  08003d64  08003d64  00013d64  2**2
                  CONTENTS, ALLOC, LOAD, DATA
  8 .data         00000070  20000000  08003d68  00020000  2**3
                  CONTENTS, ALLOC, LOAD, DATA
  9 .bss          00000188  20000070  08003dd8  00020070  2**2
                  ALLOC
 10 ._user_heap_stack 00000600  200001f8  08003dd8  000201f8  2**0
                  ALLOC
 11 .ARM.attributes 00000029  00000000  00000000  00020070  2**0
                  CONTENTS, READONLY
 12 .comment      00000043  00000000  00000000  00020099  2**0
                  CONTENTS, READONLY
 13 .debug_info   0000239d  00000000  00000000  000200dc  2**0
                  CONTENTS, READONLY, DEBUGGING, OCTETS
 14 .debug_abbrev 00000c9e  00000000  00000000  00022479  2**0
                  CONTENTS, READONLY, DEBUGGING, OCTETS
 15 .debug_aranges 00000388  00000000  00000000  00023118  2**3
                  CONTENTS, READONLY, DEBUGGING, OCTETS
 16 .debug_rnglists 00000285  00000000  00000000  000234a0  2**0
                  CONTENTS, READONLY, DEBUGGING, OCTETS
 17 .debug_macro  000160c9  00000000  00000000  00023725  2**0
                  CONTENTS, READONLY, DEBUGGING, OCTETS
 18 .debug_line   00004328  00000000  00000000  000397ee  2**0
                  CONTENTS, READONLY, DEBUGGING, OCTETS
 19 .debug_str    0007f120  00000000  00000000  0003db16  2**0
                  CONTENTS, READONLY, DEBUGGING, OCTETS
 20 .debug_frame  000013ec  00000000  00000000  000bcc38  2**2
                  CONTENTS, READONLY, DEBUGGING, OCTETS
 21 .debug_line_str 00000095  00000000  00000000  000be024  2**0
                  CONTENTS, READONLY, DEBUGGING, OCTETS

Disassembly of section .text:

08000110 <__do_global_dtors_aux>:
 8000110:	b510      	push	{r4, lr}
 8000112:	4c05      	ldr	r4, [pc, #20]	; (8000128 <__do_global_dtors_aux+0x18>)
 8000114:	7823      	ldrb	r3, [r4, #0]
 8000116:	b933      	cbnz	r3, 8000126 <__do_global_dtors_aux+0x16>
 8000118:	4b04      	ldr	r3, [pc, #16]	; (800012c <__do_global_dtors_aux+0x1c>)
 800011a:	b113      	cbz	r3, 8000122 <__do_global_dtors_aux+0x12>
 800011c:	4804      	ldr	r0, [pc, #16]	; (8000130 <__do_global_dtors_aux+0x20>)
 800011e:	f3af 8000 	nop.w
 8000122:	2301      	movs	r3, #1
 8000124:	7023      	strb	r3, [r4, #0]
 8000126:	bd10      	pop	{r4, pc}
 8000128:	20000070 	.word	0x20000070
 800012c:	00000000 	.word	0x00000000
 8000130:	08003b48 	.word	0x08003b48

08000134 <frame_dummy>:
 8000134:	b508      	push	{r3, lr}
 8000136:	4b03      	ldr	r3, [pc, #12]	; (8000144 <frame_dummy+0x10>)
 8000138:	b11b      	cbz	r3, 8000142 <frame_dummy+0xe>
 800013a:	4903      	ldr	r1, [pc, #12]	; (8000148 <frame_dummy+0x14>)
 800013c:	4803      	ldr	r0, [pc, #12]	; (800014c <frame_dummy+0x18>)
 800013e:	f3af 8000 	nop.w
 8000142:	bd08      	pop	{r3, pc}
 8000144:	00000000 	.word	0x00000000
 8000148:	20000074 	.word	0x20000074
 800014c:	08003b48 	.word	0x08003b48

08000150 <__aeabi_fmul>:
 8000150:	f04f 0cff 	mov.w	ip, #255	; 0xff
 8000154:	ea1c 52d0 	ands.w	r2, ip, r0, lsr #23
 8000158:	bf1e      	ittt	ne
 800015a:	ea1c 53d1 	andsne.w	r3, ip, r1, lsr #23
 800015e:	ea92 0f0c 	teqne	r2, ip
 8000162:	ea93 0f0c 	teqne	r3, ip
 8000166:	d06f      	beq.n	8000248 <__aeabi_fmul+0xf8>
 8000168:	441a      	add	r2, r3
 800016a:	ea80 0c01 	eor.w	ip, r0, r1
 800016e:	0240      	lsls	r0, r0, #9
 8000170:	bf18      	it	ne
 8000172:	ea5f 2141 	movsne.w	r1, r1, lsl #9
 8000176:	d01e      	beq.n	80001b6 <__aeabi_fmul+0x66>
 8000178:	f04f 6300 	mov.w	r3, #134217728	; 0x8000000
 800017c:	ea43 1050 	orr.w	r0, r3, r0, lsr #5
 8000180:	ea43 1151 	orr.w	r1, r3, r1, lsr #5
 8000184:	fba0 3101 	umull	r3, r1, r0, r1
 8000188:	f00c 4000 	and.w	r0, ip, #2147483648	; 0x80000000
 800018c:	f5b1 0f00 	cmp.w	r1, #8388608	; 0x800000
 8000190:	bf3e      	ittt	cc
 8000192:	0049      	lslcc	r1, r1, #1
 8000194:	ea41 71d3 	orrcc.w	r1, r1, r3, lsr #31
 8000198:	005b      	lslcc	r3, r3, #1
 800019a:	ea40 0001 	orr.w	r0, r0, r1
 800019e:	f162 027f 	sbc.w	r2, r2, #127	; 0x7f
 80001a2:	2afd      	cmp	r2, #253	; 0xfd
 80001a4:	d81d      	bhi.n	80001e2 <__aeabi_fmul+0x92>
 80001a6:	f1b3 4f00 	cmp.w	r3, #2147483648	; 0x80000000
 80001aa:	eb40 50c2 	adc.w	r0, r0, r2, lsl #23
 80001ae:	bf08      	it	eq
 80001b0:	f020 0001 	biceq.w	r0, r0, #1
 80001b4:	4770      	bx	lr
 80001b6:	f090 0f00 	teq	r0, #0
 80001ba:	f00c 4c00 	and.w	ip, ip, #2147483648	; 0x80000000
 80001be:	bf08      	it	eq
 80001c0:	0249      	lsleq	r1, r1, #9
 80001c2:	ea4c 2050 	orr.w	r0, ip, r0, lsr #9
 80001c6:	ea40 2051 	orr.w	r0, r0, r1, lsr #9
 80001ca:	3a7f      	subs	r2, #127	; 0x7f
 80001cc:	bfc2      	ittt	gt
 80001ce:	f1d2 03ff 	rsbsgt	r3, r2, #255	; 0xff
 80001d2:	ea40 50c2 	orrgt.w	r0, r0, r2, lsl #23
 80001d6:	4770      	bxgt	lr
 80001d8:	f440 0000 	orr.w	r0, r0, #8388608	; 0x800000
 80001dc:	f04f 0300 	mov.w	r3, #0
 80001e0:	3a01      	subs	r2, #1
 80001e2:	dc5d      	bgt.n	80002a0 <__aeabi_fmul+0x150>
 80001e4:	f112 0f19 	cmn.w	r2, #25
 80001e8:	bfdc      	itt	le
 80001ea:	f000 4000 	andle.w	r0, r0, #2147483648	; 0x80000000
 80001ee:	4770      	bxle	lr
 80001f0:	f1c2 0200 	rsb	r2, r2, #0
 80001f4:	0041      	lsls	r1, r0, #1
 80001f6:	fa21 f102 	lsr.w	r1, r1, r2
 80001fa:	f1c2 0220 	rsb	r2, r2, #32
 80001fe:	fa00 fc02 	lsl.w	ip, r0, r2
 8000202:	ea5f 0031 	movs.w	r0, r1, rrx
 8000206:	f140 0000 	adc.w	r0, r0, #0
 800020a:	ea53 034c 	orrs.w	r3, r3, ip, lsl #1
 800020e:	bf08      	it	eq
 8000210:	ea20 70dc 	biceq.w	r0, r0, ip, lsr #31
 8000214:	4770      	bx	lr
 8000216:	f092 0f00 	teq	r2, #0
 800021a:	f000 4c00 	and.w	ip, r0, #2147483648	; 0x80000000
 800021e:	bf02      	ittt	eq
 8000220:	0040      	lsleq	r0, r0, #1
 8000222:	f410 0f00 	tsteq.w	r0, #8388608	; 0x800000
 8000226:	3a01      	subeq	r2, #1
 8000228:	d0f9      	beq.n	800021e <__aeabi_fmul+0xce>
 800022a:	ea40 000c 	orr.w	r0, r0, ip
 800022e:	f093 0f00 	teq	r3, #0
 8000232:	f001 4c00 	and.w	ip, r1, #2147483648	; 0x80000000
 8000236:	bf02      	ittt	eq
 8000238:	0049      	lsleq	r1, r1, #1
 800023a:	f411 0f00 	tsteq.w	r1, #8388608	; 0x800000
 800023e:	3b01      	subeq	r3, #1
 8000240:	d0f9      	beq.n	8000236 <__aeabi_fmul+0xe6>
 8000242:	ea41 010c 	orr.w	r1, r1, ip
 8000246:	e78f      	b.n	8000168 <__aeabi_fmul+0x18>
 8000248:	ea0c 53d1 	and.w	r3, ip, r1, lsr #23
 800024c:	ea92 0f0c 	teq	r2, ip
 8000250:	bf18      	it	ne
 8000252:	ea93 0f0c 	teqne	r3, ip
 8000256:	d00a      	beq.n	800026e <__aeabi_fmul+0x11e>
 8000258:	f030 4c00 	bics.w	ip, r0, #2147483648	; 0x80000000
 800025c:	bf18      	it	ne
 800025e:	f031 4c00 	bicsne.w	ip, r1, #2147483648	; 0x80000000
 8000262:	d1d8      	bne.n	8000216 <__aeabi_fmul+0xc6>
 8000264:	ea80 0001 	eor.w	r0, r0, r1
 8000268:	f000 4000 	and.w	r0, r0, #2147483648	; 0x80000000
 800026c:	4770      	bx	lr
 800026e:	f090 0f00 	teq	r0, #0
 8000272:	bf17      	itett	ne
 8000274:	f090 4f00 	teqne	r0, #2147483648	; 0x80000000
 8000278:	4608      	moveq	r0, r1
 800027a:	f091 0f00 	teqne	r1, #0
 800027e:	f091 4f00 	teqne	r1, #2147483648	; 0x80000000
 8000282:	d014      	beq.n	80002ae <__aeabi_fmul+0x15e>
 8000284:	ea92 0f0c 	teq	r2, ip
 8000288:	d101      	bne.n	800028e <__aeabi_fmul+0x13e>
 800028a:	0242      	lsls	r2, r0, #9
 800028c:	d10f      	bne.n	80002ae <__aeabi_fmul+0x15e>
 800028e:	ea93 0f0c 	teq	r3, ip
 8000292:	d103      	bne.n	800029c <__aeabi_fmul+0x14c>
 8000294:	024b      	lsls	r3, r1, #9
 8000296:	bf18      	it	ne
 8000298:	4608      	movne	r0, r1
 800029a:	d108      	bne.n	80002ae <__aeabi_fmul+0x15e>
 800029c:	ea80 0001 	eor.w	r0, r0, r1
 80002a0:	f000 4000 	and.w	r0, r0, #2147483648	; 0x80000000
 80002a4:	f040 40fe 	orr.w	r0, r0, #2130706432	; 0x7f000000
 80002a8:	f440 0000 	orr.w	r0, r0, #8388608	; 0x800000
 80002ac:	4770      	bx	lr
 80002ae:	f040 40fe 	orr.w	r0, r0, #2130706432	; 0x7f000000
 80002b2:	f440 0040 	orr.w	r0, r0, #12582912	; 0xc00000
 80002b6:	4770      	bx	lr

080002b8 <__aeabi_drsub>:
 80002b8:	f081 4100 	eor.w	r1, r1, #2147483648	; 0x80000000
 80002bc:	e002      	b.n	80002c4 <__adddf3>
 80002be:	bf00      	nop

080002c0 <__aeabi_dsub>:
 80002c0:	f083 4300 	eor.w	r3, r3, #2147483648	; 0x80000000

080002c4 <__adddf3>:
 80002c4:	b530      	push	{r4, r5, lr}
 80002c6:	ea4f 0441 	mov.w	r4, r1, lsl #1
 80002ca:	ea4f 0543 	mov.w	r5, r3, lsl #1
 80002ce:	ea94 0f05 	teq	r4, r5
 80002d2:	bf08      	it	eq
 80002d4:	ea90 0f02 	teqeq	r0, r2
 80002d8:	bf1f      	itttt	ne
 80002da:	ea54 0c00 	orrsne.w	ip, r4, r0
 80002de:	ea55 0c02 	orrsne.w	ip, r5, r2
 80002e2:	ea7f 5c64 	mvnsne.w	ip, r4, asr #21
 80002e6:	ea7f 5c65 	mvnsne.w	ip, r5, asr #21
 80002ea:	f000 80e2 	beq.w	80004b2 <__adddf3+0x1ee>
 80002ee:	ea4f 5454 	mov.w	r4, r4, lsr #21
 80002f2:	ebd4 5555 	rsbs	r5, r4, r5, lsr #21
 80002f6:	bfb8      	it	lt
 80002f8:	426d      	neglt	r5, r5
 80002fa:	dd0c      	ble.n	8000316 <__adddf3+0x52>
 80002fc:	442c      	add	r4, r5
 80002fe:	ea80 0202 	eor.w	r2, r0, r2
 8000302:	ea81 0303 	eor.w	r3, r1, r3
 8000306:	ea82 0000 	eor.w	r0, r2, r0
 800030a:	ea83 0101 	eor.w	r1, r3, r1
 800030e:	ea80 0202 	eor.w	r2, r0, r2
 8000312:	ea81 0303 	eor.w	r3, r1, r3
 8000316:	2d36      	cmp	r5, #54	; 0x36
 8000318:	bf88      	it	hi
 800031a:	bd30      	pophi	{r4, r5, pc}
 800031c:	f011 4f00 	tst.w	r1, #2147483648	; 0x80000000
 8000320:	ea4f 3101 	mov.w	r1, r1, lsl #12
 8000324:	f44f 1c80 	mov.w	ip, #1048576	; 0x100000
 8000328:	ea4c 3111 	orr.w	r1, ip, r1, lsr #12
 800032c:	d002      	beq.n	8000334 <__adddf3+0x70>
 800032e:	4240      	negs	r0, r0
 8000330:	eb61 0141 	sbc.w	r1, r1, r1, lsl #1
 8000334:	f013 4f00 	tst.w	r3, #2147483648	; 0x80000000
 8000338:	ea4f 3303 	mov.w	r3, r3, lsl #12
 800033c:	ea4c 3313 	orr.w	r3, ip, r3, lsr #12
 8000340:	d002      	beq.n	8000348 <__adddf3+0x84>
 8000342:	4252      	negs	r2, r2
 8000344:	eb63 0343 	sbc.w	r3, r3, r3, lsl #1
 8000348:	ea94 0f05 	teq	r4, r5
 800034c:	f000 80a7 	beq.w	800049e <__adddf3+0x1da>
 8000350:	f1a4 0401 	sub.w	r4, r4, #1
 8000354:	f1d5 0e20 	rsbs	lr, r5, #32
 8000358:	db0d      	blt.n	8000376 <__adddf3+0xb2>
 800035a:	fa02 fc0e 	lsl.w	ip, r2, lr
 800035e:	fa22 f205 	lsr.w	r2, r2, r5
 8000362:	1880      	adds	r0, r0, r2
 8000364:	f141 0100 	adc.w	r1, r1, #0
 8000368:	fa03 f20e 	lsl.w	r2, r3, lr
 800036c:	1880      	adds	r0, r0, r2
 800036e:	fa43 f305 	asr.w	r3, r3, r5
 8000372:	4159      	adcs	r1, r3
 8000374:	e00e      	b.n	8000394 <__adddf3+0xd0>
 8000376:	f1a5 0520 	sub.w	r5, r5, #32
 800037a:	f10e 0e20 	add.w	lr, lr, #32
 800037e:	2a01      	cmp	r2, #1
 8000380:	fa03 fc0e 	lsl.w	ip, r3, lr
 8000384:	bf28      	it	cs
 8000386:	f04c 0c02 	orrcs.w	ip, ip, #2
 800038a:	fa43 f305 	asr.w	r3, r3, r5
 800038e:	18c0      	adds	r0, r0, r3
 8000390:	eb51 71e3 	adcs.w	r1, r1, r3, asr #31
 8000394:	f001 4500 	and.w	r5, r1, #2147483648	; 0x80000000
 8000398:	d507      	bpl.n	80003aa <__adddf3+0xe6>
 800039a:	f04f 0e00 	mov.w	lr, #0
 800039e:	f1dc 0c00 	rsbs	ip, ip, #0
 80003a2:	eb7e 0000 	sbcs.w	r0, lr, r0
 80003a6:	eb6e 0101 	sbc.w	r1, lr, r1
 80003aa:	f5b1 1f80 	cmp.w	r1, #1048576	; 0x100000
 80003ae:	d31b      	bcc.n	80003e8 <__adddf3+0x124>
 80003b0:	f5b1 1f00 	cmp.w	r1, #2097152	; 0x200000
 80003b4:	d30c      	bcc.n	80003d0 <__adddf3+0x10c>
 80003b6:	0849      	lsrs	r1, r1, #1
 80003b8:	ea5f 0030 	movs.w	r0, r0, rrx
 80003bc:	ea4f 0c3c 	mov.w	ip, ip, rrx
 80003c0:	f104 0401 	add.w	r4, r4, #1
 80003c4:	ea4f 5244 	mov.w	r2, r4, lsl #21
 80003c8:	f512 0f80 	cmn.w	r2, #4194304	; 0x400000
 80003cc:	f080 809a 	bcs.w	8000504 <__adddf3+0x240>
 80003d0:	f1bc 4f00 	cmp.w	ip, #2147483648	; 0x80000000
 80003d4:	bf08      	it	eq
 80003d6:	ea5f 0c50 	movseq.w	ip, r0, lsr #1
 80003da:	f150 0000 	adcs.w	r0, r0, #0
 80003de:	eb41 5104 	adc.w	r1, r1, r4, lsl #20
 80003e2:	ea41 0105 	orr.w	r1, r1, r5
 80003e6:	bd30      	pop	{r4, r5, pc}
 80003e8:	ea5f 0c4c 	movs.w	ip, ip, lsl #1
 80003ec:	4140      	adcs	r0, r0
 80003ee:	eb41 0101 	adc.w	r1, r1, r1
 80003f2:	3c01      	subs	r4, #1
 80003f4:	bf28      	it	cs
 80003f6:	f5b1 1f80 	cmpcs.w	r1, #1048576	; 0x100000
 80003fa:	d2e9      	bcs.n	80003d0 <__adddf3+0x10c>
 80003fc:	f091 0f00 	teq	r1, #0
 8000400:	bf04      	itt	eq
 8000402:	4601      	moveq	r1, r0
 8000404:	2000      	moveq	r0, #0
 8000406:	fab1 f381 	clz	r3, r1
 800040a:	bf08      	it	eq
 800040c:	3320      	addeq	r3, #32
 800040e:	f1a3 030b 	sub.w	r3, r3, #11
 8000412:	f1b3 0220 	subs.w	r2, r3, #32
 8000416:	da0c      	bge.n	8000432 <__adddf3+0x16e>
 8000418:	320c      	adds	r2, #12
 800041a:	dd08      	ble.n	800042e <__adddf3+0x16a>
 800041c:	f102 0c14 	add.w	ip, r2, #20
 8000420:	f1c2 020c 	rsb	r2, r2, #12
 8000424:	fa01 f00c 	lsl.w	r0, r1, ip
 8000428:	fa21 f102 	lsr.w	r1, r1, r2
 800042c:	e00c      	b.n	8000448 <__adddf3+0x184>
 800042e:	f102 0214 	add.w	r2, r2, #20
 8000432:	bfd8      	it	le
 8000434:	f1c2 0c20 	rsble	ip, r2, #32
 8000438:	fa01 f102 	lsl.w	r1, r1, r2
 800043c:	fa20 fc0c 	lsr.w	ip, r0, ip
 8000440:	bfdc      	itt	le
 8000442:	ea41 010c 	orrle.w	r1, r1, ip
 8000446:	4090      	lslle	r0, r2
 8000448:	1ae4      	subs	r4, r4, r3
 800044a:	bfa2      	ittt	ge
 800044c:	eb01 5104 	addge.w	r1, r1, r4, lsl #20
 8000450:	4329      	orrge	r1, r5
 8000452:	bd30      	popge	{r4, r5, pc}
 8000454:	ea6f 0404 	mvn.w	r4, r4
 8000458:	3c1f      	subs	r4, #31
 800045a:	da1c      	bge.n	8000496 <__adddf3+0x1d2>
 800045c:	340c      	adds	r4, #12
 800045e:	dc0e      	bgt.n	800047e <__adddf3+0x1ba>
 8000460:	f104 0414 	add.w	r4, r4, #20
 8000464:	f1c4 0220 	rsb	r2, r4, #32
 8000468:	fa20 f004 	lsr.w	r0, r0, r4
 800046c:	fa01 f302 	lsl.w	r3, r1, r2
 8000470:	ea40 0003 	orr.w	r0, r0, r3
 8000474:	fa21 f304 	lsr.w	r3, r1, r4
 8000478:	ea45 0103 	orr.w	r1, r5, r3
 800047c:	bd30      	pop	{r4, r5, pc}
 800047e:	f1c4 040c 	rsb	r4, r4, #12
 8000482:	f1c4 0220 	rsb	r2, r4, #32
 8000486:	fa20 f002 	lsr.w	r0, r0, r2
 800048a:	fa01 f304 	lsl.w	r3, r1, r4
 800048e:	ea40 0003 	orr.w	r0, r0, r3
 8000492:	4629      	mov	r1, r5
 8000494:	bd30      	pop	{r4, r5, pc}
 8000496:	fa21 f004 	lsr.w	r0, r1, r4
 800049a:	4629      	mov	r1, r5
 800049c:	bd30      	pop	{r4, r5, pc}
 800049e:	f094 0f00 	teq	r4, #0
 80004a2:	f483 1380 	eor.w	r3, r3, #1048576	; 0x100000
 80004a6:	bf06      	itte	eq
 80004a8:	f481 1180 	eoreq.w	r1, r1, #1048576	; 0x100000
 80004ac:	3401      	addeq	r4, #1
 80004ae:	3d01      	subne	r5, #1
 80004b0:	e74e      	b.n	8000350 <__adddf3+0x8c>
 80004b2:	ea7f 5c64 	mvns.w	ip, r4, asr #21
 80004b6:	bf18      	it	ne
 80004b8:	ea7f 5c65 	mvnsne.w	ip, r5, asr #21
 80004bc:	d029      	beq.n	8000512 <__adddf3+0x24e>
 80004be:	ea94 0f05 	teq	r4, r5
 80004c2:	bf08      	it	eq
 80004c4:	ea90 0f02 	teqeq	r0, r2
 80004c8:	d005      	beq.n	80004d6 <__adddf3+0x212>
 80004ca:	ea54 0c00 	orrs.w	ip, r4, r0
 80004ce:	bf04      	itt	eq
 80004d0:	4619      	moveq	r1, r3
 80004d2:	4610      	moveq	r0, r2
 80004d4:	bd30      	pop	{r4, r5, pc}
 80004d6:	ea91 0f03 	teq	r1, r3
 80004da:	bf1e      	ittt	ne
 80004dc:	2100      	movne	r1, #0
 80004de:	2000      	movne	r0, #0
 80004e0:	bd30      	popne	{r4, r5, pc}
 80004e2:	ea5f 5c54 	movs.w	ip, r4, lsr #21
 80004e6:	d105      	bne.n	80004f4 <__adddf3+0x230>
 80004e8:	0040      	lsls	r0, r0, #1
 80004ea:	4149      	adcs	r1, r1
 80004ec:	bf28      	it	cs
 80004ee:	f041 4100 	orrcs.w	r1, r1, #2147483648	; 0x80000000
 80004f2:	bd30      	pop	{r4, r5, pc}
 80004f4:	f514 0480 	adds.w	r4, r4, #4194304	; 0x400000
 80004f8:	bf3c      	itt	cc
 80004fa:	f501 1180 	addcc.w	r1, r1, #1048576	; 0x100000
 80004fe:	bd30      	popcc	{r4, r5, pc}
 8000500:	f001 4500 	and.w	r5, r1, #2147483648	; 0x80000000
 8000504:	f045 41fe 	orr.w	r1, r5, #2130706432	; 0x7f000000
 8000508:	f441 0170 	orr.w	r1, r1, #15728640	; 0xf00000
 800050c:	f04f 0000 	mov.w	r0, #0
 8000510:	bd30      	pop	{r4, r5, pc}
 8000512:	ea7f 5c64 	mvns.w	ip, r4, asr #21
 8000516:	bf1a      	itte	ne
 8000518:	4619      	movne	r1, r3
 800051a:	4610      	movne	r0, r2
 800051c:	ea7f 5c65 	mvnseq.w	ip, r5, asr #21
 8000520:	bf1c      	itt	ne
 8000522:	460b      	movne	r3, r1
 8000524:	4602      	movne	r2, r0
 8000526:	ea50 3401 	orrs.w	r4, r0, r1, lsl #12
 800052a:	bf06      	itte	eq
 800052c:	ea52 3503 	orrseq.w	r5, r2, r3, lsl #12
 8000530:	ea91 0f03 	teqeq	r1, r3
 8000534:	f441 2100 	orrne.w	r1, r1, #524288	; 0x80000
 8000538:	bd30      	pop	{r4, r5, pc}
 800053a:	bf00      	nop

0800053c <__aeabi_ui2d>:
 800053c:	f090 0f00 	teq	r0, #0
 8000540:	bf04      	itt	eq
 8000542:	2100      	moveq	r1, #0
 8000544:	4770      	bxeq	lr
 8000546:	b530      	push	{r4, r5, lr}
 8000548:	f44f 6480 	mov.w	r4, #1024	; 0x400
 800054c:	f104 0432 	add.w	r4, r4, #50	; 0x32
 8000550:	f04f 0500 	mov.w	r5, #0
 8000554:	f04f 0100 	mov.w	r1, #0
 8000558:	e750      	b.n	80003fc <__adddf3+0x138>
 800055a:	bf00      	nop

0800055c <__aeabi_i2d>:
 800055c:	f090 0f00 	teq	r0, #0
 8000560:	bf04      	itt	eq
 8000562:	2100      	moveq	r1, #0
 8000564:	4770      	bxeq	lr
 8000566:	b530      	push	{r4, r5, lr}
 8000568:	f44f 6480 	mov.w	r4, #1024	; 0x400
 800056c:	f104 0432 	add.w	r4, r4, #50	; 0x32
 8000570:	f010 4500 	ands.w	r5, r0, #2147483648	; 0x80000000
 8000574:	bf48      	it	mi
 8000576:	4240      	negmi	r0, r0
 8000578:	f04f 0100 	mov.w	r1, #0
 800057c:	e73e      	b.n	80003fc <__adddf3+0x138>
 800057e:	bf00      	nop

08000580 <__aeabi_f2d>:
 8000580:	0042      	lsls	r2, r0, #1
 8000582:	ea4f 01e2 	mov.w	r1, r2, asr #3
 8000586:	ea4f 0131 	mov.w	r1, r1, rrx
 800058a:	ea4f 7002 	mov.w	r0, r2, lsl #28
 800058e:	bf1f      	itttt	ne
 8000590:	f012 437f 	andsne.w	r3, r2, #4278190080	; 0xff000000
 8000594:	f093 4f7f 	teqne	r3, #4278190080	; 0xff000000
 8000598:	f081 5160 	eorne.w	r1, r1, #939524096	; 0x38000000
 800059c:	4770      	bxne	lr
 800059e:	f032 427f 	bics.w	r2, r2, #4278190080	; 0xff000000
 80005a2:	bf08      	it	eq
 80005a4:	4770      	bxeq	lr
 80005a6:	f093 4f7f 	teq	r3, #4278190080	; 0xff000000
 80005aa:	bf04      	itt	eq
 80005ac:	f441 2100 	orreq.w	r1, r1, #524288	; 0x80000
 80005b0:	4770      	bxeq	lr
 80005b2:	b530      	push	{r4, r5, lr}
 80005b4:	f44f 7460 	mov.w	r4, #896	; 0x380
 80005b8:	f001 4500 	and.w	r5, r1, #2147483648	; 0x80000000
 80005bc:	f021 4100 	bic.w	r1, r1, #2147483648	; 0x80000000
 80005c0:	e71c      	b.n	80003fc <__adddf3+0x138>
 80005c2:	bf00      	nop

080005c4 <__aeabi_ul2d>:
 80005c4:	ea50 0201 	orrs.w	r2, r0, r1
 80005c8:	bf08      	it	eq
 80005ca:	4770      	bxeq	lr
 80005cc:	b530      	push	{r4, r5, lr}
 80005ce:	f04f 0500 	mov.w	r5, #0
 80005d2:	e00a      	b.n	80005ea <__aeabi_l2d+0x16>

080005d4 <__aeabi_l2d>:
 80005d4:	ea50 0201 	orrs.w	r2, r0, r1
 80005d8:	bf08      	it	eq
 80005da:	4770      	bxeq	lr
 80005dc:	b530      	push	{r4, r5, lr}
 80005de:	f011 4500 	ands.w	r5, r1, #2147483648	; 0x80000000
 80005e2:	d502      	bpl.n	80005ea <__aeabi_l2d+0x16>
 80005e4:	4240      	negs	r0, r0
 80005e6:	eb61 0141 	sbc.w	r1, r1, r1, lsl #1
 80005ea:	f44f 6480 	mov.w	r4, #1024	; 0x400
 80005ee:	f104 0432 	add.w	r4, r4, #50	; 0x32
 80005f2:	ea5f 5c91 	movs.w	ip, r1, lsr #22
 80005f6:	f43f aed8 	beq.w	80003aa <__adddf3+0xe6>
 80005fa:	f04f 0203 	mov.w	r2, #3
 80005fe:	ea5f 0cdc 	movs.w	ip, ip, lsr #3
 8000602:	bf18      	it	ne
 8000604:	3203      	addne	r2, #3
 8000606:	ea5f 0cdc 	movs.w	ip, ip, lsr #3
 800060a:	bf18      	it	ne
 800060c:	3203      	addne	r2, #3
 800060e:	eb02 02dc 	add.w	r2, r2, ip, lsr #3
 8000612:	f1c2 0320 	rsb	r3, r2, #32
 8000616:	fa00 fc03 	lsl.w	ip, r0, r3
 800061a:	fa20 f002 	lsr.w	r0, r0, r2
 800061e:	fa01 fe03 	lsl.w	lr, r1, r3
 8000622:	ea40 000e 	orr.w	r0, r0, lr
 8000626:	fa21 f102 	lsr.w	r1, r1, r2
 800062a:	4414      	add	r4, r2
 800062c:	e6bd      	b.n	80003aa <__adddf3+0xe6>
 800062e:	bf00      	nop

08000630 <__aeabi_dmul>:
 8000630:	b570      	push	{r4, r5, r6, lr}
 8000632:	f04f 0cff 	mov.w	ip, #255	; 0xff
 8000636:	f44c 6ce0 	orr.w	ip, ip, #1792	; 0x700
 800063a:	ea1c 5411 	ands.w	r4, ip, r1, lsr #20
 800063e:	bf1d      	ittte	ne
 8000640:	ea1c 5513 	andsne.w	r5, ip, r3, lsr #20
 8000644:	ea94 0f0c 	teqne	r4, ip
 8000648:	ea95 0f0c 	teqne	r5, ip
 800064c:	f000 f8de 	bleq	800080c <__aeabi_dmul+0x1dc>
 8000650:	442c      	add	r4, r5
 8000652:	ea81 0603 	eor.w	r6, r1, r3
 8000656:	ea21 514c 	bic.w	r1, r1, ip, lsl #21
 800065a:	ea23 534c 	bic.w	r3, r3, ip, lsl #21
 800065e:	ea50 3501 	orrs.w	r5, r0, r1, lsl #12
 8000662:	bf18      	it	ne
 8000664:	ea52 3503 	orrsne.w	r5, r2, r3, lsl #12
 8000668:	f441 1180 	orr.w	r1, r1, #1048576	; 0x100000
 800066c:	f443 1380 	orr.w	r3, r3, #1048576	; 0x100000
 8000670:	d038      	beq.n	80006e4 <__aeabi_dmul+0xb4>
 8000672:	fba0 ce02 	umull	ip, lr, r0, r2
 8000676:	f04f 0500 	mov.w	r5, #0
 800067a:	fbe1 e502 	umlal	lr, r5, r1, r2
 800067e:	f006 4200 	and.w	r2, r6, #2147483648	; 0x80000000
 8000682:	fbe0 e503 	umlal	lr, r5, r0, r3
 8000686:	f04f 0600 	mov.w	r6, #0
 800068a:	fbe1 5603 	umlal	r5, r6, r1, r3
 800068e:	f09c 0f00 	teq	ip, #0
 8000692:	bf18      	it	ne
 8000694:	f04e 0e01 	orrne.w	lr, lr, #1
 8000698:	f1a4 04ff 	sub.w	r4, r4, #255	; 0xff
 800069c:	f5b6 7f00 	cmp.w	r6, #512	; 0x200
 80006a0:	f564 7440 	sbc.w	r4, r4, #768	; 0x300
 80006a4:	d204      	bcs.n	80006b0 <__aeabi_dmul+0x80>
 80006a6:	ea5f 0e4e 	movs.w	lr, lr, lsl #1
 80006aa:	416d      	adcs	r5, r5
 80006ac:	eb46 0606 	adc.w	r6, r6, r6
 80006b0:	ea42 21c6 	orr.w	r1, r2, r6, lsl #11
 80006b4:	ea41 5155 	orr.w	r1, r1, r5, lsr #21
 80006b8:	ea4f 20c5 	mov.w	r0, r5, lsl #11
 80006bc:	ea40 505e 	orr.w	r0, r0, lr, lsr #21
 80006c0:	ea4f 2ece 	mov.w	lr, lr, lsl #11
 80006c4:	f1b4 0cfd 	subs.w	ip, r4, #253	; 0xfd
 80006c8:	bf88      	it	hi
 80006ca:	f5bc 6fe0 	cmphi.w	ip, #1792	; 0x700
 80006ce:	d81e      	bhi.n	800070e <__aeabi_dmul+0xde>
 80006d0:	f1be 4f00 	cmp.w	lr, #2147483648	; 0x80000000
 80006d4:	bf08      	it	eq
 80006d6:	ea5f 0e50 	movseq.w	lr, r0, lsr #1
 80006da:	f150 0000 	adcs.w	r0, r0, #0
 80006de:	eb41 5104 	adc.w	r1, r1, r4, lsl #20
 80006e2:	bd70      	pop	{r4, r5, r6, pc}
 80006e4:	f006 4600 	and.w	r6, r6, #2147483648	; 0x80000000
 80006e8:	ea46 0101 	orr.w	r1, r6, r1
 80006ec:	ea40 0002 	orr.w	r0, r0, r2
 80006f0:	ea81 0103 	eor.w	r1, r1, r3
 80006f4:	ebb4 045c 	subs.w	r4, r4, ip, lsr #1
 80006f8:	bfc2      	ittt	gt
 80006fa:	ebd4 050c 	rsbsgt	r5, r4, ip
 80006fe:	ea41 5104 	orrgt.w	r1, r1, r4, lsl #20
 8000702:	bd70      	popgt	{r4, r5, r6, pc}
 8000704:	f441 1180 	orr.w	r1, r1, #1048576	; 0x100000
 8000708:	f04f 0e00 	mov.w	lr, #0
 800070c:	3c01      	subs	r4, #1
 800070e:	f300 80ab 	bgt.w	8000868 <__aeabi_dmul+0x238>
 8000712:	f114 0f36 	cmn.w	r4, #54	; 0x36
 8000716:	bfde      	ittt	le
 8000718:	2000      	movle	r0, #0
 800071a:	f001 4100 	andle.w	r1, r1, #2147483648	; 0x80000000
 800071e:	bd70      	pople	{r4, r5, r6, pc}
 8000720:	f1c4 0400 	rsb	r4, r4, #0
 8000724:	3c20      	subs	r4, #32
 8000726:	da35      	bge.n	8000794 <__aeabi_dmul+0x164>
 8000728:	340c      	adds	r4, #12
 800072a:	dc1b      	bgt.n	8000764 <__aeabi_dmul+0x134>
 800072c:	f104 0414 	add.w	r4, r4, #20
 8000730:	f1c4 0520 	rsb	r5, r4, #32
 8000734:	fa00 f305 	lsl.w	r3, r0, r5
 8000738:	fa20 f004 	lsr.w	r0, r0, r4
 800073c:	fa01 f205 	lsl.w	r2, r1, r5
 8000740:	ea40 0002 	orr.w	r0, r0, r2
 8000744:	f001 4200 	and.w	r2, r1, #2147483648	; 0x80000000
 8000748:	f021 4100 	bic.w	r1, r1, #2147483648	; 0x80000000
 800074c:	eb10 70d3 	adds.w	r0, r0, r3, lsr #31
 8000750:	fa21 f604 	lsr.w	r6, r1, r4
 8000754:	eb42 0106 	adc.w	r1, r2, r6
 8000758:	ea5e 0e43 	orrs.w	lr, lr, r3, lsl #1
 800075c:	bf08      	it	eq
 800075e:	ea20 70d3 	biceq.w	r0, r0, r3, lsr #31
 8000762:	bd70      	pop	{r4, r5, r6, pc}
 8000764:	f1c4 040c 	rsb	r4, r4, #12
 8000768:	f1c4 0520 	rsb	r5, r4, #32
 800076c:	fa00 f304 	lsl.w	r3, r0, r4
 8000770:	fa20 f005 	lsr.w	r0, r0, r5
 8000774:	fa01 f204 	lsl.w	r2, r1, r4
 8000778:	ea40 0002 	orr.w	r0, r0, r2
 800077c:	f001 4100 	and.w	r1, r1, #2147483648	; 0x80000000
 8000780:	eb10 70d3 	adds.w	r0, r0, r3, lsr #31
 8000784:	f141 0100 	adc.w	r1, r1, #0
 8000788:	ea5e 0e43 	orrs.w	lr, lr, r3, lsl #1
 800078c:	bf08      	it	eq
 800078e:	ea20 70d3 	biceq.w	r0, r0, r3, lsr #31
 8000792:	bd70      	pop	{r4, r5, r6, pc}
 8000794:	f1c4 0520 	rsb	r5, r4, #32
 8000798:	fa00 f205 	lsl.w	r2, r0, r5
 800079c:	ea4e 0e02 	orr.w	lr, lr, r2
 80007a0:	fa20 f304 	lsr.w	r3, r0, r4
 80007a4:	fa01 f205 	lsl.w	r2, r1, r5
 80007a8:	ea43 0302 	orr.w	r3, r3, r2
 80007ac:	fa21 f004 	lsr.w	r0, r1, r4
 80007b0:	f001 4100 	and.w	r1, r1, #2147483648	; 0x80000000
 80007b4:	fa21 f204 	lsr.w	r2, r1, r4
 80007b8:	ea20 0002 	bic.w	r0, r0, r2
 80007bc:	eb00 70d3 	add.w	r0, r0, r3, lsr #31
 80007c0:	ea5e 0e43 	orrs.w	lr, lr, r3, lsl #1
 80007c4:	bf08      	it	eq
 80007c6:	ea20 70d3 	biceq.w	r0, r0, r3, lsr #31
 80007ca:	bd70      	pop	{r4, r5, r6, pc}
 80007cc:	f094 0f00 	teq	r4, #0
 80007d0:	d10f      	bne.n	80007f2 <__aeabi_dmul+0x1c2>
 80007d2:	f001 4600 	and.w	r6, r1, #2147483648	; 0x80000000
 80007d6:	0040      	lsls	r0, r0, #1
 80007d8:	eb41 0101 	adc.w	r1, r1, r1
 80007dc:	f411 1f80 	tst.w	r1, #1048576	; 0x100000
 80007e0:	bf08      	it	eq
 80007e2:	3c01      	subeq	r4, #1
 80007e4:	d0f7      	beq.n	80007d6 <__aeabi_dmul+0x1a6>
 80007e6:	ea41 0106 	orr.w	r1, r1, r6
 80007ea:	f095 0f00 	teq	r5, #0
 80007ee:	bf18      	it	ne
 80007f0:	4770      	bxne	lr
 80007f2:	f003 4600 	and.w	r6, r3, #2147483648	; 0x80000000
 80007f6:	0052      	lsls	r2, r2, #1
 80007f8:	eb43 0303 	adc.w	r3, r3, r3
 80007fc:	f413 1f80 	tst.w	r3, #1048576	; 0x100000
 8000800:	bf08      	it	eq
 8000802:	3d01      	subeq	r5, #1
 8000804:	d0f7      	beq.n	80007f6 <__aeabi_dmul+0x1c6>
 8000806:	ea43 0306 	orr.w	r3, r3, r6
 800080a:	4770      	bx	lr
 800080c:	ea94 0f0c 	teq	r4, ip
 8000810:	ea0c 5513 	and.w	r5, ip, r3, lsr #20
 8000814:	bf18      	it	ne
 8000816:	ea95 0f0c 	teqne	r5, ip
 800081a:	d00c      	beq.n	8000836 <__aeabi_dmul+0x206>
 800081c:	ea50 0641 	orrs.w	r6, r0, r1, lsl #1
 8000820:	bf18      	it	ne
 8000822:	ea52 0643 	orrsne.w	r6, r2, r3, lsl #1
 8000826:	d1d1      	bne.n	80007cc <__aeabi_dmul+0x19c>
 8000828:	ea81 0103 	eor.w	r1, r1, r3
 800082c:	f001 4100 	and.w	r1, r1, #2147483648	; 0x80000000
 8000830:	f04f 0000 	mov.w	r0, #0
 8000834:	bd70      	pop	{r4, r5, r6, pc}
 8000836:	ea50 0641 	orrs.w	r6, r0, r1, lsl #1
 800083a:	bf06      	itte	eq
 800083c:	4610      	moveq	r0, r2
 800083e:	4619      	moveq	r1, r3
 8000840:	ea52 0643 	orrsne.w	r6, r2, r3, lsl #1
 8000844:	d019      	beq.n	800087a <__aeabi_dmul+0x24a>
 8000846:	ea94 0f0c 	teq	r4, ip
 800084a:	d102      	bne.n	8000852 <__aeabi_dmul+0x222>
 800084c:	ea50 3601 	orrs.w	r6, r0, r1, lsl #12
 8000850:	d113      	bne.n	800087a <__aeabi_dmul+0x24a>
 8000852:	ea95 0f0c 	teq	r5, ip
 8000856:	d105      	bne.n	8000864 <__aeabi_dmul+0x234>
 8000858:	ea52 3603 	orrs.w	r6, r2, r3, lsl #12
 800085c:	bf1c      	itt	ne
 800085e:	4610      	movne	r0, r2
 8000860:	4619      	movne	r1, r3
 8000862:	d10a      	bne.n	800087a <__aeabi_dmul+0x24a>
 8000864:	ea81 0103 	eor.w	r1, r1, r3
 8000868:	f001 4100 	and.w	r1, r1, #2147483648	; 0x80000000
 800086c:	f041 41fe 	orr.w	r1, r1, #2130706432	; 0x7f000000
 8000870:	f441 0170 	orr.w	r1, r1, #15728640	; 0xf00000
 8000874:	f04f 0000 	mov.w	r0, #0
 8000878:	bd70      	pop	{r4, r5, r6, pc}
 800087a:	f041 41fe 	orr.w	r1, r1, #2130706432	; 0x7f000000
 800087e:	f441 0178 	orr.w	r1, r1, #16252928	; 0xf80000
 8000882:	bd70      	pop	{r4, r5, r6, pc}

08000884 <__aeabi_ddiv>:
 8000884:	b570      	push	{r4, r5, r6, lr}
 8000886:	f04f 0cff 	mov.w	ip, #255	; 0xff
 800088a:	f44c 6ce0 	orr.w	ip, ip, #1792	; 0x700
 800088e:	ea1c 5411 	ands.w	r4, ip, r1, lsr #20
 8000892:	bf1d      	ittte	ne
 8000894:	ea1c 5513 	andsne.w	r5, ip, r3, lsr #20
 8000898:	ea94 0f0c 	teqne	r4, ip
 800089c:	ea95 0f0c 	teqne	r5, ip
 80008a0:	f000 f8a7 	bleq	80009f2 <__aeabi_ddiv+0x16e>
 80008a4:	eba4 0405 	sub.w	r4, r4, r5
 80008a8:	ea81 0e03 	eor.w	lr, r1, r3
 80008ac:	ea52 3503 	orrs.w	r5, r2, r3, lsl #12
 80008b0:	ea4f 3101 	mov.w	r1, r1, lsl #12
 80008b4:	f000 8088 	beq.w	80009c8 <__aeabi_ddiv+0x144>
 80008b8:	ea4f 3303 	mov.w	r3, r3, lsl #12
 80008bc:	f04f 5580 	mov.w	r5, #268435456	; 0x10000000
 80008c0:	ea45 1313 	orr.w	r3, r5, r3, lsr #4
 80008c4:	ea43 6312 	orr.w	r3, r3, r2, lsr #24
 80008c8:	ea4f 2202 	mov.w	r2, r2, lsl #8
 80008cc:	ea45 1511 	orr.w	r5, r5, r1, lsr #4
 80008d0:	ea45 6510 	orr.w	r5, r5, r0, lsr #24
 80008d4:	ea4f 2600 	mov.w	r6, r0, lsl #8
 80008d8:	f00e 4100 	and.w	r1, lr, #2147483648	; 0x80000000
 80008dc:	429d      	cmp	r5, r3
 80008de:	bf08      	it	eq
 80008e0:	4296      	cmpeq	r6, r2
 80008e2:	f144 04fd 	adc.w	r4, r4, #253	; 0xfd
 80008e6:	f504 7440 	add.w	r4, r4, #768	; 0x300
 80008ea:	d202      	bcs.n	80008f2 <__aeabi_ddiv+0x6e>
 80008ec:	085b      	lsrs	r3, r3, #1
 80008ee:	ea4f 0232 	mov.w	r2, r2, rrx
 80008f2:	1ab6      	subs	r6, r6, r2
 80008f4:	eb65 0503 	sbc.w	r5, r5, r3
 80008f8:	085b      	lsrs	r3, r3, #1
 80008fa:	ea4f 0232 	mov.w	r2, r2, rrx
 80008fe:	f44f 1080 	mov.w	r0, #1048576	; 0x100000
 8000902:	f44f 2c00 	mov.w	ip, #524288	; 0x80000
 8000906:	ebb6 0e02 	subs.w	lr, r6, r2
 800090a:	eb75 0e03 	sbcs.w	lr, r5, r3
 800090e:	bf22      	ittt	cs
 8000910:	1ab6      	subcs	r6, r6, r2
 8000912:	4675      	movcs	r5, lr
 8000914:	ea40 000c 	orrcs.w	r0, r0, ip
 8000918:	085b      	lsrs	r3, r3, #1
 800091a:	ea4f 0232 	mov.w	r2, r2, rrx
 800091e:	ebb6 0e02 	subs.w	lr, r6, r2
 8000922:	eb75 0e03 	sbcs.w	lr, r5, r3
 8000926:	bf22      	ittt	cs
 8000928:	1ab6      	subcs	r6, r6, r2
 800092a:	4675      	movcs	r5, lr
 800092c:	ea40 005c 	orrcs.w	r0, r0, ip, lsr #1
 8000930:	085b      	lsrs	r3, r3, #1
 8000932:	ea4f 0232 	mov.w	r2, r2, rrx
 8000936:	ebb6 0e02 	subs.w	lr, r6, r2
 800093a:	eb75 0e03 	sbcs.w	lr, r5, r3
 800093e:	bf22      	ittt	cs
 8000940:	1ab6      	subcs	r6, r6, r2
 8000942:	4675      	movcs	r5, lr
 8000944:	ea40 009c 	orrcs.w	r0, r0, ip, lsr #2
 8000948:	085b      	lsrs	r3, r3, #1
 800094a:	ea4f 0232 	mov.w	r2, r2, rrx
 800094e:	ebb6 0e02 	subs.w	lr, r6, r2
 8000952:	eb75 0e03 	sbcs.w	lr, r5, r3
 8000956:	bf22      	ittt	cs
 8000958:	1ab6      	subcs	r6, r6, r2
 800095a:	4675      	movcs	r5, lr
 800095c:	ea40 00dc 	orrcs.w	r0, r0, ip, lsr #3
 8000960:	ea55 0e06 	orrs.w	lr, r5, r6
 8000964:	d018      	beq.n	8000998 <__aeabi_ddiv+0x114>
 8000966:	ea4f 1505 	mov.w	r5, r5, lsl #4
 800096a:	ea45 7516 	orr.w	r5, r5, r6, lsr #28
 800096e:	ea4f 1606 	mov.w	r6, r6, lsl #4
 8000972:	ea4f 03c3 	mov.w	r3, r3, lsl #3
 8000976:	ea43 7352 	orr.w	r3, r3, r2, lsr #29
 800097a:	ea4f 02c2 	mov.w	r2, r2, lsl #3
 800097e:	ea5f 1c1c 	movs.w	ip, ip, lsr #4
 8000982:	d1c0      	bne.n	8000906 <__aeabi_ddiv+0x82>
 8000984:	f411 1f80 	tst.w	r1, #1048576	; 0x100000
 8000988:	d10b      	bne.n	80009a2 <__aeabi_ddiv+0x11e>
 800098a:	ea41 0100 	orr.w	r1, r1, r0
 800098e:	f04f 0000 	mov.w	r0, #0
 8000992:	f04f 4c00 	mov.w	ip, #2147483648	; 0x80000000
 8000996:	e7b6      	b.n	8000906 <__aeabi_ddiv+0x82>
 8000998:	f411 1f80 	tst.w	r1, #1048576	; 0x100000
 800099c:	bf04      	itt	eq
 800099e:	4301      	orreq	r1, r0
 80009a0:	2000      	moveq	r0, #0
 80009a2:	f1b4 0cfd 	subs.w	ip, r4, #253	; 0xfd
 80009a6:	bf88      	it	hi
 80009a8:	f5bc 6fe0 	cmphi.w	ip, #1792	; 0x700
 80009ac:	f63f aeaf 	bhi.w	800070e <__aeabi_dmul+0xde>
 80009b0:	ebb5 0c03 	subs.w	ip, r5, r3
 80009b4:	bf04      	itt	eq
 80009b6:	ebb6 0c02 	subseq.w	ip, r6, r2
 80009ba:	ea5f 0c50 	movseq.w	ip, r0, lsr #1
 80009be:	f150 0000 	adcs.w	r0, r0, #0
 80009c2:	eb41 5104 	adc.w	r1, r1, r4, lsl #20
 80009c6:	bd70      	pop	{r4, r5, r6, pc}
 80009c8:	f00e 4e00 	and.w	lr, lr, #2147483648	; 0x80000000
 80009cc:	ea4e 3111 	orr.w	r1, lr, r1, lsr #12
 80009d0:	eb14 045c 	adds.w	r4, r4, ip, lsr #1
 80009d4:	bfc2      	ittt	gt
 80009d6:	ebd4 050c 	rsbsgt	r5, r4, ip
 80009da:	ea41 5104 	orrgt.w	r1, r1, r4, lsl #20
 80009de:	bd70      	popgt	{r4, r5, r6, pc}
 80009e0:	f441 1180 	orr.w	r1, r1, #1048576	; 0x100000
 80009e4:	f04f 0e00 	mov.w	lr, #0
 80009e8:	3c01      	subs	r4, #1
 80009ea:	e690      	b.n	800070e <__aeabi_dmul+0xde>
 80009ec:	ea45 0e06 	orr.w	lr, r5, r6
 80009f0:	e68d      	b.n	800070e <__aeabi_dmul+0xde>
 80009f2:	ea0c 5513 	and.w	r5, ip, r3, lsr #20
 80009f6:	ea94 0f0c 	teq	r4, ip
 80009fa:	bf08      	it	eq
 80009fc:	ea95 0f0c 	teqeq	r5, ip
 8000a00:	f43f af3b 	beq.w	800087a <__aeabi_dmul+0x24a>
 8000a04:	ea94 0f0c 	teq	r4, ip
 8000a08:	d10a      	bne.n	8000a20 <__aeabi_ddiv+0x19c>
 8000a0a:	ea50 3401 	orrs.w	r4, r0, r1, lsl #12
 8000a0e:	f47f af34 	bne.w	800087a <__aeabi_dmul+0x24a>
 8000a12:	ea95 0f0c 	teq	r5, ip
 8000a16:	f47f af25 	bne.w	8000864 <__aeabi_dmul+0x234>
 8000a1a:	4610      	mov	r0, r2
 8000a1c:	4619      	mov	r1, r3
 8000a1e:	e72c      	b.n	800087a <__aeabi_dmul+0x24a>
 8000a20:	ea95 0f0c 	teq	r5, ip
 8000a24:	d106      	bne.n	8000a34 <__aeabi_ddiv+0x1b0>
 8000a26:	ea52 3503 	orrs.w	r5, r2, r3, lsl #12
 8000a2a:	f43f aefd 	beq.w	8000828 <__aeabi_dmul+0x1f8>
 8000a2e:	4610      	mov	r0, r2
 8000a30:	4619      	mov	r1, r3
 8000a32:	e722      	b.n	800087a <__aeabi_dmul+0x24a>
 8000a34:	ea50 0641 	orrs.w	r6, r0, r1, lsl #1
 8000a38:	bf18      	it	ne
 8000a3a:	ea52 0643 	orrsne.w	r6, r2, r3, lsl #1
 8000a3e:	f47f aec5 	bne.w	80007cc <__aeabi_dmul+0x19c>
 8000a42:	ea50 0441 	orrs.w	r4, r0, r1, lsl #1
 8000a46:	f47f af0d 	bne.w	8000864 <__aeabi_dmul+0x234>
 8000a4a:	ea52 0543 	orrs.w	r5, r2, r3, lsl #1
 8000a4e:	f47f aeeb 	bne.w	8000828 <__aeabi_dmul+0x1f8>
 8000a52:	e712      	b.n	800087a <__aeabi_dmul+0x24a>

08000a54 <__gedf2>:
 8000a54:	f04f 3cff 	mov.w	ip, #4294967295
 8000a58:	e006      	b.n	8000a68 <__cmpdf2+0x4>
 8000a5a:	bf00      	nop

08000a5c <__ledf2>:
 8000a5c:	f04f 0c01 	mov.w	ip, #1
 8000a60:	e002      	b.n	8000a68 <__cmpdf2+0x4>
 8000a62:	bf00      	nop

08000a64 <__cmpdf2>:
 8000a64:	f04f 0c01 	mov.w	ip, #1
 8000a68:	f84d cd04 	str.w	ip, [sp, #-4]!
 8000a6c:	ea4f 0c41 	mov.w	ip, r1, lsl #1
 8000a70:	ea7f 5c6c 	mvns.w	ip, ip, asr #21
 8000a74:	ea4f 0c43 	mov.w	ip, r3, lsl #1
 8000a78:	bf18      	it	ne
 8000a7a:	ea7f 5c6c 	mvnsne.w	ip, ip, asr #21
 8000a7e:	d01b      	beq.n	8000ab8 <__cmpdf2+0x54>
 8000a80:	b001      	add	sp, #4
 8000a82:	ea50 0c41 	orrs.w	ip, r0, r1, lsl #1
 8000a86:	bf0c      	ite	eq
 8000a88:	ea52 0c43 	orrseq.w	ip, r2, r3, lsl #1
 8000a8c:	ea91 0f03 	teqne	r1, r3
 8000a90:	bf02      	ittt	eq
 8000a92:	ea90 0f02 	teqeq	r0, r2
 8000a96:	2000      	moveq	r0, #0
 8000a98:	4770      	bxeq	lr
 8000a9a:	f110 0f00 	cmn.w	r0, #0
 8000a9e:	ea91 0f03 	teq	r1, r3
 8000aa2:	bf58      	it	pl
 8000aa4:	4299      	cmppl	r1, r3
 8000aa6:	bf08      	it	eq
 8000aa8:	4290      	cmpeq	r0, r2
 8000aaa:	bf2c      	ite	cs
 8000aac:	17d8      	asrcs	r0, r3, #31
 8000aae:	ea6f 70e3 	mvncc.w	r0, r3, asr #31
 8000ab2:	f040 0001 	orr.w	r0, r0, #1
 8000ab6:	4770      	bx	lr
 8000ab8:	ea4f 0c41 	mov.w	ip, r1, lsl #1
 8000abc:	ea7f 5c6c 	mvns.w	ip, ip, asr #21
 8000ac0:	d102      	bne.n	8000ac8 <__cmpdf2+0x64>
 8000ac2:	ea50 3c01 	orrs.w	ip, r0, r1, lsl #12
 8000ac6:	d107      	bne.n	8000ad8 <__cmpdf2+0x74>
 8000ac8:	ea4f 0c43 	mov.w	ip, r3, lsl #1
 8000acc:	ea7f 5c6c 	mvns.w	ip, ip, asr #21
 8000ad0:	d1d6      	bne.n	8000a80 <__cmpdf2+0x1c>
 8000ad2:	ea52 3c03 	orrs.w	ip, r2, r3, lsl #12
 8000ad6:	d0d3      	beq.n	8000a80 <__cmpdf2+0x1c>
 8000ad8:	f85d 0b04 	ldr.w	r0, [sp], #4
 8000adc:	4770      	bx	lr
 8000ade:	bf00      	nop

08000ae0 <__aeabi_cdrcmple>:
 8000ae0:	4684      	mov	ip, r0
 8000ae2:	4610      	mov	r0, r2
 8000ae4:	4662      	mov	r2, ip
 8000ae6:	468c      	mov	ip, r1
 8000ae8:	4619      	mov	r1, r3
 8000aea:	4663      	mov	r3, ip
 8000aec:	e000      	b.n	8000af0 <__aeabi_cdcmpeq>
 8000aee:	bf00      	nop

08000af0 <__aeabi_cdcmpeq>:
 8000af0:	b501      	push	{r0, lr}
 8000af2:	f7ff ffb7 	bl	8000a64 <__cmpdf2>
 8000af6:	2800      	cmp	r0, #0
 8000af8:	bf48      	it	mi
 8000afa:	f110 0f00 	cmnmi.w	r0, #0
 8000afe:	bd01      	pop	{r0, pc}

08000b00 <__aeabi_dcmpeq>:
 8000b00:	f84d ed08 	str.w	lr, [sp, #-8]!
 8000b04:	f7ff fff4 	bl	8000af0 <__aeabi_cdcmpeq>
 8000b08:	bf0c      	ite	eq
 8000b0a:	2001      	moveq	r0, #1
 8000b0c:	2000      	movne	r0, #0
 8000b0e:	f85d fb08 	ldr.w	pc, [sp], #8
 8000b12:	bf00      	nop

08000b14 <__aeabi_dcmplt>:
 8000b14:	f84d ed08 	str.w	lr, [sp, #-8]!
 8000b18:	f7ff ffea 	bl	8000af0 <__aeabi_cdcmpeq>
 8000b1c:	bf34      	ite	cc
 8000b1e:	2001      	movcc	r0, #1
 8000b20:	2000      	movcs	r0, #0
 8000b22:	f85d fb08 	ldr.w	pc, [sp], #8
 8000b26:	bf00      	nop

08000b28 <__aeabi_dcmple>:
 8000b28:	f84d ed08 	str.w	lr, [sp, #-8]!
 8000b2c:	f7ff ffe0 	bl	8000af0 <__aeabi_cdcmpeq>
 8000b30:	bf94      	ite	ls
 8000b32:	2001      	movls	r0, #1
 8000b34:	2000      	movhi	r0, #0
 8000b36:	f85d fb08 	ldr.w	pc, [sp], #8
 8000b3a:	bf00      	nop

08000b3c <__aeabi_dcmpge>:
 8000b3c:	f84d ed08 	str.w	lr, [sp, #-8]!
 8000b40:	f7ff ffce 	bl	8000ae0 <__aeabi_cdrcmple>
 8000b44:	bf94      	ite	ls
 8000b46:	2001      	movls	r0, #1
 8000b48:	2000      	movhi	r0, #0
 8000b4a:	f85d fb08 	ldr.w	pc, [sp], #8
 8000b4e:	bf00      	nop

08000b50 <__aeabi_dcmpgt>:
 8000b50:	f84d ed08 	str.w	lr, [sp, #-8]!
 8000b54:	f7ff ffc4 	bl	8000ae0 <__aeabi_cdrcmple>
 8000b58:	bf34      	ite	cc
 8000b5a:	2001      	movcc	r0, #1
 8000b5c:	2000      	movcs	r0, #0
 8000b5e:	f85d fb08 	ldr.w	pc, [sp], #8
 8000b62:	bf00      	nop

08000b64 <__aeabi_dcmpun>:
 8000b64:	ea4f 0c41 	mov.w	ip, r1, lsl #1
 8000b68:	ea7f 5c6c 	mvns.w	ip, ip, asr #21
 8000b6c:	d102      	bne.n	8000b74 <__aeabi_dcmpun+0x10>
 8000b6e:	ea50 3c01 	orrs.w	ip, r0, r1, lsl #12
 8000b72:	d10a      	bne.n	8000b8a <__aeabi_dcmpun+0x26>
 8000b74:	ea4f 0c43 	mov.w	ip, r3, lsl #1
 8000b78:	ea7f 5c6c 	mvns.w	ip, ip, asr #21
 8000b7c:	d102      	bne.n	8000b84 <__aeabi_dcmpun+0x20>
 8000b7e:	ea52 3c03 	orrs.w	ip, r2, r3, lsl #12
 8000b82:	d102      	bne.n	8000b8a <__aeabi_dcmpun+0x26>
 8000b84:	f04f 0000 	mov.w	r0, #0
 8000b88:	4770      	bx	lr
 8000b8a:	f04f 0001 	mov.w	r0, #1
 8000b8e:	4770      	bx	lr

08000b90 <__aeabi_d2iz>:
 8000b90:	ea4f 0241 	mov.w	r2, r1, lsl #1
 8000b94:	f512 1200 	adds.w	r2, r2, #2097152	; 0x200000
 8000b98:	d215      	bcs.n	8000bc6 <__aeabi_d2iz+0x36>
 8000b9a:	d511      	bpl.n	8000bc0 <__aeabi_d2iz+0x30>
 8000b9c:	f46f 7378 	mvn.w	r3, #992	; 0x3e0
 8000ba0:	ebb3 5262 	subs.w	r2, r3, r2, asr #21
 8000ba4:	d912      	bls.n	8000bcc <__aeabi_d2iz+0x3c>
 8000ba6:	ea4f 23c1 	mov.w	r3, r1, lsl #11
 8000baa:	f043 4300 	orr.w	r3, r3, #2147483648	; 0x80000000
 8000bae:	ea43 5350 	orr.w	r3, r3, r0, lsr #21
 8000bb2:	f011 4f00 	tst.w	r1, #2147483648	; 0x80000000
 8000bb6:	fa23 f002 	lsr.w	r0, r3, r2
 8000bba:	bf18      	it	ne
 8000bbc:	4240      	negne	r0, r0
 8000bbe:	4770      	bx	lr
 8000bc0:	f04f 0000 	mov.w	r0, #0
 8000bc4:	4770      	bx	lr
 8000bc6:	ea50 3001 	orrs.w	r0, r0, r1, lsl #12
 8000bca:	d105      	bne.n	8000bd8 <__aeabi_d2iz+0x48>
 8000bcc:	f011 4000 	ands.w	r0, r1, #2147483648	; 0x80000000
 8000bd0:	bf08      	it	eq
 8000bd2:	f06f 4000 	mvneq.w	r0, #2147483648	; 0x80000000
 8000bd6:	4770      	bx	lr
 8000bd8:	f04f 0000 	mov.w	r0, #0
 8000bdc:	4770      	bx	lr
 8000bde:	bf00      	nop

08000be0 <__aeabi_d2f>:
 8000be0:	ea4f 0241 	mov.w	r2, r1, lsl #1
 8000be4:	f1b2 43e0 	subs.w	r3, r2, #1879048192	; 0x70000000
 8000be8:	bf24      	itt	cs
 8000bea:	f5b3 1c00 	subscs.w	ip, r3, #2097152	; 0x200000
 8000bee:	f1dc 5cfe 	rsbscs	ip, ip, #532676608	; 0x1fc00000
 8000bf2:	d90d      	bls.n	8000c10 <__aeabi_d2f+0x30>
 8000bf4:	f001 4c00 	and.w	ip, r1, #2147483648	; 0x80000000
 8000bf8:	ea4f 02c0 	mov.w	r2, r0, lsl #3
 8000bfc:	ea4c 7050 	orr.w	r0, ip, r0, lsr #29
 8000c00:	f1b2 4f00 	cmp.w	r2, #2147483648	; 0x80000000
 8000c04:	eb40 0083 	adc.w	r0, r0, r3, lsl #2
 8000c08:	bf08      	it	eq
 8000c0a:	f020 0001 	biceq.w	r0, r0, #1
 8000c0e:	4770      	bx	lr
 8000c10:	f011 4f80 	tst.w	r1, #1073741824	; 0x40000000
 8000c14:	d121      	bne.n	8000c5a <__aeabi_d2f+0x7a>
 8000c16:	f113 7238 	adds.w	r2, r3, #48234496	; 0x2e00000
 8000c1a:	bfbc      	itt	lt
 8000c1c:	f001 4000 	andlt.w	r0, r1, #2147483648	; 0x80000000
 8000c20:	4770      	bxlt	lr
 8000c22:	f441 1180 	orr.w	r1, r1, #1048576	; 0x100000
 8000c26:	ea4f 5252 	mov.w	r2, r2, lsr #21
 8000c2a:	f1c2 0218 	rsb	r2, r2, #24
 8000c2e:	f1c2 0c20 	rsb	ip, r2, #32
 8000c32:	fa10 f30c 	lsls.w	r3, r0, ip
 8000c36:	fa20 f002 	lsr.w	r0, r0, r2
 8000c3a:	bf18      	it	ne
 8000c3c:	f040 0001 	orrne.w	r0, r0, #1
 8000c40:	ea4f 23c1 	mov.w	r3, r1, lsl #11
 8000c44:	ea4f 23d3 	mov.w	r3, r3, lsr #11
 8000c48:	fa03 fc0c 	lsl.w	ip, r3, ip
 8000c4c:	ea40 000c 	orr.w	r0, r0, ip
 8000c50:	fa23 f302 	lsr.w	r3, r3, r2
 8000c54:	ea4f 0343 	mov.w	r3, r3, lsl #1
 8000c58:	e7cc      	b.n	8000bf4 <__aeabi_d2f+0x14>
 8000c5a:	ea7f 5362 	mvns.w	r3, r2, asr #21
 8000c5e:	d107      	bne.n	8000c70 <__aeabi_d2f+0x90>
 8000c60:	ea50 3301 	orrs.w	r3, r0, r1, lsl #12
 8000c64:	bf1e      	ittt	ne
 8000c66:	f04f 40fe 	movne.w	r0, #2130706432	; 0x7f000000
 8000c6a:	f440 0040 	orrne.w	r0, r0, #12582912	; 0xc00000
 8000c6e:	4770      	bxne	lr
 8000c70:	f001 4000 	and.w	r0, r1, #2147483648	; 0x80000000
 8000c74:	f040 40fe 	orr.w	r0, r0, #2130706432	; 0x7f000000
 8000c78:	f440 0000 	orr.w	r0, r0, #8388608	; 0x800000
 8000c7c:	4770      	bx	lr
 8000c7e:	bf00      	nop

08000c80 <__aeabi_frsub>:
 8000c80:	f080 4000 	eor.w	r0, r0, #2147483648	; 0x80000000
 8000c84:	e002      	b.n	8000c8c <__addsf3>
 8000c86:	bf00      	nop

08000c88 <__aeabi_fsub>:
 8000c88:	f081 4100 	eor.w	r1, r1, #2147483648	; 0x80000000

08000c8c <__addsf3>:
 8000c8c:	0042      	lsls	r2, r0, #1
 8000c8e:	bf1f      	itttt	ne
 8000c90:	ea5f 0341 	movsne.w	r3, r1, lsl #1
 8000c94:	ea92 0f03 	teqne	r2, r3
 8000c98:	ea7f 6c22 	mvnsne.w	ip, r2, asr #24
 8000c9c:	ea7f 6c23 	mvnsne.w	ip, r3, asr #24
 8000ca0:	d06a      	beq.n	8000d78 <__addsf3+0xec>
 8000ca2:	ea4f 6212 	mov.w	r2, r2, lsr #24
 8000ca6:	ebd2 6313 	rsbs	r3, r2, r3, lsr #24
 8000caa:	bfc1      	itttt	gt
 8000cac:	18d2      	addgt	r2, r2, r3
 8000cae:	4041      	eorgt	r1, r0
 8000cb0:	4048      	eorgt	r0, r1
 8000cb2:	4041      	eorgt	r1, r0
 8000cb4:	bfb8      	it	lt
 8000cb6:	425b      	neglt	r3, r3
 8000cb8:	2b19      	cmp	r3, #25
 8000cba:	bf88      	it	hi
 8000cbc:	4770      	bxhi	lr
 8000cbe:	f010 4f00 	tst.w	r0, #2147483648	; 0x80000000
 8000cc2:	f440 0000 	orr.w	r0, r0, #8388608	; 0x800000
 8000cc6:	f020 407f 	bic.w	r0, r0, #4278190080	; 0xff000000
 8000cca:	bf18      	it	ne
 8000ccc:	4240      	negne	r0, r0
 8000cce:	f011 4f00 	tst.w	r1, #2147483648	; 0x80000000
 8000cd2:	f441 0100 	orr.w	r1, r1, #8388608	; 0x800000
 8000cd6:	f021 417f 	bic.w	r1, r1, #4278190080	; 0xff000000
 8000cda:	bf18      	it	ne
 8000cdc:	4249      	negne	r1, r1
 8000cde:	ea92 0f03 	teq	r2, r3
 8000ce2:	d03f      	beq.n	8000d64 <__addsf3+0xd8>
 8000ce4:	f1a2 0201 	sub.w	r2, r2, #1
 8000ce8:	fa41 fc03 	asr.w	ip, r1, r3
 8000cec:	eb10 000c 	adds.w	r0, r0, ip
 8000cf0:	f1c3 0320 	rsb	r3, r3, #32
 8000cf4:	fa01 f103 	lsl.w	r1, r1, r3
 8000cf8:	f000 4300 	and.w	r3, r0, #2147483648	; 0x80000000
 8000cfc:	d502      	bpl.n	8000d04 <__addsf3+0x78>
 8000cfe:	4249      	negs	r1, r1
 8000d00:	eb60 0040 	sbc.w	r0, r0, r0, lsl #1
 8000d04:	f5b0 0f00 	cmp.w	r0, #8388608	; 0x800000
 8000d08:	d313      	bcc.n	8000d32 <__addsf3+0xa6>
 8000d0a:	f1b0 7f80 	cmp.w	r0, #16777216	; 0x1000000
 8000d0e:	d306      	bcc.n	8000d1e <__addsf3+0x92>
 8000d10:	0840      	lsrs	r0, r0, #1
 8000d12:	ea4f 0131 	mov.w	r1, r1, rrx
 8000d16:	f102 0201 	add.w	r2, r2, #1
 8000d1a:	2afe      	cmp	r2, #254	; 0xfe
 8000d1c:	d251      	bcs.n	8000dc2 <__addsf3+0x136>
 8000d1e:	f1b1 4f00 	cmp.w	r1, #2147483648	; 0x80000000
 8000d22:	eb40 50c2 	adc.w	r0, r0, r2, lsl #23
 8000d26:	bf08      	it	eq
 8000d28:	f020 0001 	biceq.w	r0, r0, #1
 8000d2c:	ea40 0003 	orr.w	r0, r0, r3
 8000d30:	4770      	bx	lr
 8000d32:	0049      	lsls	r1, r1, #1
 8000d34:	eb40 0000 	adc.w	r0, r0, r0
 8000d38:	3a01      	subs	r2, #1
 8000d3a:	bf28      	it	cs
 8000d3c:	f5b0 0f00 	cmpcs.w	r0, #8388608	; 0x800000
 8000d40:	d2ed      	bcs.n	8000d1e <__addsf3+0x92>
 8000d42:	fab0 fc80 	clz	ip, r0
 8000d46:	f1ac 0c08 	sub.w	ip, ip, #8
 8000d4a:	ebb2 020c 	subs.w	r2, r2, ip
 8000d4e:	fa00 f00c 	lsl.w	r0, r0, ip
 8000d52:	bfaa      	itet	ge
 8000d54:	eb00 50c2 	addge.w	r0, r0, r2, lsl #23
 8000d58:	4252      	neglt	r2, r2
 8000d5a:	4318      	orrge	r0, r3
 8000d5c:	bfbc      	itt	lt
 8000d5e:	40d0      	lsrlt	r0, r2
 8000d60:	4318      	orrlt	r0, r3
 8000d62:	4770      	bx	lr
 8000d64:	f092 0f00 	teq	r2, #0
 8000d68:	f481 0100 	eor.w	r1, r1, #8388608	; 0x800000
 8000d6c:	bf06      	itte	eq
 8000d6e:	f480 0000 	eoreq.w	r0, r0, #8388608	; 0x800000
 8000d72:	3201      	addeq	r2, #1
 8000d74:	3b01      	subne	r3, #1
 8000d76:	e7b5      	b.n	8000ce4 <__addsf3+0x58>
 8000d78:	ea4f 0341 	mov.w	r3, r1, lsl #1
 8000d7c:	ea7f 6c22 	mvns.w	ip, r2, asr #24
 8000d80:	bf18      	it	ne
 8000d82:	ea7f 6c23 	mvnsne.w	ip, r3, asr #24
 8000d86:	d021      	beq.n	8000dcc <__addsf3+0x140>
 8000d88:	ea92 0f03 	teq	r2, r3
 8000d8c:	d004      	beq.n	8000d98 <__addsf3+0x10c>
 8000d8e:	f092 0f00 	teq	r2, #0
 8000d92:	bf08      	it	eq
 8000d94:	4608      	moveq	r0, r1
 8000d96:	4770      	bx	lr
 8000d98:	ea90 0f01 	teq	r0, r1
 8000d9c:	bf1c      	itt	ne
 8000d9e:	2000      	movne	r0, #0
 8000da0:	4770      	bxne	lr
 8000da2:	f012 4f7f 	tst.w	r2, #4278190080	; 0xff000000
 8000da6:	d104      	bne.n	8000db2 <__addsf3+0x126>
 8000da8:	0040      	lsls	r0, r0, #1
 8000daa:	bf28      	it	cs
 8000dac:	f040 4000 	orrcs.w	r0, r0, #2147483648	; 0x80000000
 8000db0:	4770      	bx	lr
 8000db2:	f112 7200 	adds.w	r2, r2, #33554432	; 0x2000000
 8000db6:	bf3c      	itt	cc
 8000db8:	f500 0000 	addcc.w	r0, r0, #8388608	; 0x800000
 8000dbc:	4770      	bxcc	lr
 8000dbe:	f000 4300 	and.w	r3, r0, #2147483648	; 0x80000000
 8000dc2:	f043 40fe 	orr.w	r0, r3, #2130706432	; 0x7f000000
 8000dc6:	f440 0000 	orr.w	r0, r0, #8388608	; 0x800000
 8000dca:	4770      	bx	lr
 8000dcc:	ea7f 6222 	mvns.w	r2, r2, asr #24
 8000dd0:	bf16      	itet	ne
 8000dd2:	4608      	movne	r0, r1
 8000dd4:	ea7f 6323 	mvnseq.w	r3, r3, asr #24
 8000dd8:	4601      	movne	r1, r0
 8000dda:	0242      	lsls	r2, r0, #9
 8000ddc:	bf06      	itte	eq
 8000dde:	ea5f 2341 	movseq.w	r3, r1, lsl #9
 8000de2:	ea90 0f01 	teqeq	r0, r1
 8000de6:	f440 0080 	orrne.w	r0, r0, #4194304	; 0x400000
 8000dea:	4770      	bx	lr

08000dec <__aeabi_ui2f>:
 8000dec:	f04f 0300 	mov.w	r3, #0
 8000df0:	e004      	b.n	8000dfc <__aeabi_i2f+0x8>
 8000df2:	bf00      	nop

08000df4 <__aeabi_i2f>:
 8000df4:	f010 4300 	ands.w	r3, r0, #2147483648	; 0x80000000
 8000df8:	bf48      	it	mi
 8000dfa:	4240      	negmi	r0, r0
 8000dfc:	ea5f 0c00 	movs.w	ip, r0
 8000e00:	bf08      	it	eq
 8000e02:	4770      	bxeq	lr
 8000e04:	f043 4396 	orr.w	r3, r3, #1258291200	; 0x4b000000
 8000e08:	4601      	mov	r1, r0
 8000e0a:	f04f 0000 	mov.w	r0, #0
 8000e0e:	e01c      	b.n	8000e4a <__aeabi_l2f+0x2a>

08000e10 <__aeabi_ul2f>:
 8000e10:	ea50 0201 	orrs.w	r2, r0, r1
 8000e14:	bf08      	it	eq
 8000e16:	4770      	bxeq	lr
 8000e18:	f04f 0300 	mov.w	r3, #0
 8000e1c:	e00a      	b.n	8000e34 <__aeabi_l2f+0x14>
 8000e1e:	bf00      	nop

08000e20 <__aeabi_l2f>:
 8000e20:	ea50 0201 	orrs.w	r2, r0, r1
 8000e24:	bf08      	it	eq
 8000e26:	4770      	bxeq	lr
 8000e28:	f011 4300 	ands.w	r3, r1, #2147483648	; 0x80000000
 8000e2c:	d502      	bpl.n	8000e34 <__aeabi_l2f+0x14>
 8000e2e:	4240      	negs	r0, r0
 8000e30:	eb61 0141 	sbc.w	r1, r1, r1, lsl #1
 8000e34:	ea5f 0c01 	movs.w	ip, r1
 8000e38:	bf02      	ittt	eq
 8000e3a:	4684      	moveq	ip, r0
 8000e3c:	4601      	moveq	r1, r0
 8000e3e:	2000      	moveq	r0, #0
 8000e40:	f043 43b6 	orr.w	r3, r3, #1526726656	; 0x5b000000
 8000e44:	bf08      	it	eq
 8000e46:	f1a3 5380 	subeq.w	r3, r3, #268435456	; 0x10000000
 8000e4a:	f5a3 0300 	sub.w	r3, r3, #8388608	; 0x800000
 8000e4e:	fabc f28c 	clz	r2, ip
 8000e52:	3a08      	subs	r2, #8
 8000e54:	eba3 53c2 	sub.w	r3, r3, r2, lsl #23
 8000e58:	db10      	blt.n	8000e7c <__aeabi_l2f+0x5c>
 8000e5a:	fa01 fc02 	lsl.w	ip, r1, r2
 8000e5e:	4463      	add	r3, ip
 8000e60:	fa00 fc02 	lsl.w	ip, r0, r2
 8000e64:	f1c2 0220 	rsb	r2, r2, #32
 8000e68:	f1bc 4f00 	cmp.w	ip, #2147483648	; 0x80000000
 8000e6c:	fa20 f202 	lsr.w	r2, r0, r2
 8000e70:	eb43 0002 	adc.w	r0, r3, r2
 8000e74:	bf08      	it	eq
 8000e76:	f020 0001 	biceq.w	r0, r0, #1
 8000e7a:	4770      	bx	lr
 8000e7c:	f102 0220 	add.w	r2, r2, #32
 8000e80:	fa01 fc02 	lsl.w	ip, r1, r2
 8000e84:	f1c2 0220 	rsb	r2, r2, #32
 8000e88:	ea50 004c 	orrs.w	r0, r0, ip, lsl #1
 8000e8c:	fa21 f202 	lsr.w	r2, r1, r2
 8000e90:	eb43 0002 	adc.w	r0, r3, r2
 8000e94:	bf08      	it	eq
 8000e96:	ea20 70dc 	biceq.w	r0, r0, ip, lsr #31
 8000e9a:	4770      	bx	lr

08000e9c <__gesf2>:
 8000e9c:	f04f 3cff 	mov.w	ip, #4294967295
 8000ea0:	e006      	b.n	8000eb0 <__cmpsf2+0x4>
 8000ea2:	bf00      	nop

08000ea4 <__lesf2>:
 8000ea4:	f04f 0c01 	mov.w	ip, #1
 8000ea8:	e002      	b.n	8000eb0 <__cmpsf2+0x4>
 8000eaa:	bf00      	nop

08000eac <__cmpsf2>:
 8000eac:	f04f 0c01 	mov.w	ip, #1
 8000eb0:	f84d cd04 	str.w	ip, [sp, #-4]!
 8000eb4:	ea4f 0240 	mov.w	r2, r0, lsl #1
 8000eb8:	ea4f 0341 	mov.w	r3, r1, lsl #1
 8000ebc:	ea7f 6c22 	mvns.w	ip, r2, asr #24
 8000ec0:	bf18      	it	ne
 8000ec2:	ea7f 6c23 	mvnsne.w	ip, r3, asr #24
 8000ec6:	d011      	beq.n	8000eec <__cmpsf2+0x40>
 8000ec8:	b001      	add	sp, #4
 8000eca:	ea52 0c53 	orrs.w	ip, r2, r3, lsr #1
 8000ece:	bf18      	it	ne
 8000ed0:	ea90 0f01 	teqne	r0, r1
 8000ed4:	bf58      	it	pl
 8000ed6:	ebb2 0003 	subspl.w	r0, r2, r3
 8000eda:	bf88      	it	hi
 8000edc:	17c8      	asrhi	r0, r1, #31
 8000ede:	bf38      	it	cc
 8000ee0:	ea6f 70e1 	mvncc.w	r0, r1, asr #31
 8000ee4:	bf18      	it	ne
 8000ee6:	f040 0001 	orrne.w	r0, r0, #1
 8000eea:	4770      	bx	lr
 8000eec:	ea7f 6c22 	mvns.w	ip, r2, asr #24
 8000ef0:	d102      	bne.n	8000ef8 <__cmpsf2+0x4c>
 8000ef2:	ea5f 2c40 	movs.w	ip, r0, lsl #9
 8000ef6:	d105      	bne.n	8000f04 <__cmpsf2+0x58>
 8000ef8:	ea7f 6c23 	mvns.w	ip, r3, asr #24
 8000efc:	d1e4      	bne.n	8000ec8 <__cmpsf2+0x1c>
 8000efe:	ea5f 2c41 	movs.w	ip, r1, lsl #9
 8000f02:	d0e1      	beq.n	8000ec8 <__cmpsf2+0x1c>
 8000f04:	f85d 0b04 	ldr.w	r0, [sp], #4
 8000f08:	4770      	bx	lr
 8000f0a:	bf00      	nop

08000f0c <__aeabi_cfrcmple>:
 8000f0c:	4684      	mov	ip, r0
 8000f0e:	4608      	mov	r0, r1
 8000f10:	4661      	mov	r1, ip
 8000f12:	e7ff      	b.n	8000f14 <__aeabi_cfcmpeq>

08000f14 <__aeabi_cfcmpeq>:
 8000f14:	b50f      	push	{r0, r1, r2, r3, lr}
 8000f16:	f7ff ffc9 	bl	8000eac <__cmpsf2>
 8000f1a:	2800      	cmp	r0, #0
 8000f1c:	bf48      	it	mi
 8000f1e:	f110 0f00 	cmnmi.w	r0, #0
 8000f22:	bd0f      	pop	{r0, r1, r2, r3, pc}

08000f24 <__aeabi_fcmpeq>:
 8000f24:	f84d ed08 	str.w	lr, [sp, #-8]!
 8000f28:	f7ff fff4 	bl	8000f14 <__aeabi_cfcmpeq>
 8000f2c:	bf0c      	ite	eq
 8000f2e:	2001      	moveq	r0, #1
 8000f30:	2000      	movne	r0, #0
 8000f32:	f85d fb08 	ldr.w	pc, [sp], #8
 8000f36:	bf00      	nop

08000f38 <__aeabi_fcmplt>:
 8000f38:	f84d ed08 	str.w	lr, [sp, #-8]!
 8000f3c:	f7ff ffea 	bl	8000f14 <__aeabi_cfcmpeq>
 8000f40:	bf34      	ite	cc
 8000f42:	2001      	movcc	r0, #1
 8000f44:	2000      	movcs	r0, #0
 8000f46:	f85d fb08 	ldr.w	pc, [sp], #8
 8000f4a:	bf00      	nop

08000f4c <__aeabi_fcmple>:
 8000f4c:	f84d ed08 	str.w	lr, [sp, #-8]!
 8000f50:	f7ff ffe0 	bl	8000f14 <__aeabi_cfcmpeq>
 8000f54:	bf94      	ite	ls
 8000f56:	2001      	movls	r0, #1
 8000f58:	2000      	movhi	r0, #0
 8000f5a:	f85d fb08 	ldr.w	pc, [sp], #8
 8000f5e:	bf00      	nop

08000f60 <__aeabi_fcmpge>:
 8000f60:	f84d ed08 	str.w	lr, [sp, #-8]!
 8000f64:	f7ff ffd2 	bl	8000f0c <__aeabi_cfrcmple>
 8000f68:	bf94      	ite	ls
 8000f6a:	2001      	movls	r0, #1
 8000f6c:	2000      	movhi	r0, #0
 8000f6e:	f85d fb08 	ldr.w	pc, [sp], #8
 8000f72:	bf00      	nop

08000f74 <__aeabi_fcmpgt>:
 8000f74:	f84d ed08 	str.w	lr, [sp, #-8]!
 8000f78:	f7ff ffc8 	bl	8000f0c <__aeabi_cfrcmple>
 8000f7c:	bf34      	ite	cc
 8000f7e:	2001      	movcc	r0, #1
 8000f80:	2000      	movcs	r0, #0
 8000f82:	f85d fb08 	ldr.w	pc, [sp], #8
 8000f86:	bf00      	nop

08000f88 <SwerveInit>:
 8000f88:	b480      	push	{r7}
 8000f8a:	b083      	sub	sp, #12
 8000f8c:	af00      	add	r7, sp, #0
 8000f8e:	6078      	str	r0, [r7, #4]
 8000f90:	687b      	ldr	r3, [r7, #4]
 8000f92:	2201      	movs	r2, #1
 8000f94:	701a      	strb	r2, [r3, #0]
 8000f96:	687b      	ldr	r3, [r7, #4]
 8000f98:	f04f 0200 	mov.w	r2, #0
 8000f9c:	60da      	str	r2, [r3, #12]
 8000f9e:	687b      	ldr	r3, [r7, #4]
 8000fa0:	f04f 0200 	mov.w	r2, #0
 8000fa4:	605a      	str	r2, [r3, #4]
 8000fa6:	687b      	ldr	r3, [r7, #4]
 8000fa8:	f04f 0200 	mov.w	r2, #0
 8000fac:	609a      	str	r2, [r3, #8]
 8000fae:	687b      	ldr	r3, [r7, #4]
 8000fb0:	f04f 0200 	mov.w	r2, #0
 8000fb4:	621a      	str	r2, [r3, #32]
 8000fb6:	687b      	ldr	r3, [r7, #4]
 8000fb8:	f04f 0200 	mov.w	r2, #0
 8000fbc:	611a      	str	r2, [r3, #16]
 8000fbe:	687b      	ldr	r3, [r7, #4]
 8000fc0:	f04f 0200 	mov.w	r2, #0
 8000fc4:	615a      	str	r2, [r3, #20]
 8000fc6:	687b      	ldr	r3, [r7, #4]
 8000fc8:	f04f 527e 	mov.w	r2, #1065353216	; 0x3f800000
 8000fcc:	619a      	str	r2, [r3, #24]
 8000fce:	687b      	ldr	r3, [r7, #4]
 8000fd0:	f04f 0200 	mov.w	r2, #0
 8000fd4:	61da      	str	r2, [r3, #28]
 8000fd6:	687b      	ldr	r3, [r7, #4]
 8000fd8:	f04f 527e 	mov.w	r2, #1065353216	; 0x3f800000
 8000fdc:	625a      	str	r2, [r3, #36]	; 0x24
 8000fde:	687b      	ldr	r3, [r7, #4]
 8000fe0:	f04f 0200 	mov.w	r2, #0
 8000fe4:	629a      	str	r2, [r3, #40]	; 0x28
 8000fe6:	bf00      	nop
 8000fe8:	370c      	adds	r7, #12
 8000fea:	46bd      	mov	sp, r7
 8000fec:	bc80      	pop	{r7}
 8000fee:	4770      	bx	lr

08000ff0 <OptimizerV2>:
 8000ff0:	e92d 43f0 	stmdb	sp!, {r4, r5, r6, r7, r8, r9, lr}
 8000ff4:	b083      	sub	sp, #12
 8000ff6:	af00      	add	r7, sp, #0
 8000ff8:	6078      	str	r0, [r7, #4]
 8000ffa:	6039      	str	r1, [r7, #0]
 8000ffc:	687b      	ldr	r3, [r7, #4]
 8000ffe:	689b      	ldr	r3, [r3, #8]
 8001000:	4619      	mov	r1, r3
 8001002:	6838      	ldr	r0, [r7, #0]
 8001004:	f7ff ff8e 	bl	8000f24 <__aeabi_fcmpeq>
 8001008:	4603      	mov	r3, r0
 800100a:	2b00      	cmp	r3, #0
 800100c:	d000      	beq.n	8001010 <OptimizerV2+0x20>
 800100e:	e38e      	b.n	800172e <OptimizerV2+0x73e>
 8001010:	6838      	ldr	r0, [r7, #0]
 8001012:	f7ff fab5 	bl	8000580 <__aeabi_f2d>
 8001016:	a3b2      	add	r3, pc, #712	; (adr r3, 80012e0 <OptimizerV2+0x2f0>)
 8001018:	e9d3 2300 	ldrd	r2, r3, [r3]
 800101c:	f7ff fb08 	bl	8000630 <__aeabi_dmul>
 8001020:	4602      	mov	r2, r0
 8001022:	460b      	mov	r3, r1
 8001024:	4610      	mov	r0, r2
 8001026:	4619      	mov	r1, r3
 8001028:	f04f 0200 	mov.w	r2, #0
 800102c:	4bb0      	ldr	r3, [pc, #704]	; (80012f0 <OptimizerV2+0x300>)
 800102e:	f7ff fc29 	bl	8000884 <__aeabi_ddiv>
 8001032:	4602      	mov	r2, r0
 8001034:	460b      	mov	r3, r1
 8001036:	4610      	mov	r0, r2
 8001038:	4619      	mov	r1, r3
 800103a:	f7ff fdd1 	bl	8000be0 <__aeabi_d2f>
 800103e:	4602      	mov	r2, r0
 8001040:	687b      	ldr	r3, [r7, #4]
 8001042:	60da      	str	r2, [r3, #12]
 8001044:	687b      	ldr	r3, [r7, #4]
 8001046:	6a5b      	ldr	r3, [r3, #36]	; 0x24
 8001048:	4618      	mov	r0, r3
 800104a:	f7ff fa99 	bl	8000580 <__aeabi_f2d>
 800104e:	4604      	mov	r4, r0
 8001050:	460d      	mov	r5, r1
 8001052:	687b      	ldr	r3, [r7, #4]
 8001054:	68db      	ldr	r3, [r3, #12]
 8001056:	4618      	mov	r0, r3
 8001058:	f7ff fa92 	bl	8000580 <__aeabi_f2d>
 800105c:	4602      	mov	r2, r0
 800105e:	460b      	mov	r3, r1
 8001060:	4610      	mov	r0, r2
 8001062:	4619      	mov	r1, r3
 8001064:	f001 fa0c 	bl	8002480 <cos>
 8001068:	4602      	mov	r2, r0
 800106a:	460b      	mov	r3, r1
 800106c:	4620      	mov	r0, r4
 800106e:	4629      	mov	r1, r5
 8001070:	f7ff fade 	bl	8000630 <__aeabi_dmul>
 8001074:	4602      	mov	r2, r0
 8001076:	460b      	mov	r3, r1
 8001078:	4690      	mov	r8, r2
 800107a:	4699      	mov	r9, r3
 800107c:	687b      	ldr	r3, [r7, #4]
 800107e:	6a9b      	ldr	r3, [r3, #40]	; 0x28
 8001080:	4618      	mov	r0, r3
 8001082:	f7ff fa7d 	bl	8000580 <__aeabi_f2d>
 8001086:	4604      	mov	r4, r0
 8001088:	460d      	mov	r5, r1
 800108a:	687b      	ldr	r3, [r7, #4]
 800108c:	68db      	ldr	r3, [r3, #12]
 800108e:	4618      	mov	r0, r3
 8001090:	f7ff fa76 	bl	8000580 <__aeabi_f2d>
 8001094:	4602      	mov	r2, r0
 8001096:	460b      	mov	r3, r1
 8001098:	4610      	mov	r0, r2
 800109a:	4619      	mov	r1, r3
 800109c:	f001 fa3a 	bl	8002514 <sin>
 80010a0:	4602      	mov	r2, r0
 80010a2:	460b      	mov	r3, r1
 80010a4:	4620      	mov	r0, r4
 80010a6:	4629      	mov	r1, r5
 80010a8:	f7ff fac2 	bl	8000630 <__aeabi_dmul>
 80010ac:	4602      	mov	r2, r0
 80010ae:	460b      	mov	r3, r1
 80010b0:	4640      	mov	r0, r8
 80010b2:	4649      	mov	r1, r9
 80010b4:	f7ff f904 	bl	80002c0 <__aeabi_dsub>
 80010b8:	4602      	mov	r2, r0
 80010ba:	460b      	mov	r3, r1
 80010bc:	4610      	mov	r0, r2
 80010be:	4619      	mov	r1, r3
 80010c0:	f7ff fd8e 	bl	8000be0 <__aeabi_d2f>
 80010c4:	4602      	mov	r2, r0
 80010c6:	687b      	ldr	r3, [r7, #4]
 80010c8:	611a      	str	r2, [r3, #16]
 80010ca:	687b      	ldr	r3, [r7, #4]
 80010cc:	6a5b      	ldr	r3, [r3, #36]	; 0x24
 80010ce:	4618      	mov	r0, r3
 80010d0:	f7ff fa56 	bl	8000580 <__aeabi_f2d>
 80010d4:	4604      	mov	r4, r0
 80010d6:	460d      	mov	r5, r1
 80010d8:	687b      	ldr	r3, [r7, #4]
 80010da:	68db      	ldr	r3, [r3, #12]
 80010dc:	4618      	mov	r0, r3
 80010de:	f7ff fa4f 	bl	8000580 <__aeabi_f2d>
 80010e2:	4602      	mov	r2, r0
 80010e4:	460b      	mov	r3, r1
 80010e6:	4610      	mov	r0, r2
 80010e8:	4619      	mov	r1, r3
 80010ea:	f001 fa13 	bl	8002514 <sin>
 80010ee:	4602      	mov	r2, r0
 80010f0:	460b      	mov	r3, r1
 80010f2:	4620      	mov	r0, r4
 80010f4:	4629      	mov	r1, r5
 80010f6:	f7ff fa9b 	bl	8000630 <__aeabi_dmul>
 80010fa:	4602      	mov	r2, r0
 80010fc:	460b      	mov	r3, r1
 80010fe:	4690      	mov	r8, r2
 8001100:	4699      	mov	r9, r3
 8001102:	687b      	ldr	r3, [r7, #4]
 8001104:	6a9b      	ldr	r3, [r3, #40]	; 0x28
 8001106:	4618      	mov	r0, r3
 8001108:	f7ff fa3a 	bl	8000580 <__aeabi_f2d>
 800110c:	4604      	mov	r4, r0
 800110e:	460d      	mov	r5, r1
 8001110:	687b      	ldr	r3, [r7, #4]
 8001112:	68db      	ldr	r3, [r3, #12]
 8001114:	4618      	mov	r0, r3
 8001116:	f7ff fa33 	bl	8000580 <__aeabi_f2d>
 800111a:	4602      	mov	r2, r0
 800111c:	460b      	mov	r3, r1
 800111e:	4610      	mov	r0, r2
 8001120:	4619      	mov	r1, r3
 8001122:	f001 f9ad 	bl	8002480 <cos>
 8001126:	4602      	mov	r2, r0
 8001128:	460b      	mov	r3, r1
 800112a:	4620      	mov	r0, r4
 800112c:	4629      	mov	r1, r5
 800112e:	f7ff fa7f 	bl	8000630 <__aeabi_dmul>
 8001132:	4602      	mov	r2, r0
 8001134:	460b      	mov	r3, r1
 8001136:	4640      	mov	r0, r8
 8001138:	4649      	mov	r1, r9
 800113a:	f7ff f8c3 	bl	80002c4 <__adddf3>
 800113e:	4602      	mov	r2, r0
 8001140:	460b      	mov	r3, r1
 8001142:	4610      	mov	r0, r2
 8001144:	4619      	mov	r1, r3
 8001146:	f7ff fd4b 	bl	8000be0 <__aeabi_d2f>
 800114a:	4602      	mov	r2, r0
 800114c:	687b      	ldr	r3, [r7, #4]
 800114e:	615a      	str	r2, [r3, #20]
 8001150:	687b      	ldr	r3, [r7, #4]
 8001152:	691a      	ldr	r2, [r3, #16]
 8001154:	687b      	ldr	r3, [r7, #4]
 8001156:	699b      	ldr	r3, [r3, #24]
 8001158:	4619      	mov	r1, r3
 800115a:	4610      	mov	r0, r2
 800115c:	f7fe fff8 	bl	8000150 <__aeabi_fmul>
 8001160:	4603      	mov	r3, r0
 8001162:	461c      	mov	r4, r3
 8001164:	687b      	ldr	r3, [r7, #4]
 8001166:	695a      	ldr	r2, [r3, #20]
 8001168:	687b      	ldr	r3, [r7, #4]
 800116a:	69db      	ldr	r3, [r3, #28]
 800116c:	4619      	mov	r1, r3
 800116e:	4610      	mov	r0, r2
 8001170:	f7fe ffee 	bl	8000150 <__aeabi_fmul>
 8001174:	4603      	mov	r3, r0
 8001176:	4619      	mov	r1, r3
 8001178:	4620      	mov	r0, r4
 800117a:	f7ff fd87 	bl	8000c8c <__addsf3>
 800117e:	4603      	mov	r3, r0
 8001180:	4618      	mov	r0, r3
 8001182:	f7ff f9fd 	bl	8000580 <__aeabi_f2d>
 8001186:	4604      	mov	r4, r0
 8001188:	460d      	mov	r5, r1
 800118a:	687b      	ldr	r3, [r7, #4]
 800118c:	691a      	ldr	r2, [r3, #16]
 800118e:	687b      	ldr	r3, [r7, #4]
 8001190:	691b      	ldr	r3, [r3, #16]
 8001192:	4619      	mov	r1, r3
 8001194:	4610      	mov	r0, r2
 8001196:	f7fe ffdb 	bl	8000150 <__aeabi_fmul>
 800119a:	4603      	mov	r3, r0
 800119c:	461e      	mov	r6, r3
 800119e:	687b      	ldr	r3, [r7, #4]
 80011a0:	695a      	ldr	r2, [r3, #20]
 80011a2:	687b      	ldr	r3, [r7, #4]
 80011a4:	695b      	ldr	r3, [r3, #20]
 80011a6:	4619      	mov	r1, r3
 80011a8:	4610      	mov	r0, r2
 80011aa:	f7fe ffd1 	bl	8000150 <__aeabi_fmul>
 80011ae:	4603      	mov	r3, r0
 80011b0:	4619      	mov	r1, r3
 80011b2:	4630      	mov	r0, r6
 80011b4:	f7ff fd6a 	bl	8000c8c <__addsf3>
 80011b8:	4603      	mov	r3, r0
 80011ba:	4618      	mov	r0, r3
 80011bc:	f7ff f9e0 	bl	8000580 <__aeabi_f2d>
 80011c0:	4602      	mov	r2, r0
 80011c2:	460b      	mov	r3, r1
 80011c4:	4610      	mov	r0, r2
 80011c6:	4619      	mov	r1, r3
 80011c8:	f001 f936 	bl	8002438 <sqrt>
 80011cc:	4680      	mov	r8, r0
 80011ce:	4689      	mov	r9, r1
 80011d0:	687b      	ldr	r3, [r7, #4]
 80011d2:	699a      	ldr	r2, [r3, #24]
 80011d4:	687b      	ldr	r3, [r7, #4]
 80011d6:	699b      	ldr	r3, [r3, #24]
 80011d8:	4619      	mov	r1, r3
 80011da:	4610      	mov	r0, r2
 80011dc:	f7fe ffb8 	bl	8000150 <__aeabi_fmul>
 80011e0:	4603      	mov	r3, r0
 80011e2:	461e      	mov	r6, r3
 80011e4:	687b      	ldr	r3, [r7, #4]
 80011e6:	69da      	ldr	r2, [r3, #28]
 80011e8:	687b      	ldr	r3, [r7, #4]
 80011ea:	69db      	ldr	r3, [r3, #28]
 80011ec:	4619      	mov	r1, r3
 80011ee:	4610      	mov	r0, r2
 80011f0:	f7fe ffae 	bl	8000150 <__aeabi_fmul>
 80011f4:	4603      	mov	r3, r0
 80011f6:	4619      	mov	r1, r3
 80011f8:	4630      	mov	r0, r6
 80011fa:	f7ff fd47 	bl	8000c8c <__addsf3>
 80011fe:	4603      	mov	r3, r0
 8001200:	4618      	mov	r0, r3
 8001202:	f7ff f9bd 	bl	8000580 <__aeabi_f2d>
 8001206:	4602      	mov	r2, r0
 8001208:	460b      	mov	r3, r1
 800120a:	4610      	mov	r0, r2
 800120c:	4619      	mov	r1, r3
 800120e:	f001 f913 	bl	8002438 <sqrt>
 8001212:	4602      	mov	r2, r0
 8001214:	460b      	mov	r3, r1
 8001216:	4640      	mov	r0, r8
 8001218:	4649      	mov	r1, r9
 800121a:	f7ff fa09 	bl	8000630 <__aeabi_dmul>
 800121e:	4602      	mov	r2, r0
 8001220:	460b      	mov	r3, r1
 8001222:	4620      	mov	r0, r4
 8001224:	4629      	mov	r1, r5
 8001226:	f7ff fb2d 	bl	8000884 <__aeabi_ddiv>
 800122a:	4602      	mov	r2, r0
 800122c:	460b      	mov	r3, r1
 800122e:	4610      	mov	r0, r2
 8001230:	4619      	mov	r1, r3
 8001232:	f001 f8d9 	bl	80023e8 <acos>
 8001236:	a32c      	add	r3, pc, #176	; (adr r3, 80012e8 <OptimizerV2+0x2f8>)
 8001238:	e9d3 2300 	ldrd	r2, r3, [r3]
 800123c:	f7ff f9f8 	bl	8000630 <__aeabi_dmul>
 8001240:	4602      	mov	r2, r0
 8001242:	460b      	mov	r3, r1
 8001244:	4610      	mov	r0, r2
 8001246:	4619      	mov	r1, r3
 8001248:	f7ff fcca 	bl	8000be0 <__aeabi_d2f>
 800124c:	4602      	mov	r2, r0
 800124e:	687b      	ldr	r3, [r7, #4]
 8001250:	621a      	str	r2, [r3, #32]
 8001252:	687b      	ldr	r3, [r7, #4]
 8001254:	691a      	ldr	r2, [r3, #16]
 8001256:	687b      	ldr	r3, [r7, #4]
 8001258:	619a      	str	r2, [r3, #24]
 800125a:	687b      	ldr	r3, [r7, #4]
 800125c:	695a      	ldr	r2, [r3, #20]
 800125e:	687b      	ldr	r3, [r7, #4]
 8001260:	61da      	str	r2, [r3, #28]
 8001262:	687b      	ldr	r3, [r7, #4]
 8001264:	6a1b      	ldr	r3, [r3, #32]
 8001266:	f04f 0100 	mov.w	r1, #0
 800126a:	4618      	mov	r0, r3
 800126c:	f7ff fe5a 	bl	8000f24 <__aeabi_fcmpeq>
 8001270:	4603      	mov	r3, r0
 8001272:	2b00      	cmp	r3, #0
 8001274:	d040      	beq.n	80012f8 <OptimizerV2+0x308>
 8001276:	687b      	ldr	r3, [r7, #4]
 8001278:	f993 2000 	ldrsb.w	r2, [r3]
 800127c:	687b      	ldr	r3, [r7, #4]
 800127e:	701a      	strb	r2, [r3, #0]
 8001280:	687b      	ldr	r3, [r7, #4]
 8001282:	685b      	ldr	r3, [r3, #4]
 8001284:	491b      	ldr	r1, [pc, #108]	; (80012f4 <OptimizerV2+0x304>)
 8001286:	4618      	mov	r0, r3
 8001288:	f7ff fd00 	bl	8000c8c <__addsf3>
 800128c:	4603      	mov	r3, r0
 800128e:	4619      	mov	r1, r3
 8001290:	6838      	ldr	r0, [r7, #0]
 8001292:	f7ff fe47 	bl	8000f24 <__aeabi_fcmpeq>
 8001296:	4603      	mov	r3, r0
 8001298:	2b00      	cmp	r3, #0
 800129a:	d008      	beq.n	80012ae <OptimizerV2+0x2be>
 800129c:	4915      	ldr	r1, [pc, #84]	; (80012f4 <OptimizerV2+0x304>)
 800129e:	6838      	ldr	r0, [r7, #0]
 80012a0:	f7ff fcf2 	bl	8000c88 <__aeabi_fsub>
 80012a4:	4603      	mov	r3, r0
 80012a6:	461a      	mov	r2, r3
 80012a8:	687b      	ldr	r3, [r7, #4]
 80012aa:	605a      	str	r2, [r3, #4]
 80012ac:	e23c      	b.n	8001728 <OptimizerV2+0x738>
 80012ae:	687b      	ldr	r3, [r7, #4]
 80012b0:	685b      	ldr	r3, [r3, #4]
 80012b2:	4910      	ldr	r1, [pc, #64]	; (80012f4 <OptimizerV2+0x304>)
 80012b4:	4618      	mov	r0, r3
 80012b6:	f7ff fce7 	bl	8000c88 <__aeabi_fsub>
 80012ba:	4603      	mov	r3, r0
 80012bc:	4619      	mov	r1, r3
 80012be:	6838      	ldr	r0, [r7, #0]
 80012c0:	f7ff fe30 	bl	8000f24 <__aeabi_fcmpeq>
 80012c4:	4603      	mov	r3, r0
 80012c6:	2b00      	cmp	r3, #0
 80012c8:	f000 822e 	beq.w	8001728 <OptimizerV2+0x738>
 80012cc:	4909      	ldr	r1, [pc, #36]	; (80012f4 <OptimizerV2+0x304>)
 80012ce:	6838      	ldr	r0, [r7, #0]
 80012d0:	f7ff fcdc 	bl	8000c8c <__addsf3>
 80012d4:	4603      	mov	r3, r0
 80012d6:	461a      	mov	r2, r3
 80012d8:	687b      	ldr	r3, [r7, #4]
 80012da:	605a      	str	r2, [r3, #4]
 80012dc:	e224      	b.n	8001728 <OptimizerV2+0x738>
 80012de:	bf00      	nop
 80012e0:	54442d18 	.word	0x54442d18
 80012e4:	400921fb 	.word	0x400921fb
 80012e8:	1a63c1f8 	.word	0x1a63c1f8
 80012ec:	404ca5dc 	.word	0x404ca5dc
 80012f0:	40668000 	.word	0x40668000
 80012f4:	43b40000 	.word	0x43b40000
 80012f8:	687b      	ldr	r3, [r7, #4]
 80012fa:	6a1b      	ldr	r3, [r3, #32]
 80012fc:	498d      	ldr	r1, [pc, #564]	; (8001534 <OptimizerV2+0x544>)
 80012fe:	4618      	mov	r0, r3
 8001300:	f7ff fe10 	bl	8000f24 <__aeabi_fcmpeq>
 8001304:	4603      	mov	r3, r0
 8001306:	2b00      	cmp	r3, #0
 8001308:	d037      	beq.n	800137a <OptimizerV2+0x38a>
 800130a:	687b      	ldr	r3, [r7, #4]
 800130c:	f993 3000 	ldrsb.w	r3, [r3]
 8001310:	b2db      	uxtb	r3, r3
 8001312:	425b      	negs	r3, r3
 8001314:	b2db      	uxtb	r3, r3
 8001316:	b25a      	sxtb	r2, r3
 8001318:	687b      	ldr	r3, [r7, #4]
 800131a:	701a      	strb	r2, [r3, #0]
 800131c:	687b      	ldr	r3, [r7, #4]
 800131e:	685b      	ldr	r3, [r3, #4]
 8001320:	4984      	ldr	r1, [pc, #528]	; (8001534 <OptimizerV2+0x544>)
 8001322:	4618      	mov	r0, r3
 8001324:	f7ff fcb2 	bl	8000c8c <__addsf3>
 8001328:	4603      	mov	r3, r0
 800132a:	4619      	mov	r1, r3
 800132c:	6838      	ldr	r0, [r7, #0]
 800132e:	f7ff fdf9 	bl	8000f24 <__aeabi_fcmpeq>
 8001332:	4603      	mov	r3, r0
 8001334:	2b00      	cmp	r3, #0
 8001336:	d008      	beq.n	800134a <OptimizerV2+0x35a>
 8001338:	497e      	ldr	r1, [pc, #504]	; (8001534 <OptimizerV2+0x544>)
 800133a:	6838      	ldr	r0, [r7, #0]
 800133c:	f7ff fca4 	bl	8000c88 <__aeabi_fsub>
 8001340:	4603      	mov	r3, r0
 8001342:	461a      	mov	r2, r3
 8001344:	687b      	ldr	r3, [r7, #4]
 8001346:	605a      	str	r2, [r3, #4]
 8001348:	e1ee      	b.n	8001728 <OptimizerV2+0x738>
 800134a:	687b      	ldr	r3, [r7, #4]
 800134c:	685b      	ldr	r3, [r3, #4]
 800134e:	4979      	ldr	r1, [pc, #484]	; (8001534 <OptimizerV2+0x544>)
 8001350:	4618      	mov	r0, r3
 8001352:	f7ff fc99 	bl	8000c88 <__aeabi_fsub>
 8001356:	4603      	mov	r3, r0
 8001358:	4619      	mov	r1, r3
 800135a:	6838      	ldr	r0, [r7, #0]
 800135c:	f7ff fde2 	bl	8000f24 <__aeabi_fcmpeq>
 8001360:	4603      	mov	r3, r0
 8001362:	2b00      	cmp	r3, #0
 8001364:	f000 81e0 	beq.w	8001728 <OptimizerV2+0x738>
 8001368:	4972      	ldr	r1, [pc, #456]	; (8001534 <OptimizerV2+0x544>)
 800136a:	6838      	ldr	r0, [r7, #0]
 800136c:	f7ff fc8e 	bl	8000c8c <__addsf3>
 8001370:	4603      	mov	r3, r0
 8001372:	461a      	mov	r2, r3
 8001374:	687b      	ldr	r3, [r7, #4]
 8001376:	605a      	str	r2, [r3, #4]
 8001378:	e1d6      	b.n	8001728 <OptimizerV2+0x738>
 800137a:	687b      	ldr	r3, [r7, #4]
 800137c:	6a1b      	ldr	r3, [r3, #32]
 800137e:	496e      	ldr	r1, [pc, #440]	; (8001538 <OptimizerV2+0x548>)
 8001380:	4618      	mov	r0, r3
 8001382:	f7ff fde3 	bl	8000f4c <__aeabi_fcmple>
 8001386:	4603      	mov	r3, r0
 8001388:	2b00      	cmp	r3, #0
 800138a:	f000 80e3 	beq.w	8001554 <OptimizerV2+0x564>
 800138e:	687b      	ldr	r3, [r7, #4]
 8001390:	685b      	ldr	r3, [r3, #4]
 8001392:	f04f 0100 	mov.w	r1, #0
 8001396:	4618      	mov	r0, r3
 8001398:	f7ff fde2 	bl	8000f60 <__aeabi_fcmpge>
 800139c:	4603      	mov	r3, r0
 800139e:	2b00      	cmp	r3, #0
 80013a0:	d05e      	beq.n	8001460 <OptimizerV2+0x470>
 80013a2:	687b      	ldr	r3, [r7, #4]
 80013a4:	685b      	ldr	r3, [r3, #4]
 80013a6:	4964      	ldr	r1, [pc, #400]	; (8001538 <OptimizerV2+0x548>)
 80013a8:	4618      	mov	r0, r3
 80013aa:	f7ff fdcf 	bl	8000f4c <__aeabi_fcmple>
 80013ae:	4603      	mov	r3, r0
 80013b0:	2b00      	cmp	r3, #0
 80013b2:	d055      	beq.n	8001460 <OptimizerV2+0x470>
 80013b4:	4961      	ldr	r1, [pc, #388]	; (800153c <OptimizerV2+0x54c>)
 80013b6:	6838      	ldr	r0, [r7, #0]
 80013b8:	f7ff fdd2 	bl	8000f60 <__aeabi_fcmpge>
 80013bc:	4603      	mov	r3, r0
 80013be:	2b00      	cmp	r3, #0
 80013c0:	d00f      	beq.n	80013e2 <OptimizerV2+0x3f2>
 80013c2:	495d      	ldr	r1, [pc, #372]	; (8001538 <OptimizerV2+0x548>)
 80013c4:	6838      	ldr	r0, [r7, #0]
 80013c6:	f7ff fdc1 	bl	8000f4c <__aeabi_fcmple>
 80013ca:	4603      	mov	r3, r0
 80013cc:	2b00      	cmp	r3, #0
 80013ce:	d008      	beq.n	80013e2 <OptimizerV2+0x3f2>
 80013d0:	687b      	ldr	r3, [r7, #4]
 80013d2:	f993 2000 	ldrsb.w	r2, [r3]
 80013d6:	687b      	ldr	r3, [r7, #4]
 80013d8:	701a      	strb	r2, [r3, #0]
 80013da:	687b      	ldr	r3, [r7, #4]
 80013dc:	683a      	ldr	r2, [r7, #0]
 80013de:	605a      	str	r2, [r3, #4]
 80013e0:	e03d      	b.n	800145e <OptimizerV2+0x46e>
 80013e2:	4955      	ldr	r1, [pc, #340]	; (8001538 <OptimizerV2+0x548>)
 80013e4:	6838      	ldr	r0, [r7, #0]
 80013e6:	f7ff fdc5 	bl	8000f74 <__aeabi_fcmpgt>
 80013ea:	4603      	mov	r3, r0
 80013ec:	2b00      	cmp	r3, #0
 80013ee:	d018      	beq.n	8001422 <OptimizerV2+0x432>
 80013f0:	4950      	ldr	r1, [pc, #320]	; (8001534 <OptimizerV2+0x544>)
 80013f2:	6838      	ldr	r0, [r7, #0]
 80013f4:	f7ff fdaa 	bl	8000f4c <__aeabi_fcmple>
 80013f8:	4603      	mov	r3, r0
 80013fa:	2b00      	cmp	r3, #0
 80013fc:	d011      	beq.n	8001422 <OptimizerV2+0x432>
 80013fe:	687b      	ldr	r3, [r7, #4]
 8001400:	f993 3000 	ldrsb.w	r3, [r3]
 8001404:	b2db      	uxtb	r3, r3
 8001406:	425b      	negs	r3, r3
 8001408:	b2db      	uxtb	r3, r3
 800140a:	b25a      	sxtb	r2, r3
 800140c:	687b      	ldr	r3, [r7, #4]
 800140e:	701a      	strb	r2, [r3, #0]
 8001410:	4948      	ldr	r1, [pc, #288]	; (8001534 <OptimizerV2+0x544>)
 8001412:	6838      	ldr	r0, [r7, #0]
 8001414:	f7ff fc38 	bl	8000c88 <__aeabi_fsub>
 8001418:	4603      	mov	r3, r0
 800141a:	461a      	mov	r2, r3
 800141c:	687b      	ldr	r3, [r7, #4]
 800141e:	605a      	str	r2, [r3, #4]
 8001420:	e01d      	b.n	800145e <OptimizerV2+0x46e>
 8001422:	4947      	ldr	r1, [pc, #284]	; (8001540 <OptimizerV2+0x550>)
 8001424:	6838      	ldr	r0, [r7, #0]
 8001426:	f7ff fd9b 	bl	8000f60 <__aeabi_fcmpge>
 800142a:	4603      	mov	r3, r0
 800142c:	2b00      	cmp	r3, #0
 800142e:	d100      	bne.n	8001432 <OptimizerV2+0x442>
 8001430:	e17a      	b.n	8001728 <OptimizerV2+0x738>
 8001432:	4944      	ldr	r1, [pc, #272]	; (8001544 <OptimizerV2+0x554>)
 8001434:	6838      	ldr	r0, [r7, #0]
 8001436:	f7ff fd89 	bl	8000f4c <__aeabi_fcmple>
 800143a:	4603      	mov	r3, r0
 800143c:	2b00      	cmp	r3, #0
 800143e:	d100      	bne.n	8001442 <OptimizerV2+0x452>
 8001440:	e172      	b.n	8001728 <OptimizerV2+0x738>
 8001442:	687b      	ldr	r3, [r7, #4]
 8001444:	f993 2000 	ldrsb.w	r2, [r3]
 8001448:	687b      	ldr	r3, [r7, #4]
 800144a:	701a      	strb	r2, [r3, #0]
 800144c:	493d      	ldr	r1, [pc, #244]	; (8001544 <OptimizerV2+0x554>)
 800144e:	6838      	ldr	r0, [r7, #0]
 8001450:	f7ff fc1a 	bl	8000c88 <__aeabi_fsub>
 8001454:	4603      	mov	r3, r0
 8001456:	461a      	mov	r2, r3
 8001458:	687b      	ldr	r3, [r7, #4]
 800145a:	605a      	str	r2, [r3, #4]
 800145c:	e164      	b.n	8001728 <OptimizerV2+0x738>
 800145e:	e163      	b.n	8001728 <OptimizerV2+0x738>
 8001460:	687b      	ldr	r3, [r7, #4]
 8001462:	685b      	ldr	r3, [r3, #4]
 8001464:	4935      	ldr	r1, [pc, #212]	; (800153c <OptimizerV2+0x54c>)
 8001466:	4618      	mov	r0, r3
 8001468:	f7ff fd7a 	bl	8000f60 <__aeabi_fcmpge>
 800146c:	4603      	mov	r3, r0
 800146e:	2b00      	cmp	r3, #0
 8001470:	f000 815a 	beq.w	8001728 <OptimizerV2+0x738>
 8001474:	687b      	ldr	r3, [r7, #4]
 8001476:	685b      	ldr	r3, [r3, #4]
 8001478:	f04f 0100 	mov.w	r1, #0
 800147c:	4618      	mov	r0, r3
 800147e:	f7ff fd65 	bl	8000f4c <__aeabi_fcmple>
 8001482:	4603      	mov	r3, r0
 8001484:	2b00      	cmp	r3, #0
 8001486:	f000 814f 	beq.w	8001728 <OptimizerV2+0x738>
 800148a:	492c      	ldr	r1, [pc, #176]	; (800153c <OptimizerV2+0x54c>)
 800148c:	6838      	ldr	r0, [r7, #0]
 800148e:	f7ff fd67 	bl	8000f60 <__aeabi_fcmpge>
 8001492:	4603      	mov	r3, r0
 8001494:	2b00      	cmp	r3, #0
 8001496:	d00f      	beq.n	80014b8 <OptimizerV2+0x4c8>
 8001498:	4927      	ldr	r1, [pc, #156]	; (8001538 <OptimizerV2+0x548>)
 800149a:	6838      	ldr	r0, [r7, #0]
 800149c:	f7ff fd56 	bl	8000f4c <__aeabi_fcmple>
 80014a0:	4603      	mov	r3, r0
 80014a2:	2b00      	cmp	r3, #0
 80014a4:	d008      	beq.n	80014b8 <OptimizerV2+0x4c8>
 80014a6:	687b      	ldr	r3, [r7, #4]
 80014a8:	f993 2000 	ldrsb.w	r2, [r3]
 80014ac:	687b      	ldr	r3, [r7, #4]
 80014ae:	701a      	strb	r2, [r3, #0]
 80014b0:	687b      	ldr	r3, [r7, #4]
 80014b2:	683a      	ldr	r2, [r7, #0]
 80014b4:	605a      	str	r2, [r3, #4]
 80014b6:	e137      	b.n	8001728 <OptimizerV2+0x738>
 80014b8:	4923      	ldr	r1, [pc, #140]	; (8001548 <OptimizerV2+0x558>)
 80014ba:	6838      	ldr	r0, [r7, #0]
 80014bc:	f7ff fd50 	bl	8000f60 <__aeabi_fcmpge>
 80014c0:	4603      	mov	r3, r0
 80014c2:	2b00      	cmp	r3, #0
 80014c4:	d018      	beq.n	80014f8 <OptimizerV2+0x508>
 80014c6:	491d      	ldr	r1, [pc, #116]	; (800153c <OptimizerV2+0x54c>)
 80014c8:	6838      	ldr	r0, [r7, #0]
 80014ca:	f7ff fd35 	bl	8000f38 <__aeabi_fcmplt>
 80014ce:	4603      	mov	r3, r0
 80014d0:	2b00      	cmp	r3, #0
 80014d2:	d011      	beq.n	80014f8 <OptimizerV2+0x508>
 80014d4:	687b      	ldr	r3, [r7, #4]
 80014d6:	f993 3000 	ldrsb.w	r3, [r3]
 80014da:	b2db      	uxtb	r3, r3
 80014dc:	425b      	negs	r3, r3
 80014de:	b2db      	uxtb	r3, r3
 80014e0:	b25a      	sxtb	r2, r3
 80014e2:	687b      	ldr	r3, [r7, #4]
 80014e4:	701a      	strb	r2, [r3, #0]
 80014e6:	4913      	ldr	r1, [pc, #76]	; (8001534 <OptimizerV2+0x544>)
 80014e8:	6838      	ldr	r0, [r7, #0]
 80014ea:	f7ff fbcf 	bl	8000c8c <__addsf3>
 80014ee:	4603      	mov	r3, r0
 80014f0:	461a      	mov	r2, r3
 80014f2:	687b      	ldr	r3, [r7, #4]
 80014f4:	605a      	str	r2, [r3, #4]
 80014f6:	e117      	b.n	8001728 <OptimizerV2+0x738>
 80014f8:	4914      	ldr	r1, [pc, #80]	; (800154c <OptimizerV2+0x55c>)
 80014fa:	6838      	ldr	r0, [r7, #0]
 80014fc:	f7ff fd30 	bl	8000f60 <__aeabi_fcmpge>
 8001500:	4603      	mov	r3, r0
 8001502:	2b00      	cmp	r3, #0
 8001504:	f000 8110 	beq.w	8001728 <OptimizerV2+0x738>
 8001508:	4911      	ldr	r1, [pc, #68]	; (8001550 <OptimizerV2+0x560>)
 800150a:	6838      	ldr	r0, [r7, #0]
 800150c:	f7ff fd1e 	bl	8000f4c <__aeabi_fcmple>
 8001510:	4603      	mov	r3, r0
 8001512:	2b00      	cmp	r3, #0
 8001514:	f000 8108 	beq.w	8001728 <OptimizerV2+0x738>
 8001518:	687b      	ldr	r3, [r7, #4]
 800151a:	f993 2000 	ldrsb.w	r2, [r3]
 800151e:	687b      	ldr	r3, [r7, #4]
 8001520:	701a      	strb	r2, [r3, #0]
 8001522:	4908      	ldr	r1, [pc, #32]	; (8001544 <OptimizerV2+0x554>)
 8001524:	6838      	ldr	r0, [r7, #0]
 8001526:	f7ff fbb1 	bl	8000c8c <__addsf3>
 800152a:	4603      	mov	r3, r0
 800152c:	461a      	mov	r2, r3
 800152e:	687b      	ldr	r3, [r7, #4]
 8001530:	605a      	str	r2, [r3, #4]
 8001532:	e0f9      	b.n	8001728 <OptimizerV2+0x738>
 8001534:	43340000 	.word	0x43340000
 8001538:	42b40000 	.word	0x42b40000
 800153c:	c2b40000 	.word	0xc2b40000
 8001540:	43870000 	.word	0x43870000
 8001544:	43b40000 	.word	0x43b40000
 8001548:	c3340000 	.word	0xc3340000
 800154c:	c3b40000 	.word	0xc3b40000
 8001550:	c3870000 	.word	0xc3870000
 8001554:	687b      	ldr	r3, [r7, #4]
 8001556:	6a1b      	ldr	r3, [r3, #32]
 8001558:	4977      	ldr	r1, [pc, #476]	; (8001738 <OptimizerV2+0x748>)
 800155a:	4618      	mov	r0, r3
 800155c:	f7ff fd0a 	bl	8000f74 <__aeabi_fcmpgt>
 8001560:	4603      	mov	r3, r0
 8001562:	2b00      	cmp	r3, #0
 8001564:	f000 80e0 	beq.w	8001728 <OptimizerV2+0x738>
 8001568:	687b      	ldr	r3, [r7, #4]
 800156a:	6a1b      	ldr	r3, [r3, #32]
 800156c:	4973      	ldr	r1, [pc, #460]	; (800173c <OptimizerV2+0x74c>)
 800156e:	4618      	mov	r0, r3
 8001570:	f7ff fce2 	bl	8000f38 <__aeabi_fcmplt>
 8001574:	4603      	mov	r3, r0
 8001576:	2b00      	cmp	r3, #0
 8001578:	f000 80d6 	beq.w	8001728 <OptimizerV2+0x738>
 800157c:	687b      	ldr	r3, [r7, #4]
 800157e:	685b      	ldr	r3, [r3, #4]
 8001580:	f04f 0100 	mov.w	r1, #0
 8001584:	4618      	mov	r0, r3
 8001586:	f7ff fceb 	bl	8000f60 <__aeabi_fcmpge>
 800158a:	4603      	mov	r3, r0
 800158c:	2b00      	cmp	r3, #0
 800158e:	d062      	beq.n	8001656 <OptimizerV2+0x666>
 8001590:	687b      	ldr	r3, [r7, #4]
 8001592:	685b      	ldr	r3, [r3, #4]
 8001594:	4968      	ldr	r1, [pc, #416]	; (8001738 <OptimizerV2+0x748>)
 8001596:	4618      	mov	r0, r3
 8001598:	f7ff fcd8 	bl	8000f4c <__aeabi_fcmple>
 800159c:	4603      	mov	r3, r0
 800159e:	2b00      	cmp	r3, #0
 80015a0:	d059      	beq.n	8001656 <OptimizerV2+0x666>
 80015a2:	4965      	ldr	r1, [pc, #404]	; (8001738 <OptimizerV2+0x748>)
 80015a4:	6838      	ldr	r0, [r7, #0]
 80015a6:	f7ff fce5 	bl	8000f74 <__aeabi_fcmpgt>
 80015aa:	4603      	mov	r3, r0
 80015ac:	2b00      	cmp	r3, #0
 80015ae:	d018      	beq.n	80015e2 <OptimizerV2+0x5f2>
 80015b0:	4963      	ldr	r1, [pc, #396]	; (8001740 <OptimizerV2+0x750>)
 80015b2:	6838      	ldr	r0, [r7, #0]
 80015b4:	f7ff fcca 	bl	8000f4c <__aeabi_fcmple>
 80015b8:	4603      	mov	r3, r0
 80015ba:	2b00      	cmp	r3, #0
 80015bc:	d011      	beq.n	80015e2 <OptimizerV2+0x5f2>
 80015be:	687b      	ldr	r3, [r7, #4]
 80015c0:	f993 3000 	ldrsb.w	r3, [r3]
 80015c4:	b2db      	uxtb	r3, r3
 80015c6:	425b      	negs	r3, r3
 80015c8:	b2db      	uxtb	r3, r3
 80015ca:	b25a      	sxtb	r2, r3
 80015cc:	687b      	ldr	r3, [r7, #4]
 80015ce:	701a      	strb	r2, [r3, #0]
 80015d0:	495a      	ldr	r1, [pc, #360]	; (800173c <OptimizerV2+0x74c>)
 80015d2:	6838      	ldr	r0, [r7, #0]
 80015d4:	f7ff fb58 	bl	8000c88 <__aeabi_fsub>
 80015d8:	4603      	mov	r3, r0
 80015da:	461a      	mov	r2, r3
 80015dc:	687b      	ldr	r3, [r7, #4]
 80015de:	605a      	str	r2, [r3, #4]
 80015e0:	e038      	b.n	8001654 <OptimizerV2+0x664>
 80015e2:	4957      	ldr	r1, [pc, #348]	; (8001740 <OptimizerV2+0x750>)
 80015e4:	6838      	ldr	r0, [r7, #0]
 80015e6:	f7ff fcbb 	bl	8000f60 <__aeabi_fcmpge>
 80015ea:	4603      	mov	r3, r0
 80015ec:	2b00      	cmp	r3, #0
 80015ee:	d014      	beq.n	800161a <OptimizerV2+0x62a>
 80015f0:	4954      	ldr	r1, [pc, #336]	; (8001744 <OptimizerV2+0x754>)
 80015f2:	6838      	ldr	r0, [r7, #0]
 80015f4:	f7ff fcaa 	bl	8000f4c <__aeabi_fcmple>
 80015f8:	4603      	mov	r3, r0
 80015fa:	2b00      	cmp	r3, #0
 80015fc:	d00d      	beq.n	800161a <OptimizerV2+0x62a>
 80015fe:	687b      	ldr	r3, [r7, #4]
 8001600:	f993 2000 	ldrsb.w	r2, [r3]
 8001604:	687b      	ldr	r3, [r7, #4]
 8001606:	701a      	strb	r2, [r3, #0]
 8001608:	494e      	ldr	r1, [pc, #312]	; (8001744 <OptimizerV2+0x754>)
 800160a:	6838      	ldr	r0, [r7, #0]
 800160c:	f7ff fb3c 	bl	8000c88 <__aeabi_fsub>
 8001610:	4603      	mov	r3, r0
 8001612:	461a      	mov	r2, r3
 8001614:	687b      	ldr	r3, [r7, #4]
 8001616:	605a      	str	r2, [r3, #4]
 8001618:	e01c      	b.n	8001654 <OptimizerV2+0x664>
 800161a:	494b      	ldr	r1, [pc, #300]	; (8001748 <OptimizerV2+0x758>)
 800161c:	6838      	ldr	r0, [r7, #0]
 800161e:	f7ff fc9f 	bl	8000f60 <__aeabi_fcmpge>
 8001622:	4603      	mov	r3, r0
 8001624:	2b00      	cmp	r3, #0
 8001626:	d100      	bne.n	800162a <OptimizerV2+0x63a>
 8001628:	e07e      	b.n	8001728 <OptimizerV2+0x738>
 800162a:	4943      	ldr	r1, [pc, #268]	; (8001738 <OptimizerV2+0x748>)
 800162c:	6838      	ldr	r0, [r7, #0]
 800162e:	f7ff fc8d 	bl	8000f4c <__aeabi_fcmple>
 8001632:	4603      	mov	r3, r0
 8001634:	2b00      	cmp	r3, #0
 8001636:	d100      	bne.n	800163a <OptimizerV2+0x64a>
 8001638:	e076      	b.n	8001728 <OptimizerV2+0x738>
 800163a:	687b      	ldr	r3, [r7, #4]
 800163c:	f993 3000 	ldrsb.w	r3, [r3]
 8001640:	b2db      	uxtb	r3, r3
 8001642:	425b      	negs	r3, r3
 8001644:	b2db      	uxtb	r3, r3
 8001646:	b25a      	sxtb	r2, r3
 8001648:	687b      	ldr	r3, [r7, #4]
 800164a:	701a      	strb	r2, [r3, #0]
 800164c:	687b      	ldr	r3, [r7, #4]
 800164e:	683a      	ldr	r2, [r7, #0]
 8001650:	605a      	str	r2, [r3, #4]
 8001652:	e069      	b.n	8001728 <OptimizerV2+0x738>
 8001654:	e068      	b.n	8001728 <OptimizerV2+0x738>
 8001656:	687b      	ldr	r3, [r7, #4]
 8001658:	685b      	ldr	r3, [r3, #4]
 800165a:	493b      	ldr	r1, [pc, #236]	; (8001748 <OptimizerV2+0x758>)
 800165c:	4618      	mov	r0, r3
 800165e:	f7ff fc7f 	bl	8000f60 <__aeabi_fcmpge>
 8001662:	4603      	mov	r3, r0
 8001664:	2b00      	cmp	r3, #0
 8001666:	d05f      	beq.n	8001728 <OptimizerV2+0x738>
 8001668:	687b      	ldr	r3, [r7, #4]
 800166a:	685b      	ldr	r3, [r3, #4]
 800166c:	f04f 0100 	mov.w	r1, #0
 8001670:	4618      	mov	r0, r3
 8001672:	f7ff fc6b 	bl	8000f4c <__aeabi_fcmple>
 8001676:	4603      	mov	r3, r0
 8001678:	2b00      	cmp	r3, #0
 800167a:	d055      	beq.n	8001728 <OptimizerV2+0x738>
 800167c:	4933      	ldr	r1, [pc, #204]	; (800174c <OptimizerV2+0x75c>)
 800167e:	6838      	ldr	r0, [r7, #0]
 8001680:	f7ff fc6e 	bl	8000f60 <__aeabi_fcmpge>
 8001684:	4603      	mov	r3, r0
 8001686:	2b00      	cmp	r3, #0
 8001688:	d018      	beq.n	80016bc <OptimizerV2+0x6cc>
 800168a:	492f      	ldr	r1, [pc, #188]	; (8001748 <OptimizerV2+0x758>)
 800168c:	6838      	ldr	r0, [r7, #0]
 800168e:	f7ff fc53 	bl	8000f38 <__aeabi_fcmplt>
 8001692:	4603      	mov	r3, r0
 8001694:	2b00      	cmp	r3, #0
 8001696:	d011      	beq.n	80016bc <OptimizerV2+0x6cc>
 8001698:	687b      	ldr	r3, [r7, #4]
 800169a:	f993 3000 	ldrsb.w	r3, [r3]
 800169e:	b2db      	uxtb	r3, r3
 80016a0:	425b      	negs	r3, r3
 80016a2:	b2db      	uxtb	r3, r3
 80016a4:	b25a      	sxtb	r2, r3
 80016a6:	687b      	ldr	r3, [r7, #4]
 80016a8:	701a      	strb	r2, [r3, #0]
 80016aa:	4924      	ldr	r1, [pc, #144]	; (800173c <OptimizerV2+0x74c>)
 80016ac:	6838      	ldr	r0, [r7, #0]
 80016ae:	f7ff faed 	bl	8000c8c <__addsf3>
 80016b2:	4603      	mov	r3, r0
 80016b4:	461a      	mov	r2, r3
 80016b6:	687b      	ldr	r3, [r7, #4]
 80016b8:	605a      	str	r2, [r3, #4]
 80016ba:	e035      	b.n	8001728 <OptimizerV2+0x738>
 80016bc:	4924      	ldr	r1, [pc, #144]	; (8001750 <OptimizerV2+0x760>)
 80016be:	6838      	ldr	r0, [r7, #0]
 80016c0:	f7ff fc4e 	bl	8000f60 <__aeabi_fcmpge>
 80016c4:	4603      	mov	r3, r0
 80016c6:	2b00      	cmp	r3, #0
 80016c8:	d014      	beq.n	80016f4 <OptimizerV2+0x704>
 80016ca:	4920      	ldr	r1, [pc, #128]	; (800174c <OptimizerV2+0x75c>)
 80016cc:	6838      	ldr	r0, [r7, #0]
 80016ce:	f7ff fc3d 	bl	8000f4c <__aeabi_fcmple>
 80016d2:	4603      	mov	r3, r0
 80016d4:	2b00      	cmp	r3, #0
 80016d6:	d00d      	beq.n	80016f4 <OptimizerV2+0x704>
 80016d8:	687b      	ldr	r3, [r7, #4]
 80016da:	f993 2000 	ldrsb.w	r2, [r3]
 80016de:	687b      	ldr	r3, [r7, #4]
 80016e0:	701a      	strb	r2, [r3, #0]
 80016e2:	4918      	ldr	r1, [pc, #96]	; (8001744 <OptimizerV2+0x754>)
 80016e4:	6838      	ldr	r0, [r7, #0]
 80016e6:	f7ff fad1 	bl	8000c8c <__addsf3>
 80016ea:	4603      	mov	r3, r0
 80016ec:	461a      	mov	r2, r3
 80016ee:	687b      	ldr	r3, [r7, #4]
 80016f0:	605a      	str	r2, [r3, #4]
 80016f2:	e019      	b.n	8001728 <OptimizerV2+0x738>
 80016f4:	4914      	ldr	r1, [pc, #80]	; (8001748 <OptimizerV2+0x758>)
 80016f6:	6838      	ldr	r0, [r7, #0]
 80016f8:	f7ff fc32 	bl	8000f60 <__aeabi_fcmpge>
 80016fc:	4603      	mov	r3, r0
 80016fe:	2b00      	cmp	r3, #0
 8001700:	d012      	beq.n	8001728 <OptimizerV2+0x738>
 8001702:	490d      	ldr	r1, [pc, #52]	; (8001738 <OptimizerV2+0x748>)
 8001704:	6838      	ldr	r0, [r7, #0]
 8001706:	f7ff fc21 	bl	8000f4c <__aeabi_fcmple>
 800170a:	4603      	mov	r3, r0
 800170c:	2b00      	cmp	r3, #0
 800170e:	d00b      	beq.n	8001728 <OptimizerV2+0x738>
 8001710:	687b      	ldr	r3, [r7, #4]
 8001712:	f993 3000 	ldrsb.w	r3, [r3]
 8001716:	b2db      	uxtb	r3, r3
 8001718:	425b      	negs	r3, r3
 800171a:	b2db      	uxtb	r3, r3
 800171c:	b25a      	sxtb	r2, r3
 800171e:	687b      	ldr	r3, [r7, #4]
 8001720:	701a      	strb	r2, [r3, #0]
 8001722:	687b      	ldr	r3, [r7, #4]
 8001724:	683a      	ldr	r2, [r7, #0]
 8001726:	605a      	str	r2, [r3, #4]
 8001728:	687b      	ldr	r3, [r7, #4]
 800172a:	683a      	ldr	r2, [r7, #0]
 800172c:	609a      	str	r2, [r3, #8]
 800172e:	bf00      	nop
 8001730:	370c      	adds	r7, #12
 8001732:	46bd      	mov	sp, r7
 8001734:	e8bd 83f0 	ldmia.w	sp!, {r4, r5, r6, r7, r8, r9, pc}
 8001738:	42b40000 	.word	0x42b40000
 800173c:	43340000 	.word	0x43340000
 8001740:	43870000 	.word	0x43870000
 8001744:	43b40000 	.word	0x43b40000
 8001748:	c2b40000 	.word	0xc2b40000
 800174c:	c3870000 	.word	0xc3870000
 8001750:	c3b40000 	.word	0xc3b40000

08001754 <main>:
 8001754:	b580      	push	{r7, lr}
 8001756:	af00      	add	r7, sp, #0
 8001758:	f000 f8f0 	bl	800193c <HAL_Init>
 800175c:	f000 f810 	bl	8001780 <SystemClock_Config>
 8001760:	f000 f84a 	bl	80017f8 <MX_GPIO_Init>
 8001764:	4804      	ldr	r0, [pc, #16]	; (8001778 <main+0x24>)
 8001766:	f7ff fc0f 	bl	8000f88 <SwerveInit>
 800176a:	4b04      	ldr	r3, [pc, #16]	; (800177c <main+0x28>)
 800176c:	681b      	ldr	r3, [r3, #0]
 800176e:	4619      	mov	r1, r3
 8001770:	4801      	ldr	r0, [pc, #4]	; (8001778 <main+0x24>)
 8001772:	f7ff fc3d 	bl	8000ff0 <OptimizerV2>
 8001776:	e7f8      	b.n	800176a <main+0x16>
 8001778:	20000090 	.word	0x20000090
 800177c:	2000008c 	.word	0x2000008c

08001780 <SystemClock_Config>:
 8001780:	b580      	push	{r7, lr}
 8001782:	b090      	sub	sp, #64	; 0x40
 8001784:	af00      	add	r7, sp, #0
 8001786:	f107 0318 	add.w	r3, r7, #24
 800178a:	2228      	movs	r2, #40	; 0x28
 800178c:	2100      	movs	r1, #0
 800178e:	4618      	mov	r0, r3
 8001790:	f000 fdf8 	bl	8002384 <memset>
 8001794:	1d3b      	adds	r3, r7, #4
 8001796:	2200      	movs	r2, #0
 8001798:	601a      	str	r2, [r3, #0]
 800179a:	605a      	str	r2, [r3, #4]
 800179c:	609a      	str	r2, [r3, #8]
 800179e:	60da      	str	r2, [r3, #12]
 80017a0:	611a      	str	r2, [r3, #16]
 80017a2:	2302      	movs	r3, #2
 80017a4:	61bb      	str	r3, [r7, #24]
 80017a6:	2301      	movs	r3, #1
 80017a8:	62bb      	str	r3, [r7, #40]	; 0x28
 80017aa:	2310      	movs	r3, #16
 80017ac:	62fb      	str	r3, [r7, #44]	; 0x2c
 80017ae:	2300      	movs	r3, #0
 80017b0:	637b      	str	r3, [r7, #52]	; 0x34
 80017b2:	f107 0318 	add.w	r3, r7, #24
 80017b6:	4618      	mov	r0, r3
 80017b8:	f000 fa06 	bl	8001bc8 <HAL_RCC_OscConfig>
 80017bc:	4603      	mov	r3, r0
 80017be:	2b00      	cmp	r3, #0
 80017c0:	d001      	beq.n	80017c6 <SystemClock_Config+0x46>
 80017c2:	f000 f82f 	bl	8001824 <Error_Handler>
 80017c6:	230f      	movs	r3, #15
 80017c8:	607b      	str	r3, [r7, #4]
 80017ca:	2300      	movs	r3, #0
 80017cc:	60bb      	str	r3, [r7, #8]
 80017ce:	2300      	movs	r3, #0
 80017d0:	60fb      	str	r3, [r7, #12]
 80017d2:	2300      	movs	r3, #0
 80017d4:	613b      	str	r3, [r7, #16]
 80017d6:	2300      	movs	r3, #0
 80017d8:	617b      	str	r3, [r7, #20]
 80017da:	1d3b      	adds	r3, r7, #4
 80017dc:	2100      	movs	r1, #0
 80017de:	4618      	mov	r0, r3
 80017e0:	f000 fc74 	bl	80020cc <HAL_RCC_ClockConfig>
 80017e4:	4603      	mov	r3, r0
 80017e6:	2b00      	cmp	r3, #0
 80017e8:	d001      	beq.n	80017ee <SystemClock_Config+0x6e>
 80017ea:	f000 f81b 	bl	8001824 <Error_Handler>
 80017ee:	bf00      	nop
 80017f0:	3740      	adds	r7, #64	; 0x40
 80017f2:	46bd      	mov	sp, r7
 80017f4:	bd80      	pop	{r7, pc}
	...

080017f8 <MX_GPIO_Init>:
 80017f8:	b480      	push	{r7}
 80017fa:	b083      	sub	sp, #12
 80017fc:	af00      	add	r7, sp, #0
 80017fe:	4b08      	ldr	r3, [pc, #32]	; (8001820 <MX_GPIO_Init+0x28>)
 8001800:	699b      	ldr	r3, [r3, #24]
 8001802:	4a07      	ldr	r2, [pc, #28]	; (8001820 <MX_GPIO_Init+0x28>)
 8001804:	f043 0304 	orr.w	r3, r3, #4
 8001808:	6193      	str	r3, [r2, #24]
 800180a:	4b05      	ldr	r3, [pc, #20]	; (8001820 <MX_GPIO_Init+0x28>)
 800180c:	699b      	ldr	r3, [r3, #24]
 800180e:	f003 0304 	and.w	r3, r3, #4
 8001812:	607b      	str	r3, [r7, #4]
 8001814:	687b      	ldr	r3, [r7, #4]
 8001816:	bf00      	nop
 8001818:	370c      	adds	r7, #12
 800181a:	46bd      	mov	sp, r7
 800181c:	bc80      	pop	{r7}
 800181e:	4770      	bx	lr
 8001820:	40021000 	.word	0x40021000

08001824 <Error_Handler>:
 8001824:	b480      	push	{r7}
 8001826:	af00      	add	r7, sp, #0
 8001828:	b672      	cpsid	i
 800182a:	bf00      	nop
 800182c:	e7fe      	b.n	800182c <Error_Handler+0x8>
	...

08001830 <HAL_MspInit>:
 8001830:	b480      	push	{r7}
 8001832:	b085      	sub	sp, #20
 8001834:	af00      	add	r7, sp, #0
 8001836:	4b15      	ldr	r3, [pc, #84]	; (800188c <HAL_MspInit+0x5c>)
 8001838:	699b      	ldr	r3, [r3, #24]
 800183a:	4a14      	ldr	r2, [pc, #80]	; (800188c <HAL_MspInit+0x5c>)
 800183c:	f043 0301 	orr.w	r3, r3, #1
 8001840:	6193      	str	r3, [r2, #24]
 8001842:	4b12      	ldr	r3, [pc, #72]	; (800188c <HAL_MspInit+0x5c>)
 8001844:	699b      	ldr	r3, [r3, #24]
 8001846:	f003 0301 	and.w	r3, r3, #1
 800184a:	60bb      	str	r3, [r7, #8]
 800184c:	68bb      	ldr	r3, [r7, #8]
 800184e:	4b0f      	ldr	r3, [pc, #60]	; (800188c <HAL_MspInit+0x5c>)
 8001850:	69db      	ldr	r3, [r3, #28]
 8001852:	4a0e      	ldr	r2, [pc, #56]	; (800188c <HAL_MspInit+0x5c>)
 8001854:	f043 5380 	orr.w	r3, r3, #268435456	; 0x10000000
 8001858:	61d3      	str	r3, [r2, #28]
 800185a:	4b0c      	ldr	r3, [pc, #48]	; (800188c <HAL_MspInit+0x5c>)
 800185c:	69db      	ldr	r3, [r3, #28]
 800185e:	f003 5380 	and.w	r3, r3, #268435456	; 0x10000000
 8001862:	607b      	str	r3, [r7, #4]
 8001864:	687b      	ldr	r3, [r7, #4]
 8001866:	4b0a      	ldr	r3, [pc, #40]	; (8001890 <HAL_MspInit+0x60>)
 8001868:	685b      	ldr	r3, [r3, #4]
 800186a:	60fb      	str	r3, [r7, #12]
 800186c:	68fb      	ldr	r3, [r7, #12]
 800186e:	f023 63e0 	bic.w	r3, r3, #117440512	; 0x7000000
 8001872:	60fb      	str	r3, [r7, #12]
 8001874:	68fb      	ldr	r3, [r7, #12]
 8001876:	f043 7300 	orr.w	r3, r3, #33554432	; 0x2000000
 800187a:	60fb      	str	r3, [r7, #12]
 800187c:	4a04      	ldr	r2, [pc, #16]	; (8001890 <HAL_MspInit+0x60>)
 800187e:	68fb      	ldr	r3, [r7, #12]
 8001880:	6053      	str	r3, [r2, #4]
 8001882:	bf00      	nop
 8001884:	3714      	adds	r7, #20
 8001886:	46bd      	mov	sp, r7
 8001888:	bc80      	pop	{r7}
 800188a:	4770      	bx	lr
 800188c:	40021000 	.word	0x40021000
 8001890:	40010000 	.word	0x40010000

08001894 <NMI_Handler>:
 8001894:	b480      	push	{r7}
 8001896:	af00      	add	r7, sp, #0
 8001898:	e7fe      	b.n	8001898 <NMI_Handler+0x4>

0800189a <HardFault_Handler>:
 800189a:	b480      	push	{r7}
 800189c:	af00      	add	r7, sp, #0
 800189e:	e7fe      	b.n	800189e <HardFault_Handler+0x4>

080018a0 <MemManage_Handler>:
 80018a0:	b480      	push	{r7}
 80018a2:	af00      	add	r7, sp, #0
 80018a4:	e7fe      	b.n	80018a4 <MemManage_Handler+0x4>

080018a6 <BusFault_Handler>:
 80018a6:	b480      	push	{r7}
 80018a8:	af00      	add	r7, sp, #0
 80018aa:	e7fe      	b.n	80018aa <BusFault_Handler+0x4>

080018ac <UsageFault_Handler>:
 80018ac:	b480      	push	{r7}
 80018ae:	af00      	add	r7, sp, #0
 80018b0:	e7fe      	b.n	80018b0 <UsageFault_Handler+0x4>

080018b2 <SVC_Handler>:
 80018b2:	b480      	push	{r7}
 80018b4:	af00      	add	r7, sp, #0
 80018b6:	bf00      	nop
 80018b8:	46bd      	mov	sp, r7
 80018ba:	bc80      	pop	{r7}
 80018bc:	4770      	bx	lr

080018be <DebugMon_Handler>:
 80018be:	b480      	push	{r7}
 80018c0:	af00      	add	r7, sp, #0
 80018c2:	bf00      	nop
 80018c4:	46bd      	mov	sp, r7
 80018c6:	bc80      	pop	{r7}
 80018c8:	4770      	bx	lr

080018ca <PendSV_Handler>:
 80018ca:	b480      	push	{r7}
 80018cc:	af00      	add	r7, sp, #0
 80018ce:	bf00      	nop
 80018d0:	46bd      	mov	sp, r7
 80018d2:	bc80      	pop	{r7}
 80018d4:	4770      	bx	lr

080018d6 <SysTick_Handler>:
 80018d6:	b580      	push	{r7, lr}
 80018d8:	af00      	add	r7, sp, #0
 80018da:	f000 f875 	bl	80019c8 <HAL_IncTick>
 80018de:	bf00      	nop
 80018e0:	bd80      	pop	{r7, pc}

080018e2 <SystemInit>:
 80018e2:	b480      	push	{r7}
 80018e4:	af00      	add	r7, sp, #0
 80018e6:	bf00      	nop
 80018e8:	46bd      	mov	sp, r7
 80018ea:	bc80      	pop	{r7}
 80018ec:	4770      	bx	lr
	...

080018f0 <Reset_Handler>:
 80018f0:	f7ff fff7 	bl	80018e2 <SystemInit>
 80018f4:	480b      	ldr	r0, [pc, #44]	; (8001924 <LoopFillZerobss+0xe>)
 80018f6:	490c      	ldr	r1, [pc, #48]	; (8001928 <LoopFillZerobss+0x12>)
 80018f8:	4a0c      	ldr	r2, [pc, #48]	; (800192c <LoopFillZerobss+0x16>)
 80018fa:	2300      	movs	r3, #0
 80018fc:	e002      	b.n	8001904 <LoopCopyDataInit>

080018fe <CopyDataInit>:
 80018fe:	58d4      	ldr	r4, [r2, r3]
 8001900:	50c4      	str	r4, [r0, r3]
 8001902:	3304      	adds	r3, #4

08001904 <LoopCopyDataInit>:
 8001904:	18c4      	adds	r4, r0, r3
 8001906:	428c      	cmp	r4, r1
 8001908:	d3f9      	bcc.n	80018fe <CopyDataInit>
 800190a:	4a09      	ldr	r2, [pc, #36]	; (8001930 <LoopFillZerobss+0x1a>)
 800190c:	4c09      	ldr	r4, [pc, #36]	; (8001934 <LoopFillZerobss+0x1e>)
 800190e:	2300      	movs	r3, #0
 8001910:	e001      	b.n	8001916 <LoopFillZerobss>

08001912 <FillZerobss>:
 8001912:	6013      	str	r3, [r2, #0]
 8001914:	3204      	adds	r2, #4

08001916 <LoopFillZerobss>:
 8001916:	42a2      	cmp	r2, r4
 8001918:	d3fb      	bcc.n	8001912 <FillZerobss>
 800191a:	f000 fd41 	bl	80023a0 <__libc_init_array>
 800191e:	f7ff ff19 	bl	8001754 <main>
 8001922:	4770      	bx	lr
 8001924:	20000000 	.word	0x20000000
 8001928:	20000070 	.word	0x20000070
 800192c:	08003d68 	.word	0x08003d68
 8001930:	20000070 	.word	0x20000070
 8001934:	200001f8 	.word	0x200001f8

08001938 <ADC1_2_IRQHandler>:
 8001938:	e7fe      	b.n	8001938 <ADC1_2_IRQHandler>
	...

0800193c <HAL_Init>:
 800193c:	b580      	push	{r7, lr}
 800193e:	af00      	add	r7, sp, #0
 8001940:	4b08      	ldr	r3, [pc, #32]	; (8001964 <HAL_Init+0x28>)
 8001942:	681b      	ldr	r3, [r3, #0]
 8001944:	4a07      	ldr	r2, [pc, #28]	; (8001964 <HAL_Init+0x28>)
 8001946:	f043 0310 	orr.w	r3, r3, #16
 800194a:	6013      	str	r3, [r2, #0]
 800194c:	2003      	movs	r0, #3
 800194e:	f000 f907 	bl	8001b60 <HAL_NVIC_SetPriorityGrouping>
 8001952:	200f      	movs	r0, #15
 8001954:	f000 f808 	bl	8001968 <HAL_InitTick>
 8001958:	f7ff ff6a 	bl	8001830 <HAL_MspInit>
 800195c:	2300      	movs	r3, #0
 800195e:	4618      	mov	r0, r3
 8001960:	bd80      	pop	{r7, pc}
 8001962:	bf00      	nop
 8001964:	40022000 	.word	0x40022000

08001968 <HAL_InitTick>:
 8001968:	b580      	push	{r7, lr}
 800196a:	b082      	sub	sp, #8
 800196c:	af00      	add	r7, sp, #0
 800196e:	6078      	str	r0, [r7, #4]
 8001970:	4b12      	ldr	r3, [pc, #72]	; (80019bc <HAL_InitTick+0x54>)
 8001972:	681a      	ldr	r2, [r3, #0]
 8001974:	4b12      	ldr	r3, [pc, #72]	; (80019c0 <HAL_InitTick+0x58>)
 8001976:	781b      	ldrb	r3, [r3, #0]
 8001978:	4619      	mov	r1, r3
 800197a:	f44f 737a 	mov.w	r3, #1000	; 0x3e8
 800197e:	fbb3 f3f1 	udiv	r3, r3, r1
 8001982:	fbb2 f3f3 	udiv	r3, r2, r3
 8001986:	4618      	mov	r0, r3
 8001988:	f000 f911 	bl	8001bae <HAL_SYSTICK_Config>
 800198c:	4603      	mov	r3, r0
 800198e:	2b00      	cmp	r3, #0
 8001990:	d001      	beq.n	8001996 <HAL_InitTick+0x2e>
 8001992:	2301      	movs	r3, #1
 8001994:	e00e      	b.n	80019b4 <HAL_InitTick+0x4c>
 8001996:	687b      	ldr	r3, [r7, #4]
 8001998:	2b0f      	cmp	r3, #15
 800199a:	d80a      	bhi.n	80019b2 <HAL_InitTick+0x4a>
 800199c:	2200      	movs	r2, #0
 800199e:	6879      	ldr	r1, [r7, #4]
 80019a0:	f04f 30ff 	mov.w	r0, #4294967295
 80019a4:	f000 f8e7 	bl	8001b76 <HAL_NVIC_SetPriority>
 80019a8:	4a06      	ldr	r2, [pc, #24]	; (80019c4 <HAL_InitTick+0x5c>)
 80019aa:	687b      	ldr	r3, [r7, #4]
 80019ac:	6013      	str	r3, [r2, #0]
 80019ae:	2300      	movs	r3, #0
 80019b0:	e000      	b.n	80019b4 <HAL_InitTick+0x4c>
 80019b2:	2301      	movs	r3, #1
 80019b4:	4618      	mov	r0, r3
 80019b6:	3708      	adds	r7, #8
 80019b8:	46bd      	mov	sp, r7
 80019ba:	bd80      	pop	{r7, pc}
 80019bc:	20000000 	.word	0x20000000
 80019c0:	20000008 	.word	0x20000008
 80019c4:	20000004 	.word	0x20000004

080019c8 <HAL_IncTick>:
 80019c8:	b480      	push	{r7}
 80019ca:	af00      	add	r7, sp, #0
 80019cc:	4b05      	ldr	r3, [pc, #20]	; (80019e4 <HAL_IncTick+0x1c>)
 80019ce:	781b      	ldrb	r3, [r3, #0]
 80019d0:	461a      	mov	r2, r3
 80019d2:	4b05      	ldr	r3, [pc, #20]	; (80019e8 <HAL_IncTick+0x20>)
 80019d4:	681b      	ldr	r3, [r3, #0]
 80019d6:	4413      	add	r3, r2
 80019d8:	4a03      	ldr	r2, [pc, #12]	; (80019e8 <HAL_IncTick+0x20>)
 80019da:	6013      	str	r3, [r2, #0]
 80019dc:	bf00      	nop
 80019de:	46bd      	mov	sp, r7
 80019e0:	bc80      	pop	{r7}
 80019e2:	4770      	bx	lr
 80019e4:	20000008 	.word	0x20000008
 80019e8:	200000bc 	.word	0x200000bc

080019ec <HAL_GetTick>:
 80019ec:	b480      	push	{r7}
 80019ee:	af00      	add	r7, sp, #0
 80019f0:	4b02      	ldr	r3, [pc, #8]	; (80019fc <HAL_GetTick+0x10>)
 80019f2:	681b      	ldr	r3, [r3, #0]
 80019f4:	4618      	mov	r0, r3
 80019f6:	46bd      	mov	sp, r7
 80019f8:	bc80      	pop	{r7}
 80019fa:	4770      	bx	lr
 80019fc:	200000bc 	.word	0x200000bc

08001a00 <__NVIC_SetPriorityGrouping>:
 8001a00:	b480      	push	{r7}
 8001a02:	b085      	sub	sp, #20
 8001a04:	af00      	add	r7, sp, #0
 8001a06:	6078      	str	r0, [r7, #4]
 8001a08:	687b      	ldr	r3, [r7, #4]
 8001a0a:	f003 0307 	and.w	r3, r3, #7
 8001a0e:	60fb      	str	r3, [r7, #12]
 8001a10:	4b0c      	ldr	r3, [pc, #48]	; (8001a44 <__NVIC_SetPriorityGrouping+0x44>)
 8001a12:	68db      	ldr	r3, [r3, #12]
 8001a14:	60bb      	str	r3, [r7, #8]
 8001a16:	68ba      	ldr	r2, [r7, #8]
 8001a18:	f64f 03ff 	movw	r3, #63743	; 0xf8ff
 8001a1c:	4013      	ands	r3, r2
 8001a1e:	60bb      	str	r3, [r7, #8]
 8001a20:	68fb      	ldr	r3, [r7, #12]
 8001a22:	021a      	lsls	r2, r3, #8
 8001a24:	68bb      	ldr	r3, [r7, #8]
 8001a26:	4313      	orrs	r3, r2
 8001a28:	f043 63bf 	orr.w	r3, r3, #100139008	; 0x5f80000
 8001a2c:	f443 3300 	orr.w	r3, r3, #131072	; 0x20000
 8001a30:	60bb      	str	r3, [r7, #8]
 8001a32:	4a04      	ldr	r2, [pc, #16]	; (8001a44 <__NVIC_SetPriorityGrouping+0x44>)
 8001a34:	68bb      	ldr	r3, [r7, #8]
 8001a36:	60d3      	str	r3, [r2, #12]
 8001a38:	bf00      	nop
 8001a3a:	3714      	adds	r7, #20
 8001a3c:	46bd      	mov	sp, r7
 8001a3e:	bc80      	pop	{r7}
 8001a40:	4770      	bx	lr
 8001a42:	bf00      	nop
 8001a44:	e000ed00 	.word	0xe000ed00

08001a48 <__NVIC_GetPriorityGrouping>:
 8001a48:	b480      	push	{r7}
 8001a4a:	af00      	add	r7, sp, #0
 8001a4c:	4b04      	ldr	r3, [pc, #16]	; (8001a60 <__NVIC_GetPriorityGrouping+0x18>)
 8001a4e:	68db      	ldr	r3, [r3, #12]
 8001a50:	0a1b      	lsrs	r3, r3, #8
 8001a52:	f003 0307 	and.w	r3, r3, #7
 8001a56:	4618      	mov	r0, r3
 8001a58:	46bd      	mov	sp, r7
 8001a5a:	bc80      	pop	{r7}
 8001a5c:	4770      	bx	lr
 8001a5e:	bf00      	nop
 8001a60:	e000ed00 	.word	0xe000ed00

08001a64 <__NVIC_SetPriority>:
 8001a64:	b480      	push	{r7}
 8001a66:	b083      	sub	sp, #12
 8001a68:	af00      	add	r7, sp, #0
 8001a6a:	4603      	mov	r3, r0
 8001a6c:	6039      	str	r1, [r7, #0]
 8001a6e:	71fb      	strb	r3, [r7, #7]
 8001a70:	f997 3007 	ldrsb.w	r3, [r7, #7]
 8001a74:	2b00      	cmp	r3, #0
 8001a76:	db0a      	blt.n	8001a8e <__NVIC_SetPriority+0x2a>
 8001a78:	683b      	ldr	r3, [r7, #0]
 8001a7a:	b2da      	uxtb	r2, r3
 8001a7c:	490c      	ldr	r1, [pc, #48]	; (8001ab0 <__NVIC_SetPriority+0x4c>)
 8001a7e:	f997 3007 	ldrsb.w	r3, [r7, #7]
 8001a82:	0112      	lsls	r2, r2, #4
 8001a84:	b2d2      	uxtb	r2, r2
 8001a86:	440b      	add	r3, r1
 8001a88:	f883 2300 	strb.w	r2, [r3, #768]	; 0x300
 8001a8c:	e00a      	b.n	8001aa4 <__NVIC_SetPriority+0x40>
 8001a8e:	683b      	ldr	r3, [r7, #0]
 8001a90:	b2da      	uxtb	r2, r3
 8001a92:	4908      	ldr	r1, [pc, #32]	; (8001ab4 <__NVIC_SetPriority+0x50>)
 8001a94:	79fb      	ldrb	r3, [r7, #7]
 8001a96:	f003 030f 	and.w	r3, r3, #15
 8001a9a:	3b04      	subs	r3, #4
 8001a9c:	0112      	lsls	r2, r2, #4
 8001a9e:	b2d2      	uxtb	r2, r2
 8001aa0:	440b      	add	r3, r1
 8001aa2:	761a      	strb	r2, [r3, #24]
 8001aa4:	bf00      	nop
 8001aa6:	370c      	adds	r7, #12
 8001aa8:	46bd      	mov	sp, r7
 8001aaa:	bc80      	pop	{r7}
 8001aac:	4770      	bx	lr
 8001aae:	bf00      	nop
 8001ab0:	e000e100 	.word	0xe000e100
 8001ab4:	e000ed00 	.word	0xe000ed00

08001ab8 <NVIC_EncodePriority>:
 8001ab8:	b480      	push	{r7}
 8001aba:	b089      	sub	sp, #36	; 0x24
 8001abc:	af00      	add	r7, sp, #0
 8001abe:	60f8      	str	r0, [r7, #12]
 8001ac0:	60b9      	str	r1, [r7, #8]
 8001ac2:	607a      	str	r2, [r7, #4]
 8001ac4:	68fb      	ldr	r3, [r7, #12]
 8001ac6:	f003 0307 	and.w	r3, r3, #7
 8001aca:	61fb      	str	r3, [r7, #28]
 8001acc:	69fb      	ldr	r3, [r7, #28]
 8001ace:	f1c3 0307 	rsb	r3, r3, #7
 8001ad2:	2b04      	cmp	r3, #4
 8001ad4:	bf28      	it	cs
 8001ad6:	2304      	movcs	r3, #4
 8001ad8:	61bb      	str	r3, [r7, #24]
 8001ada:	69fb      	ldr	r3, [r7, #28]
 8001adc:	3304      	adds	r3, #4
 8001ade:	2b06      	cmp	r3, #6
 8001ae0:	d902      	bls.n	8001ae8 <NVIC_EncodePriority+0x30>
 8001ae2:	69fb      	ldr	r3, [r7, #28]
 8001ae4:	3b03      	subs	r3, #3
 8001ae6:	e000      	b.n	8001aea <NVIC_EncodePriority+0x32>
 8001ae8:	2300      	movs	r3, #0
 8001aea:	617b      	str	r3, [r7, #20]
 8001aec:	f04f 32ff 	mov.w	r2, #4294967295
 8001af0:	69bb      	ldr	r3, [r7, #24]
 8001af2:	fa02 f303 	lsl.w	r3, r2, r3
 8001af6:	43da      	mvns	r2, r3
 8001af8:	68bb      	ldr	r3, [r7, #8]
 8001afa:	401a      	ands	r2, r3
 8001afc:	697b      	ldr	r3, [r7, #20]
 8001afe:	409a      	lsls	r2, r3
 8001b00:	f04f 31ff 	mov.w	r1, #4294967295
 8001b04:	697b      	ldr	r3, [r7, #20]
 8001b06:	fa01 f303 	lsl.w	r3, r1, r3
 8001b0a:	43d9      	mvns	r1, r3
 8001b0c:	687b      	ldr	r3, [r7, #4]
 8001b0e:	400b      	ands	r3, r1
 8001b10:	4313      	orrs	r3, r2
 8001b12:	4618      	mov	r0, r3
 8001b14:	3724      	adds	r7, #36	; 0x24
 8001b16:	46bd      	mov	sp, r7
 8001b18:	bc80      	pop	{r7}
 8001b1a:	4770      	bx	lr

08001b1c <SysTick_Config>:
 8001b1c:	b580      	push	{r7, lr}
 8001b1e:	b082      	sub	sp, #8
 8001b20:	af00      	add	r7, sp, #0
 8001b22:	6078      	str	r0, [r7, #4]
 8001b24:	687b      	ldr	r3, [r7, #4]
 8001b26:	3b01      	subs	r3, #1
 8001b28:	f1b3 7f80 	cmp.w	r3, #16777216	; 0x1000000
 8001b2c:	d301      	bcc.n	8001b32 <SysTick_Config+0x16>
 8001b2e:	2301      	movs	r3, #1
 8001b30:	e00f      	b.n	8001b52 <SysTick_Config+0x36>
 8001b32:	4a0a      	ldr	r2, [pc, #40]	; (8001b5c <SysTick_Config+0x40>)
 8001b34:	687b      	ldr	r3, [r7, #4]
 8001b36:	3b01      	subs	r3, #1
 8001b38:	6053      	str	r3, [r2, #4]
 8001b3a:	210f      	movs	r1, #15
 8001b3c:	f04f 30ff 	mov.w	r0, #4294967295
 8001b40:	f7ff ff90 	bl	8001a64 <__NVIC_SetPriority>
 8001b44:	4b05      	ldr	r3, [pc, #20]	; (8001b5c <SysTick_Config+0x40>)
 8001b46:	2200      	movs	r2, #0
 8001b48:	609a      	str	r2, [r3, #8]
 8001b4a:	4b04      	ldr	r3, [pc, #16]	; (8001b5c <SysTick_Config+0x40>)
 8001b4c:	2207      	movs	r2, #7
 8001b4e:	601a      	str	r2, [r3, #0]
 8001b50:	2300      	movs	r3, #0
 8001b52:	4618      	mov	r0, r3
 8001b54:	3708      	adds	r7, #8
 8001b56:	46bd      	mov	sp, r7
 8001b58:	bd80      	pop	{r7, pc}
 8001b5a:	bf00      	nop
 8001b5c:	e000e010 	.word	0xe000e010

08001b60 <HAL_NVIC_SetPriorityGrouping>:
 8001b60:	b580      	push	{r7, lr}
 8001b62:	b082      	sub	sp, #8
 8001b64:	af00      	add	r7, sp, #0
 8001b66:	6078      	str	r0, [r7, #4]
 8001b68:	6878      	ldr	r0, [r7, #4]
 8001b6a:	f7ff ff49 	bl	8001a00 <__NVIC_SetPriorityGrouping>
 8001b6e:	bf00      	nop
 8001b70:	3708      	adds	r7, #8
 8001b72:	46bd      	mov	sp, r7
 8001b74:	bd80      	pop	{r7, pc}

08001b76 <HAL_NVIC_SetPriority>:
 8001b76:	b580      	push	{r7, lr}
 8001b78:	b086      	sub	sp, #24
 8001b7a:	af00      	add	r7, sp, #0
 8001b7c:	4603      	mov	r3, r0
 8001b7e:	60b9      	str	r1, [r7, #8]
 8001b80:	607a      	str	r2, [r7, #4]
 8001b82:	73fb      	strb	r3, [r7, #15]
 8001b84:	2300      	movs	r3, #0
 8001b86:	617b      	str	r3, [r7, #20]
 8001b88:	f7ff ff5e 	bl	8001a48 <__NVIC_GetPriorityGrouping>
 8001b8c:	6178      	str	r0, [r7, #20]
 8001b8e:	687a      	ldr	r2, [r7, #4]
 8001b90:	68b9      	ldr	r1, [r7, #8]
 8001b92:	6978      	ldr	r0, [r7, #20]
 8001b94:	f7ff ff90 	bl	8001ab8 <NVIC_EncodePriority>
 8001b98:	4602      	mov	r2, r0
 8001b9a:	f997 300f 	ldrsb.w	r3, [r7, #15]
 8001b9e:	4611      	mov	r1, r2
 8001ba0:	4618      	mov	r0, r3
 8001ba2:	f7ff ff5f 	bl	8001a64 <__NVIC_SetPriority>
 8001ba6:	bf00      	nop
 8001ba8:	3718      	adds	r7, #24
 8001baa:	46bd      	mov	sp, r7
 8001bac:	bd80      	pop	{r7, pc}

08001bae <HAL_SYSTICK_Config>:
 8001bae:	b580      	push	{r7, lr}
 8001bb0:	b082      	sub	sp, #8
 8001bb2:	af00      	add	r7, sp, #0
 8001bb4:	6078      	str	r0, [r7, #4]
 8001bb6:	6878      	ldr	r0, [r7, #4]
 8001bb8:	f7ff ffb0 	bl	8001b1c <SysTick_Config>
 8001bbc:	4603      	mov	r3, r0
 8001bbe:	4618      	mov	r0, r3
 8001bc0:	3708      	adds	r7, #8
 8001bc2:	46bd      	mov	sp, r7
 8001bc4:	bd80      	pop	{r7, pc}
	...

08001bc8 <HAL_RCC_OscConfig>:
 8001bc8:	b580      	push	{r7, lr}
 8001bca:	b086      	sub	sp, #24
 8001bcc:	af00      	add	r7, sp, #0
 8001bce:	6078      	str	r0, [r7, #4]
 8001bd0:	687b      	ldr	r3, [r7, #4]
 8001bd2:	2b00      	cmp	r3, #0
 8001bd4:	d101      	bne.n	8001bda <HAL_RCC_OscConfig+0x12>
 8001bd6:	2301      	movs	r3, #1
 8001bd8:	e272      	b.n	80020c0 <HAL_RCC_OscConfig+0x4f8>
 8001bda:	687b      	ldr	r3, [r7, #4]
 8001bdc:	681b      	ldr	r3, [r3, #0]
 8001bde:	f003 0301 	and.w	r3, r3, #1
 8001be2:	2b00      	cmp	r3, #0
 8001be4:	f000 8087 	beq.w	8001cf6 <HAL_RCC_OscConfig+0x12e>
 8001be8:	4b92      	ldr	r3, [pc, #584]	; (8001e34 <HAL_RCC_OscConfig+0x26c>)
 8001bea:	685b      	ldr	r3, [r3, #4]
 8001bec:	f003 030c 	and.w	r3, r3, #12
 8001bf0:	2b04      	cmp	r3, #4
 8001bf2:	d00c      	beq.n	8001c0e <HAL_RCC_OscConfig+0x46>
 8001bf4:	4b8f      	ldr	r3, [pc, #572]	; (8001e34 <HAL_RCC_OscConfig+0x26c>)
 8001bf6:	685b      	ldr	r3, [r3, #4]
 8001bf8:	f003 030c 	and.w	r3, r3, #12
 8001bfc:	2b08      	cmp	r3, #8
 8001bfe:	d112      	bne.n	8001c26 <HAL_RCC_OscConfig+0x5e>
 8001c00:	4b8c      	ldr	r3, [pc, #560]	; (8001e34 <HAL_RCC_OscConfig+0x26c>)
 8001c02:	685b      	ldr	r3, [r3, #4]
 8001c04:	f403 3380 	and.w	r3, r3, #65536	; 0x10000
 8001c08:	f5b3 3f80 	cmp.w	r3, #65536	; 0x10000
 8001c0c:	d10b      	bne.n	8001c26 <HAL_RCC_OscConfig+0x5e>
 8001c0e:	4b89      	ldr	r3, [pc, #548]	; (8001e34 <HAL_RCC_OscConfig+0x26c>)
 8001c10:	681b      	ldr	r3, [r3, #0]
 8001c12:	f403 3300 	and.w	r3, r3, #131072	; 0x20000
 8001c16:	2b00      	cmp	r3, #0
 8001c18:	d06c      	beq.n	8001cf4 <HAL_RCC_OscConfig+0x12c>
 8001c1a:	687b      	ldr	r3, [r7, #4]
 8001c1c:	685b      	ldr	r3, [r3, #4]
 8001c1e:	2b00      	cmp	r3, #0
 8001c20:	d168      	bne.n	8001cf4 <HAL_RCC_OscConfig+0x12c>
 8001c22:	2301      	movs	r3, #1
 8001c24:	e24c      	b.n	80020c0 <HAL_RCC_OscConfig+0x4f8>
 8001c26:	687b      	ldr	r3, [r7, #4]
 8001c28:	685b      	ldr	r3, [r3, #4]
 8001c2a:	f5b3 3f80 	cmp.w	r3, #65536	; 0x10000
 8001c2e:	d106      	bne.n	8001c3e <HAL_RCC_OscConfig+0x76>
 8001c30:	4b80      	ldr	r3, [pc, #512]	; (8001e34 <HAL_RCC_OscConfig+0x26c>)
 8001c32:	681b      	ldr	r3, [r3, #0]
 8001c34:	4a7f      	ldr	r2, [pc, #508]	; (8001e34 <HAL_RCC_OscConfig+0x26c>)
 8001c36:	f443 3380 	orr.w	r3, r3, #65536	; 0x10000
 8001c3a:	6013      	str	r3, [r2, #0]
 8001c3c:	e02e      	b.n	8001c9c <HAL_RCC_OscConfig+0xd4>
 8001c3e:	687b      	ldr	r3, [r7, #4]
 8001c40:	685b      	ldr	r3, [r3, #4]
 8001c42:	2b00      	cmp	r3, #0
 8001c44:	d10c      	bne.n	8001c60 <HAL_RCC_OscConfig+0x98>
 8001c46:	4b7b      	ldr	r3, [pc, #492]	; (8001e34 <HAL_RCC_OscConfig+0x26c>)
 8001c48:	681b      	ldr	r3, [r3, #0]
 8001c4a:	4a7a      	ldr	r2, [pc, #488]	; (8001e34 <HAL_RCC_OscConfig+0x26c>)
 8001c4c:	f423 3380 	bic.w	r3, r3, #65536	; 0x10000
 8001c50:	6013      	str	r3, [r2, #0]
 8001c52:	4b78      	ldr	r3, [pc, #480]	; (8001e34 <HAL_RCC_OscConfig+0x26c>)
 8001c54:	681b      	ldr	r3, [r3, #0]
 8001c56:	4a77      	ldr	r2, [pc, #476]	; (8001e34 <HAL_RCC_OscConfig+0x26c>)
 8001c58:	f423 2380 	bic.w	r3, r3, #262144	; 0x40000
 8001c5c:	6013      	str	r3, [r2, #0]
 8001c5e:	e01d      	b.n	8001c9c <HAL_RCC_OscConfig+0xd4>
 8001c60:	687b      	ldr	r3, [r7, #4]
 8001c62:	685b      	ldr	r3, [r3, #4]
 8001c64:	f5b3 2fa0 	cmp.w	r3, #327680	; 0x50000
 8001c68:	d10c      	bne.n	8001c84 <HAL_RCC_OscConfig+0xbc>
 8001c6a:	4b72      	ldr	r3, [pc, #456]	; (8001e34 <HAL_RCC_OscConfig+0x26c>)
 8001c6c:	681b      	ldr	r3, [r3, #0]
 8001c6e:	4a71      	ldr	r2, [pc, #452]	; (8001e34 <HAL_RCC_OscConfig+0x26c>)
 8001c70:	f443 2380 	orr.w	r3, r3, #262144	; 0x40000
 8001c74:	6013      	str	r3, [r2, #0]
 8001c76:	4b6f      	ldr	r3, [pc, #444]	; (8001e34 <HAL_RCC_OscConfig+0x26c>)
 8001c78:	681b      	ldr	r3, [r3, #0]
 8001c7a:	4a6e      	ldr	r2, [pc, #440]	; (8001e34 <HAL_RCC_OscConfig+0x26c>)
 8001c7c:	f443 3380 	orr.w	r3, r3, #65536	; 0x10000
 8001c80:	6013      	str	r3, [r2, #0]
 8001c82:	e00b      	b.n	8001c9c <HAL_RCC_OscConfig+0xd4>
 8001c84:	4b6b      	ldr	r3, [pc, #428]	; (8001e34 <HAL_RCC_OscConfig+0x26c>)
 8001c86:	681b      	ldr	r3, [r3, #0]
 8001c88:	4a6a      	ldr	r2, [pc, #424]	; (8001e34 <HAL_RCC_OscConfig+0x26c>)
 8001c8a:	f423 3380 	bic.w	r3, r3, #65536	; 0x10000
 8001c8e:	6013      	str	r3, [r2, #0]
 8001c90:	4b68      	ldr	r3, [pc, #416]	; (8001e34 <HAL_RCC_OscConfig+0x26c>)
 8001c92:	681b      	ldr	r3, [r3, #0]
 8001c94:	4a67      	ldr	r2, [pc, #412]	; (8001e34 <HAL_RCC_OscConfig+0x26c>)
 8001c96:	f423 2380 	bic.w	r3, r3, #262144	; 0x40000
 8001c9a:	6013      	str	r3, [r2, #0]
 8001c9c:	687b      	ldr	r3, [r7, #4]
 8001c9e:	685b      	ldr	r3, [r3, #4]
 8001ca0:	2b00      	cmp	r3, #0
 8001ca2:	d013      	beq.n	8001ccc <HAL_RCC_OscConfig+0x104>
 8001ca4:	f7ff fea2 	bl	80019ec <HAL_GetTick>
 8001ca8:	6138      	str	r0, [r7, #16]
 8001caa:	e008      	b.n	8001cbe <HAL_RCC_OscConfig+0xf6>
 8001cac:	f7ff fe9e 	bl	80019ec <HAL_GetTick>
 8001cb0:	4602      	mov	r2, r0
 8001cb2:	693b      	ldr	r3, [r7, #16]
 8001cb4:	1ad3      	subs	r3, r2, r3
 8001cb6:	2b64      	cmp	r3, #100	; 0x64
 8001cb8:	d901      	bls.n	8001cbe <HAL_RCC_OscConfig+0xf6>
 8001cba:	2303      	movs	r3, #3
 8001cbc:	e200      	b.n	80020c0 <HAL_RCC_OscConfig+0x4f8>
 8001cbe:	4b5d      	ldr	r3, [pc, #372]	; (8001e34 <HAL_RCC_OscConfig+0x26c>)
 8001cc0:	681b      	ldr	r3, [r3, #0]
 8001cc2:	f403 3300 	and.w	r3, r3, #131072	; 0x20000
 8001cc6:	2b00      	cmp	r3, #0
 8001cc8:	d0f0      	beq.n	8001cac <HAL_RCC_OscConfig+0xe4>
 8001cca:	e014      	b.n	8001cf6 <HAL_RCC_OscConfig+0x12e>
 8001ccc:	f7ff fe8e 	bl	80019ec <HAL_GetTick>
 8001cd0:	6138      	str	r0, [r7, #16]
 8001cd2:	e008      	b.n	8001ce6 <HAL_RCC_OscConfig+0x11e>
 8001cd4:	f7ff fe8a 	bl	80019ec <HAL_GetTick>
 8001cd8:	4602      	mov	r2, r0
 8001cda:	693b      	ldr	r3, [r7, #16]
 8001cdc:	1ad3      	subs	r3, r2, r3
 8001cde:	2b64      	cmp	r3, #100	; 0x64
 8001ce0:	d901      	bls.n	8001ce6 <HAL_RCC_OscConfig+0x11e>
 8001ce2:	2303      	movs	r3, #3
 8001ce4:	e1ec      	b.n	80020c0 <HAL_RCC_OscConfig+0x4f8>
 8001ce6:	4b53      	ldr	r3, [pc, #332]	; (8001e34 <HAL_RCC_OscConfig+0x26c>)
 8001ce8:	681b      	ldr	r3, [r3, #0]
 8001cea:	f403 3300 	and.w	r3, r3, #131072	; 0x20000
 8001cee:	2b00      	cmp	r3, #0
 8001cf0:	d1f0      	bne.n	8001cd4 <HAL_RCC_OscConfig+0x10c>
 8001cf2:	e000      	b.n	8001cf6 <HAL_RCC_OscConfig+0x12e>
 8001cf4:	bf00      	nop
 8001cf6:	687b      	ldr	r3, [r7, #4]
 8001cf8:	681b      	ldr	r3, [r3, #0]
 8001cfa:	f003 0302 	and.w	r3, r3, #2
 8001cfe:	2b00      	cmp	r3, #0
 8001d00:	d063      	beq.n	8001dca <HAL_RCC_OscConfig+0x202>
 8001d02:	4b4c      	ldr	r3, [pc, #304]	; (8001e34 <HAL_RCC_OscConfig+0x26c>)
 8001d04:	685b      	ldr	r3, [r3, #4]
 8001d06:	f003 030c 	and.w	r3, r3, #12
 8001d0a:	2b00      	cmp	r3, #0
 8001d0c:	d00b      	beq.n	8001d26 <HAL_RCC_OscConfig+0x15e>
 8001d0e:	4b49      	ldr	r3, [pc, #292]	; (8001e34 <HAL_RCC_OscConfig+0x26c>)
 8001d10:	685b      	ldr	r3, [r3, #4]
 8001d12:	f003 030c 	and.w	r3, r3, #12
 8001d16:	2b08      	cmp	r3, #8
 8001d18:	d11c      	bne.n	8001d54 <HAL_RCC_OscConfig+0x18c>
 8001d1a:	4b46      	ldr	r3, [pc, #280]	; (8001e34 <HAL_RCC_OscConfig+0x26c>)
 8001d1c:	685b      	ldr	r3, [r3, #4]
 8001d1e:	f403 3380 	and.w	r3, r3, #65536	; 0x10000
 8001d22:	2b00      	cmp	r3, #0
 8001d24:	d116      	bne.n	8001d54 <HAL_RCC_OscConfig+0x18c>
 8001d26:	4b43      	ldr	r3, [pc, #268]	; (8001e34 <HAL_RCC_OscConfig+0x26c>)
 8001d28:	681b      	ldr	r3, [r3, #0]
 8001d2a:	f003 0302 	and.w	r3, r3, #2
 8001d2e:	2b00      	cmp	r3, #0
 8001d30:	d005      	beq.n	8001d3e <HAL_RCC_OscConfig+0x176>
 8001d32:	687b      	ldr	r3, [r7, #4]
 8001d34:	691b      	ldr	r3, [r3, #16]
 8001d36:	2b01      	cmp	r3, #1
 8001d38:	d001      	beq.n	8001d3e <HAL_RCC_OscConfig+0x176>
 8001d3a:	2301      	movs	r3, #1
 8001d3c:	e1c0      	b.n	80020c0 <HAL_RCC_OscConfig+0x4f8>
 8001d3e:	4b3d      	ldr	r3, [pc, #244]	; (8001e34 <HAL_RCC_OscConfig+0x26c>)
 8001d40:	681b      	ldr	r3, [r3, #0]
 8001d42:	f023 02f8 	bic.w	r2, r3, #248	; 0xf8
 8001d46:	687b      	ldr	r3, [r7, #4]
 8001d48:	695b      	ldr	r3, [r3, #20]
 8001d4a:	00db      	lsls	r3, r3, #3
 8001d4c:	4939      	ldr	r1, [pc, #228]	; (8001e34 <HAL_RCC_OscConfig+0x26c>)
 8001d4e:	4313      	orrs	r3, r2
 8001d50:	600b      	str	r3, [r1, #0]
 8001d52:	e03a      	b.n	8001dca <HAL_RCC_OscConfig+0x202>
 8001d54:	687b      	ldr	r3, [r7, #4]
 8001d56:	691b      	ldr	r3, [r3, #16]
 8001d58:	2b00      	cmp	r3, #0
 8001d5a:	d020      	beq.n	8001d9e <HAL_RCC_OscConfig+0x1d6>
 8001d5c:	4b36      	ldr	r3, [pc, #216]	; (8001e38 <HAL_RCC_OscConfig+0x270>)
 8001d5e:	2201      	movs	r2, #1
 8001d60:	601a      	str	r2, [r3, #0]
 8001d62:	f7ff fe43 	bl	80019ec <HAL_GetTick>
 8001d66:	6138      	str	r0, [r7, #16]
 8001d68:	e008      	b.n	8001d7c <HAL_RCC_OscConfig+0x1b4>
 8001d6a:	f7ff fe3f 	bl	80019ec <HAL_GetTick>
 8001d6e:	4602      	mov	r2, r0
 8001d70:	693b      	ldr	r3, [r7, #16]
 8001d72:	1ad3      	subs	r3, r2, r3
 8001d74:	2b02      	cmp	r3, #2
 8001d76:	d901      	bls.n	8001d7c <HAL_RCC_OscConfig+0x1b4>
 8001d78:	2303      	movs	r3, #3
 8001d7a:	e1a1      	b.n	80020c0 <HAL_RCC_OscConfig+0x4f8>
 8001d7c:	4b2d      	ldr	r3, [pc, #180]	; (8001e34 <HAL_RCC_OscConfig+0x26c>)
 8001d7e:	681b      	ldr	r3, [r3, #0]
 8001d80:	f003 0302 	and.w	r3, r3, #2
 8001d84:	2b00      	cmp	r3, #0
 8001d86:	d0f0      	beq.n	8001d6a <HAL_RCC_OscConfig+0x1a2>
 8001d88:	4b2a      	ldr	r3, [pc, #168]	; (8001e34 <HAL_RCC_OscConfig+0x26c>)
 8001d8a:	681b      	ldr	r3, [r3, #0]
 8001d8c:	f023 02f8 	bic.w	r2, r3, #248	; 0xf8
 8001d90:	687b      	ldr	r3, [r7, #4]
 8001d92:	695b      	ldr	r3, [r3, #20]
 8001d94:	00db      	lsls	r3, r3, #3
 8001d96:	4927      	ldr	r1, [pc, #156]	; (8001e34 <HAL_RCC_OscConfig+0x26c>)
 8001d98:	4313      	orrs	r3, r2
 8001d9a:	600b      	str	r3, [r1, #0]
 8001d9c:	e015      	b.n	8001dca <HAL_RCC_OscConfig+0x202>
 8001d9e:	4b26      	ldr	r3, [pc, #152]	; (8001e38 <HAL_RCC_OscConfig+0x270>)
 8001da0:	2200      	movs	r2, #0
 8001da2:	601a      	str	r2, [r3, #0]
 8001da4:	f7ff fe22 	bl	80019ec <HAL_GetTick>
 8001da8:	6138      	str	r0, [r7, #16]
 8001daa:	e008      	b.n	8001dbe <HAL_RCC_OscConfig+0x1f6>
 8001dac:	f7ff fe1e 	bl	80019ec <HAL_GetTick>
 8001db0:	4602      	mov	r2, r0
 8001db2:	693b      	ldr	r3, [r7, #16]
 8001db4:	1ad3      	subs	r3, r2, r3
 8001db6:	2b02      	cmp	r3, #2
 8001db8:	d901      	bls.n	8001dbe <HAL_RCC_OscConfig+0x1f6>
 8001dba:	2303      	movs	r3, #3
 8001dbc:	e180      	b.n	80020c0 <HAL_RCC_OscConfig+0x4f8>
 8001dbe:	4b1d      	ldr	r3, [pc, #116]	; (8001e34 <HAL_RCC_OscConfig+0x26c>)
 8001dc0:	681b      	ldr	r3, [r3, #0]
 8001dc2:	f003 0302 	and.w	r3, r3, #2
 8001dc6:	2b00      	cmp	r3, #0
 8001dc8:	d1f0      	bne.n	8001dac <HAL_RCC_OscConfig+0x1e4>
 8001dca:	687b      	ldr	r3, [r7, #4]
 8001dcc:	681b      	ldr	r3, [r3, #0]
 8001dce:	f003 0308 	and.w	r3, r3, #8
 8001dd2:	2b00      	cmp	r3, #0
 8001dd4:	d03a      	beq.n	8001e4c <HAL_RCC_OscConfig+0x284>
 8001dd6:	687b      	ldr	r3, [r7, #4]
 8001dd8:	699b      	ldr	r3, [r3, #24]
 8001dda:	2b00      	cmp	r3, #0
 8001ddc:	d019      	beq.n	8001e12 <HAL_RCC_OscConfig+0x24a>
 8001dde:	4b17      	ldr	r3, [pc, #92]	; (8001e3c <HAL_RCC_OscConfig+0x274>)
 8001de0:	2201      	movs	r2, #1
 8001de2:	601a      	str	r2, [r3, #0]
 8001de4:	f7ff fe02 	bl	80019ec <HAL_GetTick>
 8001de8:	6138      	str	r0, [r7, #16]
 8001dea:	e008      	b.n	8001dfe <HAL_RCC_OscConfig+0x236>
 8001dec:	f7ff fdfe 	bl	80019ec <HAL_GetTick>
 8001df0:	4602      	mov	r2, r0
 8001df2:	693b      	ldr	r3, [r7, #16]
 8001df4:	1ad3      	subs	r3, r2, r3
 8001df6:	2b02      	cmp	r3, #2
 8001df8:	d901      	bls.n	8001dfe <HAL_RCC_OscConfig+0x236>
 8001dfa:	2303      	movs	r3, #3
 8001dfc:	e160      	b.n	80020c0 <HAL_RCC_OscConfig+0x4f8>
 8001dfe:	4b0d      	ldr	r3, [pc, #52]	; (8001e34 <HAL_RCC_OscConfig+0x26c>)
 8001e00:	6a5b      	ldr	r3, [r3, #36]	; 0x24
 8001e02:	f003 0302 	and.w	r3, r3, #2
 8001e06:	2b00      	cmp	r3, #0
 8001e08:	d0f0      	beq.n	8001dec <HAL_RCC_OscConfig+0x224>
 8001e0a:	2001      	movs	r0, #1
 8001e0c:	f000 fa9c 	bl	8002348 <RCC_Delay>
 8001e10:	e01c      	b.n	8001e4c <HAL_RCC_OscConfig+0x284>
 8001e12:	4b0a      	ldr	r3, [pc, #40]	; (8001e3c <HAL_RCC_OscConfig+0x274>)
 8001e14:	2200      	movs	r2, #0
 8001e16:	601a      	str	r2, [r3, #0]
 8001e18:	f7ff fde8 	bl	80019ec <HAL_GetTick>
 8001e1c:	6138      	str	r0, [r7, #16]
 8001e1e:	e00f      	b.n	8001e40 <HAL_RCC_OscConfig+0x278>
 8001e20:	f7ff fde4 	bl	80019ec <HAL_GetTick>
 8001e24:	4602      	mov	r2, r0
 8001e26:	693b      	ldr	r3, [r7, #16]
 8001e28:	1ad3      	subs	r3, r2, r3
 8001e2a:	2b02      	cmp	r3, #2
 8001e2c:	d908      	bls.n	8001e40 <HAL_RCC_OscConfig+0x278>
 8001e2e:	2303      	movs	r3, #3
 8001e30:	e146      	b.n	80020c0 <HAL_RCC_OscConfig+0x4f8>
 8001e32:	bf00      	nop
 8001e34:	40021000 	.word	0x40021000
 8001e38:	42420000 	.word	0x42420000
 8001e3c:	42420480 	.word	0x42420480
 8001e40:	4b92      	ldr	r3, [pc, #584]	; (800208c <HAL_RCC_OscConfig+0x4c4>)
 8001e42:	6a5b      	ldr	r3, [r3, #36]	; 0x24
 8001e44:	f003 0302 	and.w	r3, r3, #2
 8001e48:	2b00      	cmp	r3, #0
 8001e4a:	d1e9      	bne.n	8001e20 <HAL_RCC_OscConfig+0x258>
 8001e4c:	687b      	ldr	r3, [r7, #4]
 8001e4e:	681b      	ldr	r3, [r3, #0]
 8001e50:	f003 0304 	and.w	r3, r3, #4
 8001e54:	2b00      	cmp	r3, #0
 8001e56:	f000 80a6 	beq.w	8001fa6 <HAL_RCC_OscConfig+0x3de>
 8001e5a:	2300      	movs	r3, #0
 8001e5c:	75fb      	strb	r3, [r7, #23]
 8001e5e:	4b8b      	ldr	r3, [pc, #556]	; (800208c <HAL_RCC_OscConfig+0x4c4>)
 8001e60:	69db      	ldr	r3, [r3, #28]
 8001e62:	f003 5380 	and.w	r3, r3, #268435456	; 0x10000000
 8001e66:	2b00      	cmp	r3, #0
 8001e68:	d10d      	bne.n	8001e86 <HAL_RCC_OscConfig+0x2be>
 8001e6a:	4b88      	ldr	r3, [pc, #544]	; (800208c <HAL_RCC_OscConfig+0x4c4>)
 8001e6c:	69db      	ldr	r3, [r3, #28]
 8001e6e:	4a87      	ldr	r2, [pc, #540]	; (800208c <HAL_RCC_OscConfig+0x4c4>)
 8001e70:	f043 5380 	orr.w	r3, r3, #268435456	; 0x10000000
 8001e74:	61d3      	str	r3, [r2, #28]
 8001e76:	4b85      	ldr	r3, [pc, #532]	; (800208c <HAL_RCC_OscConfig+0x4c4>)
 8001e78:	69db      	ldr	r3, [r3, #28]
 8001e7a:	f003 5380 	and.w	r3, r3, #268435456	; 0x10000000
 8001e7e:	60bb      	str	r3, [r7, #8]
 8001e80:	68bb      	ldr	r3, [r7, #8]
 8001e82:	2301      	movs	r3, #1
 8001e84:	75fb      	strb	r3, [r7, #23]
 8001e86:	4b82      	ldr	r3, [pc, #520]	; (8002090 <HAL_RCC_OscConfig+0x4c8>)
 8001e88:	681b      	ldr	r3, [r3, #0]
 8001e8a:	f403 7380 	and.w	r3, r3, #256	; 0x100
 8001e8e:	2b00      	cmp	r3, #0
 8001e90:	d118      	bne.n	8001ec4 <HAL_RCC_OscConfig+0x2fc>
 8001e92:	4b7f      	ldr	r3, [pc, #508]	; (8002090 <HAL_RCC_OscConfig+0x4c8>)
 8001e94:	681b      	ldr	r3, [r3, #0]
 8001e96:	4a7e      	ldr	r2, [pc, #504]	; (8002090 <HAL_RCC_OscConfig+0x4c8>)
 8001e98:	f443 7380 	orr.w	r3, r3, #256	; 0x100
 8001e9c:	6013      	str	r3, [r2, #0]
 8001e9e:	f7ff fda5 	bl	80019ec <HAL_GetTick>
 8001ea2:	6138      	str	r0, [r7, #16]
 8001ea4:	e008      	b.n	8001eb8 <HAL_RCC_OscConfig+0x2f0>
 8001ea6:	f7ff fda1 	bl	80019ec <HAL_GetTick>
 8001eaa:	4602      	mov	r2, r0
 8001eac:	693b      	ldr	r3, [r7, #16]
 8001eae:	1ad3      	subs	r3, r2, r3
 8001eb0:	2b64      	cmp	r3, #100	; 0x64
 8001eb2:	d901      	bls.n	8001eb8 <HAL_RCC_OscConfig+0x2f0>
 8001eb4:	2303      	movs	r3, #3
 8001eb6:	e103      	b.n	80020c0 <HAL_RCC_OscConfig+0x4f8>
 8001eb8:	4b75      	ldr	r3, [pc, #468]	; (8002090 <HAL_RCC_OscConfig+0x4c8>)
 8001eba:	681b      	ldr	r3, [r3, #0]
 8001ebc:	f403 7380 	and.w	r3, r3, #256	; 0x100
 8001ec0:	2b00      	cmp	r3, #0
 8001ec2:	d0f0      	beq.n	8001ea6 <HAL_RCC_OscConfig+0x2de>
 8001ec4:	687b      	ldr	r3, [r7, #4]
 8001ec6:	68db      	ldr	r3, [r3, #12]
 8001ec8:	2b01      	cmp	r3, #1
 8001eca:	d106      	bne.n	8001eda <HAL_RCC_OscConfig+0x312>
 8001ecc:	4b6f      	ldr	r3, [pc, #444]	; (800208c <HAL_RCC_OscConfig+0x4c4>)
 8001ece:	6a1b      	ldr	r3, [r3, #32]
 8001ed0:	4a6e      	ldr	r2, [pc, #440]	; (800208c <HAL_RCC_OscConfig+0x4c4>)
 8001ed2:	f043 0301 	orr.w	r3, r3, #1
 8001ed6:	6213      	str	r3, [r2, #32]
 8001ed8:	e02d      	b.n	8001f36 <HAL_RCC_OscConfig+0x36e>
 8001eda:	687b      	ldr	r3, [r7, #4]
 8001edc:	68db      	ldr	r3, [r3, #12]
 8001ede:	2b00      	cmp	r3, #0
 8001ee0:	d10c      	bne.n	8001efc <HAL_RCC_OscConfig+0x334>
 8001ee2:	4b6a      	ldr	r3, [pc, #424]	; (800208c <HAL_RCC_OscConfig+0x4c4>)
 8001ee4:	6a1b      	ldr	r3, [r3, #32]
 8001ee6:	4a69      	ldr	r2, [pc, #420]	; (800208c <HAL_RCC_OscConfig+0x4c4>)
 8001ee8:	f023 0301 	bic.w	r3, r3, #1
 8001eec:	6213      	str	r3, [r2, #32]
 8001eee:	4b67      	ldr	r3, [pc, #412]	; (800208c <HAL_RCC_OscConfig+0x4c4>)
 8001ef0:	6a1b      	ldr	r3, [r3, #32]
 8001ef2:	4a66      	ldr	r2, [pc, #408]	; (800208c <HAL_RCC_OscConfig+0x4c4>)
 8001ef4:	f023 0304 	bic.w	r3, r3, #4
 8001ef8:	6213      	str	r3, [r2, #32]
 8001efa:	e01c      	b.n	8001f36 <HAL_RCC_OscConfig+0x36e>
 8001efc:	687b      	ldr	r3, [r7, #4]
 8001efe:	68db      	ldr	r3, [r3, #12]
 8001f00:	2b05      	cmp	r3, #5
 8001f02:	d10c      	bne.n	8001f1e <HAL_RCC_OscConfig+0x356>
 8001f04:	4b61      	ldr	r3, [pc, #388]	; (800208c <HAL_RCC_OscConfig+0x4c4>)
 8001f06:	6a1b      	ldr	r3, [r3, #32]
 8001f08:	4a60      	ldr	r2, [pc, #384]	; (800208c <HAL_RCC_OscConfig+0x4c4>)
 8001f0a:	f043 0304 	orr.w	r3, r3, #4
 8001f0e:	6213      	str	r3, [r2, #32]
 8001f10:	4b5e      	ldr	r3, [pc, #376]	; (800208c <HAL_RCC_OscConfig+0x4c4>)
 8001f12:	6a1b      	ldr	r3, [r3, #32]
 8001f14:	4a5d      	ldr	r2, [pc, #372]	; (800208c <HAL_RCC_OscConfig+0x4c4>)
 8001f16:	f043 0301 	orr.w	r3, r3, #1
 8001f1a:	6213      	str	r3, [r2, #32]
 8001f1c:	e00b      	b.n	8001f36 <HAL_RCC_OscConfig+0x36e>
 8001f1e:	4b5b      	ldr	r3, [pc, #364]	; (800208c <HAL_RCC_OscConfig+0x4c4>)
 8001f20:	6a1b      	ldr	r3, [r3, #32]
 8001f22:	4a5a      	ldr	r2, [pc, #360]	; (800208c <HAL_RCC_OscConfig+0x4c4>)
 8001f24:	f023 0301 	bic.w	r3, r3, #1
 8001f28:	6213      	str	r3, [r2, #32]
 8001f2a:	4b58      	ldr	r3, [pc, #352]	; (800208c <HAL_RCC_OscConfig+0x4c4>)
 8001f2c:	6a1b      	ldr	r3, [r3, #32]
 8001f2e:	4a57      	ldr	r2, [pc, #348]	; (800208c <HAL_RCC_OscConfig+0x4c4>)
 8001f30:	f023 0304 	bic.w	r3, r3, #4
 8001f34:	6213      	str	r3, [r2, #32]
 8001f36:	687b      	ldr	r3, [r7, #4]
 8001f38:	68db      	ldr	r3, [r3, #12]
 8001f3a:	2b00      	cmp	r3, #0
 8001f3c:	d015      	beq.n	8001f6a <HAL_RCC_OscConfig+0x3a2>
 8001f3e:	f7ff fd55 	bl	80019ec <HAL_GetTick>
 8001f42:	6138      	str	r0, [r7, #16]
 8001f44:	e00a      	b.n	8001f5c <HAL_RCC_OscConfig+0x394>
 8001f46:	f7ff fd51 	bl	80019ec <HAL_GetTick>
 8001f4a:	4602      	mov	r2, r0
 8001f4c:	693b      	ldr	r3, [r7, #16]
 8001f4e:	1ad3      	subs	r3, r2, r3
 8001f50:	f241 3288 	movw	r2, #5000	; 0x1388
 8001f54:	4293      	cmp	r3, r2
 8001f56:	d901      	bls.n	8001f5c <HAL_RCC_OscConfig+0x394>
 8001f58:	2303      	movs	r3, #3
 8001f5a:	e0b1      	b.n	80020c0 <HAL_RCC_OscConfig+0x4f8>
 8001f5c:	4b4b      	ldr	r3, [pc, #300]	; (800208c <HAL_RCC_OscConfig+0x4c4>)
 8001f5e:	6a1b      	ldr	r3, [r3, #32]
 8001f60:	f003 0302 	and.w	r3, r3, #2
 8001f64:	2b00      	cmp	r3, #0
 8001f66:	d0ee      	beq.n	8001f46 <HAL_RCC_OscConfig+0x37e>
 8001f68:	e014      	b.n	8001f94 <HAL_RCC_OscConfig+0x3cc>
 8001f6a:	f7ff fd3f 	bl	80019ec <HAL_GetTick>
 8001f6e:	6138      	str	r0, [r7, #16]
 8001f70:	e00a      	b.n	8001f88 <HAL_RCC_OscConfig+0x3c0>
 8001f72:	f7ff fd3b 	bl	80019ec <HAL_GetTick>
 8001f76:	4602      	mov	r2, r0
 8001f78:	693b      	ldr	r3, [r7, #16]
 8001f7a:	1ad3      	subs	r3, r2, r3
 8001f7c:	f241 3288 	movw	r2, #5000	; 0x1388
 8001f80:	4293      	cmp	r3, r2
 8001f82:	d901      	bls.n	8001f88 <HAL_RCC_OscConfig+0x3c0>
 8001f84:	2303      	movs	r3, #3
 8001f86:	e09b      	b.n	80020c0 <HAL_RCC_OscConfig+0x4f8>
 8001f88:	4b40      	ldr	r3, [pc, #256]	; (800208c <HAL_RCC_OscConfig+0x4c4>)
 8001f8a:	6a1b      	ldr	r3, [r3, #32]
 8001f8c:	f003 0302 	and.w	r3, r3, #2
 8001f90:	2b00      	cmp	r3, #0
 8001f92:	d1ee      	bne.n	8001f72 <HAL_RCC_OscConfig+0x3aa>
 8001f94:	7dfb      	ldrb	r3, [r7, #23]
 8001f96:	2b01      	cmp	r3, #1
 8001f98:	d105      	bne.n	8001fa6 <HAL_RCC_OscConfig+0x3de>
 8001f9a:	4b3c      	ldr	r3, [pc, #240]	; (800208c <HAL_RCC_OscConfig+0x4c4>)
 8001f9c:	69db      	ldr	r3, [r3, #28]
 8001f9e:	4a3b      	ldr	r2, [pc, #236]	; (800208c <HAL_RCC_OscConfig+0x4c4>)
 8001fa0:	f023 5380 	bic.w	r3, r3, #268435456	; 0x10000000
 8001fa4:	61d3      	str	r3, [r2, #28]
 8001fa6:	687b      	ldr	r3, [r7, #4]
 8001fa8:	69db      	ldr	r3, [r3, #28]
 8001faa:	2b00      	cmp	r3, #0
 8001fac:	f000 8087 	beq.w	80020be <HAL_RCC_OscConfig+0x4f6>
 8001fb0:	4b36      	ldr	r3, [pc, #216]	; (800208c <HAL_RCC_OscConfig+0x4c4>)
 8001fb2:	685b      	ldr	r3, [r3, #4]
 8001fb4:	f003 030c 	and.w	r3, r3, #12
 8001fb8:	2b08      	cmp	r3, #8
 8001fba:	d061      	beq.n	8002080 <HAL_RCC_OscConfig+0x4b8>
 8001fbc:	687b      	ldr	r3, [r7, #4]
 8001fbe:	69db      	ldr	r3, [r3, #28]
 8001fc0:	2b02      	cmp	r3, #2
 8001fc2:	d146      	bne.n	8002052 <HAL_RCC_OscConfig+0x48a>
 8001fc4:	4b33      	ldr	r3, [pc, #204]	; (8002094 <HAL_RCC_OscConfig+0x4cc>)
 8001fc6:	2200      	movs	r2, #0
 8001fc8:	601a      	str	r2, [r3, #0]
 8001fca:	f7ff fd0f 	bl	80019ec <HAL_GetTick>
 8001fce:	6138      	str	r0, [r7, #16]
 8001fd0:	e008      	b.n	8001fe4 <HAL_RCC_OscConfig+0x41c>
 8001fd2:	f7ff fd0b 	bl	80019ec <HAL_GetTick>
 8001fd6:	4602      	mov	r2, r0
 8001fd8:	693b      	ldr	r3, [r7, #16]
 8001fda:	1ad3      	subs	r3, r2, r3
 8001fdc:	2b02      	cmp	r3, #2
 8001fde:	d901      	bls.n	8001fe4 <HAL_RCC_OscConfig+0x41c>
 8001fe0:	2303      	movs	r3, #3
 8001fe2:	e06d      	b.n	80020c0 <HAL_RCC_OscConfig+0x4f8>
 8001fe4:	4b29      	ldr	r3, [pc, #164]	; (800208c <HAL_RCC_OscConfig+0x4c4>)
 8001fe6:	681b      	ldr	r3, [r3, #0]
 8001fe8:	f003 7300 	and.w	r3, r3, #33554432	; 0x2000000
 8001fec:	2b00      	cmp	r3, #0
 8001fee:	d1f0      	bne.n	8001fd2 <HAL_RCC_OscConfig+0x40a>
 8001ff0:	687b      	ldr	r3, [r7, #4]
 8001ff2:	6a1b      	ldr	r3, [r3, #32]
 8001ff4:	f5b3 3f80 	cmp.w	r3, #65536	; 0x10000
 8001ff8:	d108      	bne.n	800200c <HAL_RCC_OscConfig+0x444>
 8001ffa:	4b24      	ldr	r3, [pc, #144]	; (800208c <HAL_RCC_OscConfig+0x4c4>)
 8001ffc:	685b      	ldr	r3, [r3, #4]
 8001ffe:	f423 3200 	bic.w	r2, r3, #131072	; 0x20000
 8002002:	687b      	ldr	r3, [r7, #4]
 8002004:	689b      	ldr	r3, [r3, #8]
 8002006:	4921      	ldr	r1, [pc, #132]	; (800208c <HAL_RCC_OscConfig+0x4c4>)
 8002008:	4313      	orrs	r3, r2
 800200a:	604b      	str	r3, [r1, #4]
 800200c:	4b1f      	ldr	r3, [pc, #124]	; (800208c <HAL_RCC_OscConfig+0x4c4>)
 800200e:	685b      	ldr	r3, [r3, #4]
 8002010:	f423 1274 	bic.w	r2, r3, #3997696	; 0x3d0000
 8002014:	687b      	ldr	r3, [r7, #4]
 8002016:	6a19      	ldr	r1, [r3, #32]
 8002018:	687b      	ldr	r3, [r7, #4]
 800201a:	6a5b      	ldr	r3, [r3, #36]	; 0x24
 800201c:	430b      	orrs	r3, r1
 800201e:	491b      	ldr	r1, [pc, #108]	; (800208c <HAL_RCC_OscConfig+0x4c4>)
 8002020:	4313      	orrs	r3, r2
 8002022:	604b      	str	r3, [r1, #4]
 8002024:	4b1b      	ldr	r3, [pc, #108]	; (8002094 <HAL_RCC_OscConfig+0x4cc>)
 8002026:	2201      	movs	r2, #1
 8002028:	601a      	str	r2, [r3, #0]
 800202a:	f7ff fcdf 	bl	80019ec <HAL_GetTick>
 800202e:	6138      	str	r0, [r7, #16]
 8002030:	e008      	b.n	8002044 <HAL_RCC_OscConfig+0x47c>
 8002032:	f7ff fcdb 	bl	80019ec <HAL_GetTick>
 8002036:	4602      	mov	r2, r0
 8002038:	693b      	ldr	r3, [r7, #16]
 800203a:	1ad3      	subs	r3, r2, r3
 800203c:	2b02      	cmp	r3, #2
 800203e:	d901      	bls.n	8002044 <HAL_RCC_OscConfig+0x47c>
 8002040:	2303      	movs	r3, #3
 8002042:	e03d      	b.n	80020c0 <HAL_RCC_OscConfig+0x4f8>
 8002044:	4b11      	ldr	r3, [pc, #68]	; (800208c <HAL_RCC_OscConfig+0x4c4>)
 8002046:	681b      	ldr	r3, [r3, #0]
 8002048:	f003 7300 	and.w	r3, r3, #33554432	; 0x2000000
 800204c:	2b00      	cmp	r3, #0
 800204e:	d0f0      	beq.n	8002032 <HAL_RCC_OscConfig+0x46a>
 8002050:	e035      	b.n	80020be <HAL_RCC_OscConfig+0x4f6>
 8002052:	4b10      	ldr	r3, [pc, #64]	; (8002094 <HAL_RCC_OscConfig+0x4cc>)
 8002054:	2200      	movs	r2, #0
 8002056:	601a      	str	r2, [r3, #0]
 8002058:	f7ff fcc8 	bl	80019ec <HAL_GetTick>
 800205c:	6138      	str	r0, [r7, #16]
 800205e:	e008      	b.n	8002072 <HAL_RCC_OscConfig+0x4aa>
 8002060:	f7ff fcc4 	bl	80019ec <HAL_GetTick>
 8002064:	4602      	mov	r2, r0
 8002066:	693b      	ldr	r3, [r7, #16]
 8002068:	1ad3      	subs	r3, r2, r3
 800206a:	2b02      	cmp	r3, #2
 800206c:	d901      	bls.n	8002072 <HAL_RCC_OscConfig+0x4aa>
 800206e:	2303      	movs	r3, #3
 8002070:	e026      	b.n	80020c0 <HAL_RCC_OscConfig+0x4f8>
 8002072:	4b06      	ldr	r3, [pc, #24]	; (800208c <HAL_RCC_OscConfig+0x4c4>)
 8002074:	681b      	ldr	r3, [r3, #0]
 8002076:	f003 7300 	and.w	r3, r3, #33554432	; 0x2000000
 800207a:	2b00      	cmp	r3, #0
 800207c:	d1f0      	bne.n	8002060 <HAL_RCC_OscConfig+0x498>
 800207e:	e01e      	b.n	80020be <HAL_RCC_OscConfig+0x4f6>
 8002080:	687b      	ldr	r3, [r7, #4]
 8002082:	69db      	ldr	r3, [r3, #28]
 8002084:	2b01      	cmp	r3, #1
 8002086:	d107      	bne.n	8002098 <HAL_RCC_OscConfig+0x4d0>
 8002088:	2301      	movs	r3, #1
 800208a:	e019      	b.n	80020c0 <HAL_RCC_OscConfig+0x4f8>
 800208c:	40021000 	.word	0x40021000
 8002090:	40007000 	.word	0x40007000
 8002094:	42420060 	.word	0x42420060
 8002098:	4b0b      	ldr	r3, [pc, #44]	; (80020c8 <HAL_RCC_OscConfig+0x500>)
 800209a:	685b      	ldr	r3, [r3, #4]
 800209c:	60fb      	str	r3, [r7, #12]
 800209e:	68fb      	ldr	r3, [r7, #12]
 80020a0:	f403 3280 	and.w	r2, r3, #65536	; 0x10000
 80020a4:	687b      	ldr	r3, [r7, #4]
 80020a6:	6a1b      	ldr	r3, [r3, #32]
 80020a8:	429a      	cmp	r2, r3
 80020aa:	d106      	bne.n	80020ba <HAL_RCC_OscConfig+0x4f2>
 80020ac:	68fb      	ldr	r3, [r7, #12]
 80020ae:	f403 1270 	and.w	r2, r3, #3932160	; 0x3c0000
 80020b2:	687b      	ldr	r3, [r7, #4]
 80020b4:	6a5b      	ldr	r3, [r3, #36]	; 0x24
 80020b6:	429a      	cmp	r2, r3
 80020b8:	d001      	beq.n	80020be <HAL_RCC_OscConfig+0x4f6>
 80020ba:	2301      	movs	r3, #1
 80020bc:	e000      	b.n	80020c0 <HAL_RCC_OscConfig+0x4f8>
 80020be:	2300      	movs	r3, #0
 80020c0:	4618      	mov	r0, r3
 80020c2:	3718      	adds	r7, #24
 80020c4:	46bd      	mov	sp, r7
 80020c6:	bd80      	pop	{r7, pc}
 80020c8:	40021000 	.word	0x40021000

080020cc <HAL_RCC_ClockConfig>:
 80020cc:	b580      	push	{r7, lr}
 80020ce:	b084      	sub	sp, #16
 80020d0:	af00      	add	r7, sp, #0
 80020d2:	6078      	str	r0, [r7, #4]
 80020d4:	6039      	str	r1, [r7, #0]
 80020d6:	687b      	ldr	r3, [r7, #4]
 80020d8:	2b00      	cmp	r3, #0
 80020da:	d101      	bne.n	80020e0 <HAL_RCC_ClockConfig+0x14>
 80020dc:	2301      	movs	r3, #1
 80020de:	e0d0      	b.n	8002282 <HAL_RCC_ClockConfig+0x1b6>
 80020e0:	4b6a      	ldr	r3, [pc, #424]	; (800228c <HAL_RCC_ClockConfig+0x1c0>)
 80020e2:	681b      	ldr	r3, [r3, #0]
 80020e4:	f003 0307 	and.w	r3, r3, #7
 80020e8:	683a      	ldr	r2, [r7, #0]
 80020ea:	429a      	cmp	r2, r3
 80020ec:	d910      	bls.n	8002110 <HAL_RCC_ClockConfig+0x44>
 80020ee:	4b67      	ldr	r3, [pc, #412]	; (800228c <HAL_RCC_ClockConfig+0x1c0>)
 80020f0:	681b      	ldr	r3, [r3, #0]
 80020f2:	f023 0207 	bic.w	r2, r3, #7
 80020f6:	4965      	ldr	r1, [pc, #404]	; (800228c <HAL_RCC_ClockConfig+0x1c0>)
 80020f8:	683b      	ldr	r3, [r7, #0]
 80020fa:	4313      	orrs	r3, r2
 80020fc:	600b      	str	r3, [r1, #0]
 80020fe:	4b63      	ldr	r3, [pc, #396]	; (800228c <HAL_RCC_ClockConfig+0x1c0>)
 8002100:	681b      	ldr	r3, [r3, #0]
 8002102:	f003 0307 	and.w	r3, r3, #7
 8002106:	683a      	ldr	r2, [r7, #0]
 8002108:	429a      	cmp	r2, r3
 800210a:	d001      	beq.n	8002110 <HAL_RCC_ClockConfig+0x44>
 800210c:	2301      	movs	r3, #1
 800210e:	e0b8      	b.n	8002282 <HAL_RCC_ClockConfig+0x1b6>
 8002110:	687b      	ldr	r3, [r7, #4]
 8002112:	681b      	ldr	r3, [r3, #0]
 8002114:	f003 0302 	and.w	r3, r3, #2
 8002118:	2b00      	cmp	r3, #0
 800211a:	d020      	beq.n	800215e <HAL_RCC_ClockConfig+0x92>
 800211c:	687b      	ldr	r3, [r7, #4]
 800211e:	681b      	ldr	r3, [r3, #0]
 8002120:	f003 0304 	and.w	r3, r3, #4
 8002124:	2b00      	cmp	r3, #0
 8002126:	d005      	beq.n	8002134 <HAL_RCC_ClockConfig+0x68>
 8002128:	4b59      	ldr	r3, [pc, #356]	; (8002290 <HAL_RCC_ClockConfig+0x1c4>)
 800212a:	685b      	ldr	r3, [r3, #4]
 800212c:	4a58      	ldr	r2, [pc, #352]	; (8002290 <HAL_RCC_ClockConfig+0x1c4>)
 800212e:	f443 63e0 	orr.w	r3, r3, #1792	; 0x700
 8002132:	6053      	str	r3, [r2, #4]
 8002134:	687b      	ldr	r3, [r7, #4]
 8002136:	681b      	ldr	r3, [r3, #0]
 8002138:	f003 0308 	and.w	r3, r3, #8
 800213c:	2b00      	cmp	r3, #0
 800213e:	d005      	beq.n	800214c <HAL_RCC_ClockConfig+0x80>
 8002140:	4b53      	ldr	r3, [pc, #332]	; (8002290 <HAL_RCC_ClockConfig+0x1c4>)
 8002142:	685b      	ldr	r3, [r3, #4]
 8002144:	4a52      	ldr	r2, [pc, #328]	; (8002290 <HAL_RCC_ClockConfig+0x1c4>)
 8002146:	f443 5360 	orr.w	r3, r3, #14336	; 0x3800
 800214a:	6053      	str	r3, [r2, #4]
 800214c:	4b50      	ldr	r3, [pc, #320]	; (8002290 <HAL_RCC_ClockConfig+0x1c4>)
 800214e:	685b      	ldr	r3, [r3, #4]
 8002150:	f023 02f0 	bic.w	r2, r3, #240	; 0xf0
 8002154:	687b      	ldr	r3, [r7, #4]
 8002156:	689b      	ldr	r3, [r3, #8]
 8002158:	494d      	ldr	r1, [pc, #308]	; (8002290 <HAL_RCC_ClockConfig+0x1c4>)
 800215a:	4313      	orrs	r3, r2
 800215c:	604b      	str	r3, [r1, #4]
 800215e:	687b      	ldr	r3, [r7, #4]
 8002160:	681b      	ldr	r3, [r3, #0]
 8002162:	f003 0301 	and.w	r3, r3, #1
 8002166:	2b00      	cmp	r3, #0
 8002168:	d040      	beq.n	80021ec <HAL_RCC_ClockConfig+0x120>
 800216a:	687b      	ldr	r3, [r7, #4]
 800216c:	685b      	ldr	r3, [r3, #4]
 800216e:	2b01      	cmp	r3, #1
 8002170:	d107      	bne.n	8002182 <HAL_RCC_ClockConfig+0xb6>
 8002172:	4b47      	ldr	r3, [pc, #284]	; (8002290 <HAL_RCC_ClockConfig+0x1c4>)
 8002174:	681b      	ldr	r3, [r3, #0]
 8002176:	f403 3300 	and.w	r3, r3, #131072	; 0x20000
 800217a:	2b00      	cmp	r3, #0
 800217c:	d115      	bne.n	80021aa <HAL_RCC_ClockConfig+0xde>
 800217e:	2301      	movs	r3, #1
 8002180:	e07f      	b.n	8002282 <HAL_RCC_ClockConfig+0x1b6>
 8002182:	687b      	ldr	r3, [r7, #4]
 8002184:	685b      	ldr	r3, [r3, #4]
 8002186:	2b02      	cmp	r3, #2
 8002188:	d107      	bne.n	800219a <HAL_RCC_ClockConfig+0xce>
 800218a:	4b41      	ldr	r3, [pc, #260]	; (8002290 <HAL_RCC_ClockConfig+0x1c4>)
 800218c:	681b      	ldr	r3, [r3, #0]
 800218e:	f003 7300 	and.w	r3, r3, #33554432	; 0x2000000
 8002192:	2b00      	cmp	r3, #0
 8002194:	d109      	bne.n	80021aa <HAL_RCC_ClockConfig+0xde>
 8002196:	2301      	movs	r3, #1
 8002198:	e073      	b.n	8002282 <HAL_RCC_ClockConfig+0x1b6>
 800219a:	4b3d      	ldr	r3, [pc, #244]	; (8002290 <HAL_RCC_ClockConfig+0x1c4>)
 800219c:	681b      	ldr	r3, [r3, #0]
 800219e:	f003 0302 	and.w	r3, r3, #2
 80021a2:	2b00      	cmp	r3, #0
 80021a4:	d101      	bne.n	80021aa <HAL_RCC_ClockConfig+0xde>
 80021a6:	2301      	movs	r3, #1
 80021a8:	e06b      	b.n	8002282 <HAL_RCC_ClockConfig+0x1b6>
 80021aa:	4b39      	ldr	r3, [pc, #228]	; (8002290 <HAL_RCC_ClockConfig+0x1c4>)
 80021ac:	685b      	ldr	r3, [r3, #4]
 80021ae:	f023 0203 	bic.w	r2, r3, #3
 80021b2:	687b      	ldr	r3, [r7, #4]
 80021b4:	685b      	ldr	r3, [r3, #4]
 80021b6:	4936      	ldr	r1, [pc, #216]	; (8002290 <HAL_RCC_ClockConfig+0x1c4>)
 80021b8:	4313      	orrs	r3, r2
 80021ba:	604b      	str	r3, [r1, #4]
 80021bc:	f7ff fc16 	bl	80019ec <HAL_GetTick>
 80021c0:	60f8      	str	r0, [r7, #12]
 80021c2:	e00a      	b.n	80021da <HAL_RCC_ClockConfig+0x10e>
 80021c4:	f7ff fc12 	bl	80019ec <HAL_GetTick>
 80021c8:	4602      	mov	r2, r0
 80021ca:	68fb      	ldr	r3, [r7, #12]
 80021cc:	1ad3      	subs	r3, r2, r3
 80021ce:	f241 3288 	movw	r2, #5000	; 0x1388
 80021d2:	4293      	cmp	r3, r2
 80021d4:	d901      	bls.n	80021da <HAL_RCC_ClockConfig+0x10e>
 80021d6:	2303      	movs	r3, #3
 80021d8:	e053      	b.n	8002282 <HAL_RCC_ClockConfig+0x1b6>
 80021da:	4b2d      	ldr	r3, [pc, #180]	; (8002290 <HAL_RCC_ClockConfig+0x1c4>)
 80021dc:	685b      	ldr	r3, [r3, #4]
 80021de:	f003 020c 	and.w	r2, r3, #12
 80021e2:	687b      	ldr	r3, [r7, #4]
 80021e4:	685b      	ldr	r3, [r3, #4]
 80021e6:	009b      	lsls	r3, r3, #2
 80021e8:	429a      	cmp	r2, r3
 80021ea:	d1eb      	bne.n	80021c4 <HAL_RCC_ClockConfig+0xf8>
 80021ec:	4b27      	ldr	r3, [pc, #156]	; (800228c <HAL_RCC_ClockConfig+0x1c0>)
 80021ee:	681b      	ldr	r3, [r3, #0]
 80021f0:	f003 0307 	and.w	r3, r3, #7
 80021f4:	683a      	ldr	r2, [r7, #0]
 80021f6:	429a      	cmp	r2, r3
 80021f8:	d210      	bcs.n	800221c <HAL_RCC_ClockConfig+0x150>
 80021fa:	4b24      	ldr	r3, [pc, #144]	; (800228c <HAL_RCC_ClockConfig+0x1c0>)
 80021fc:	681b      	ldr	r3, [r3, #0]
 80021fe:	f023 0207 	bic.w	r2, r3, #7
 8002202:	4922      	ldr	r1, [pc, #136]	; (800228c <HAL_RCC_ClockConfig+0x1c0>)
 8002204:	683b      	ldr	r3, [r7, #0]
 8002206:	4313      	orrs	r3, r2
 8002208:	600b      	str	r3, [r1, #0]
 800220a:	4b20      	ldr	r3, [pc, #128]	; (800228c <HAL_RCC_ClockConfig+0x1c0>)
 800220c:	681b      	ldr	r3, [r3, #0]
 800220e:	f003 0307 	and.w	r3, r3, #7
 8002212:	683a      	ldr	r2, [r7, #0]
 8002214:	429a      	cmp	r2, r3
 8002216:	d001      	beq.n	800221c <HAL_RCC_ClockConfig+0x150>
 8002218:	2301      	movs	r3, #1
 800221a:	e032      	b.n	8002282 <HAL_RCC_ClockConfig+0x1b6>
 800221c:	687b      	ldr	r3, [r7, #4]
 800221e:	681b      	ldr	r3, [r3, #0]
 8002220:	f003 0304 	and.w	r3, r3, #4
 8002224:	2b00      	cmp	r3, #0
 8002226:	d008      	beq.n	800223a <HAL_RCC_ClockConfig+0x16e>
 8002228:	4b19      	ldr	r3, [pc, #100]	; (8002290 <HAL_RCC_ClockConfig+0x1c4>)
 800222a:	685b      	ldr	r3, [r3, #4]
 800222c:	f423 62e0 	bic.w	r2, r3, #1792	; 0x700
 8002230:	687b      	ldr	r3, [r7, #4]
 8002232:	68db      	ldr	r3, [r3, #12]
 8002234:	4916      	ldr	r1, [pc, #88]	; (8002290 <HAL_RCC_ClockConfig+0x1c4>)
 8002236:	4313      	orrs	r3, r2
 8002238:	604b      	str	r3, [r1, #4]
 800223a:	687b      	ldr	r3, [r7, #4]
 800223c:	681b      	ldr	r3, [r3, #0]
 800223e:	f003 0308 	and.w	r3, r3, #8
 8002242:	2b00      	cmp	r3, #0
 8002244:	d009      	beq.n	800225a <HAL_RCC_ClockConfig+0x18e>
 8002246:	4b12      	ldr	r3, [pc, #72]	; (8002290 <HAL_RCC_ClockConfig+0x1c4>)
 8002248:	685b      	ldr	r3, [r3, #4]
 800224a:	f423 5260 	bic.w	r2, r3, #14336	; 0x3800
 800224e:	687b      	ldr	r3, [r7, #4]
 8002250:	691b      	ldr	r3, [r3, #16]
 8002252:	00db      	lsls	r3, r3, #3
 8002254:	490e      	ldr	r1, [pc, #56]	; (8002290 <HAL_RCC_ClockConfig+0x1c4>)
 8002256:	4313      	orrs	r3, r2
 8002258:	604b      	str	r3, [r1, #4]
 800225a:	f000 f821 	bl	80022a0 <HAL_RCC_GetSysClockFreq>
 800225e:	4602      	mov	r2, r0
 8002260:	4b0b      	ldr	r3, [pc, #44]	; (8002290 <HAL_RCC_ClockConfig+0x1c4>)
 8002262:	685b      	ldr	r3, [r3, #4]
 8002264:	091b      	lsrs	r3, r3, #4
 8002266:	f003 030f 	and.w	r3, r3, #15
 800226a:	490a      	ldr	r1, [pc, #40]	; (8002294 <HAL_RCC_ClockConfig+0x1c8>)
 800226c:	5ccb      	ldrb	r3, [r1, r3]
 800226e:	fa22 f303 	lsr.w	r3, r2, r3
 8002272:	4a09      	ldr	r2, [pc, #36]	; (8002298 <HAL_RCC_ClockConfig+0x1cc>)
 8002274:	6013      	str	r3, [r2, #0]
 8002276:	4b09      	ldr	r3, [pc, #36]	; (800229c <HAL_RCC_ClockConfig+0x1d0>)
 8002278:	681b      	ldr	r3, [r3, #0]
 800227a:	4618      	mov	r0, r3
 800227c:	f7ff fb74 	bl	8001968 <HAL_InitTick>
 8002280:	2300      	movs	r3, #0
 8002282:	4618      	mov	r0, r3
 8002284:	3710      	adds	r7, #16
 8002286:	46bd      	mov	sp, r7
 8002288:	bd80      	pop	{r7, pc}
 800228a:	bf00      	nop
 800228c:	40022000 	.word	0x40022000
 8002290:	40021000 	.word	0x40021000
 8002294:	08003b60 	.word	0x08003b60
 8002298:	20000000 	.word	0x20000000
 800229c:	20000004 	.word	0x20000004

080022a0 <HAL_RCC_GetSysClockFreq>:
 80022a0:	b480      	push	{r7}
 80022a2:	b087      	sub	sp, #28
 80022a4:	af00      	add	r7, sp, #0
 80022a6:	2300      	movs	r3, #0
 80022a8:	60fb      	str	r3, [r7, #12]
 80022aa:	2300      	movs	r3, #0
 80022ac:	60bb      	str	r3, [r7, #8]
 80022ae:	2300      	movs	r3, #0
 80022b0:	617b      	str	r3, [r7, #20]
 80022b2:	2300      	movs	r3, #0
 80022b4:	607b      	str	r3, [r7, #4]
 80022b6:	2300      	movs	r3, #0
 80022b8:	613b      	str	r3, [r7, #16]
 80022ba:	4b1e      	ldr	r3, [pc, #120]	; (8002334 <HAL_RCC_GetSysClockFreq+0x94>)
 80022bc:	685b      	ldr	r3, [r3, #4]
 80022be:	60fb      	str	r3, [r7, #12]
 80022c0:	68fb      	ldr	r3, [r7, #12]
 80022c2:	f003 030c 	and.w	r3, r3, #12
 80022c6:	2b04      	cmp	r3, #4
 80022c8:	d002      	beq.n	80022d0 <HAL_RCC_GetSysClockFreq+0x30>
 80022ca:	2b08      	cmp	r3, #8
 80022cc:	d003      	beq.n	80022d6 <HAL_RCC_GetSysClockFreq+0x36>
 80022ce:	e027      	b.n	8002320 <HAL_RCC_GetSysClockFreq+0x80>
 80022d0:	4b19      	ldr	r3, [pc, #100]	; (8002338 <HAL_RCC_GetSysClockFreq+0x98>)
 80022d2:	613b      	str	r3, [r7, #16]
 80022d4:	e027      	b.n	8002326 <HAL_RCC_GetSysClockFreq+0x86>
 80022d6:	68fb      	ldr	r3, [r7, #12]
 80022d8:	0c9b      	lsrs	r3, r3, #18
 80022da:	f003 030f 	and.w	r3, r3, #15
 80022de:	4a17      	ldr	r2, [pc, #92]	; (800233c <HAL_RCC_GetSysClockFreq+0x9c>)
 80022e0:	5cd3      	ldrb	r3, [r2, r3]
 80022e2:	607b      	str	r3, [r7, #4]
 80022e4:	68fb      	ldr	r3, [r7, #12]
 80022e6:	f403 3380 	and.w	r3, r3, #65536	; 0x10000
 80022ea:	2b00      	cmp	r3, #0
 80022ec:	d010      	beq.n	8002310 <HAL_RCC_GetSysClockFreq+0x70>
 80022ee:	4b11      	ldr	r3, [pc, #68]	; (8002334 <HAL_RCC_GetSysClockFreq+0x94>)
 80022f0:	685b      	ldr	r3, [r3, #4]
 80022f2:	0c5b      	lsrs	r3, r3, #17
 80022f4:	f003 0301 	and.w	r3, r3, #1
 80022f8:	4a11      	ldr	r2, [pc, #68]	; (8002340 <HAL_RCC_GetSysClockFreq+0xa0>)
 80022fa:	5cd3      	ldrb	r3, [r2, r3]
 80022fc:	60bb      	str	r3, [r7, #8]
 80022fe:	687b      	ldr	r3, [r7, #4]
 8002300:	4a0d      	ldr	r2, [pc, #52]	; (8002338 <HAL_RCC_GetSysClockFreq+0x98>)
 8002302:	fb03 f202 	mul.w	r2, r3, r2
 8002306:	68bb      	ldr	r3, [r7, #8]
 8002308:	fbb2 f3f3 	udiv	r3, r2, r3
 800230c:	617b      	str	r3, [r7, #20]
 800230e:	e004      	b.n	800231a <HAL_RCC_GetSysClockFreq+0x7a>
 8002310:	687b      	ldr	r3, [r7, #4]
 8002312:	4a0c      	ldr	r2, [pc, #48]	; (8002344 <HAL_RCC_GetSysClockFreq+0xa4>)
 8002314:	fb02 f303 	mul.w	r3, r2, r3
 8002318:	617b      	str	r3, [r7, #20]
 800231a:	697b      	ldr	r3, [r7, #20]
 800231c:	613b      	str	r3, [r7, #16]
 800231e:	e002      	b.n	8002326 <HAL_RCC_GetSysClockFreq+0x86>
 8002320:	4b05      	ldr	r3, [pc, #20]	; (8002338 <HAL_RCC_GetSysClockFreq+0x98>)
 8002322:	613b      	str	r3, [r7, #16]
 8002324:	bf00      	nop
 8002326:	693b      	ldr	r3, [r7, #16]
 8002328:	4618      	mov	r0, r3
 800232a:	371c      	adds	r7, #28
 800232c:	46bd      	mov	sp, r7
 800232e:	bc80      	pop	{r7}
 8002330:	4770      	bx	lr
 8002332:	bf00      	nop
 8002334:	40021000 	.word	0x40021000
 8002338:	007a1200 	.word	0x007a1200
 800233c:	08003b70 	.word	0x08003b70
 8002340:	08003b80 	.word	0x08003b80
 8002344:	003d0900 	.word	0x003d0900

08002348 <RCC_Delay>:
 8002348:	b480      	push	{r7}
 800234a:	b085      	sub	sp, #20
 800234c:	af00      	add	r7, sp, #0
 800234e:	6078      	str	r0, [r7, #4]
 8002350:	4b0a      	ldr	r3, [pc, #40]	; (800237c <RCC_Delay+0x34>)
 8002352:	681b      	ldr	r3, [r3, #0]
 8002354:	4a0a      	ldr	r2, [pc, #40]	; (8002380 <RCC_Delay+0x38>)
 8002356:	fba2 2303 	umull	r2, r3, r2, r3
 800235a:	0a5b      	lsrs	r3, r3, #9
 800235c:	687a      	ldr	r2, [r7, #4]
 800235e:	fb02 f303 	mul.w	r3, r2, r3
 8002362:	60fb      	str	r3, [r7, #12]
 8002364:	bf00      	nop
 8002366:	68fb      	ldr	r3, [r7, #12]
 8002368:	1e5a      	subs	r2, r3, #1
 800236a:	60fa      	str	r2, [r7, #12]
 800236c:	2b00      	cmp	r3, #0
 800236e:	d1f9      	bne.n	8002364 <RCC_Delay+0x1c>
 8002370:	bf00      	nop
 8002372:	bf00      	nop
 8002374:	3714      	adds	r7, #20
 8002376:	46bd      	mov	sp, r7
 8002378:	bc80      	pop	{r7}
 800237a:	4770      	bx	lr
 800237c:	20000000 	.word	0x20000000
 8002380:	10624dd3 	.word	0x10624dd3

08002384 <memset>:
 8002384:	4603      	mov	r3, r0
 8002386:	4402      	add	r2, r0
 8002388:	4293      	cmp	r3, r2
 800238a:	d100      	bne.n	800238e <memset+0xa>
 800238c:	4770      	bx	lr
 800238e:	f803 1b01 	strb.w	r1, [r3], #1
 8002392:	e7f9      	b.n	8002388 <memset+0x4>

08002394 <__errno>:
 8002394:	4b01      	ldr	r3, [pc, #4]	; (800239c <__errno+0x8>)
 8002396:	6818      	ldr	r0, [r3, #0]
 8002398:	4770      	bx	lr
 800239a:	bf00      	nop
 800239c:	20000058 	.word	0x20000058

080023a0 <__libc_init_array>:
 80023a0:	b570      	push	{r4, r5, r6, lr}
 80023a2:	2600      	movs	r6, #0
 80023a4:	4d0c      	ldr	r5, [pc, #48]	; (80023d8 <__libc_init_array+0x38>)
 80023a6:	4c0d      	ldr	r4, [pc, #52]	; (80023dc <__libc_init_array+0x3c>)
 80023a8:	1b64      	subs	r4, r4, r5
 80023aa:	10a4      	asrs	r4, r4, #2
 80023ac:	42a6      	cmp	r6, r4
 80023ae:	d109      	bne.n	80023c4 <__libc_init_array+0x24>
 80023b0:	f001 fbca 	bl	8003b48 <_init>
 80023b4:	2600      	movs	r6, #0
 80023b6:	4d0a      	ldr	r5, [pc, #40]	; (80023e0 <__libc_init_array+0x40>)
 80023b8:	4c0a      	ldr	r4, [pc, #40]	; (80023e4 <__libc_init_array+0x44>)
 80023ba:	1b64      	subs	r4, r4, r5
 80023bc:	10a4      	asrs	r4, r4, #2
 80023be:	42a6      	cmp	r6, r4
 80023c0:	d105      	bne.n	80023ce <__libc_init_array+0x2e>
 80023c2:	bd70      	pop	{r4, r5, r6, pc}
 80023c4:	f855 3b04 	ldr.w	r3, [r5], #4
 80023c8:	4798      	blx	r3
 80023ca:	3601      	adds	r6, #1
 80023cc:	e7ee      	b.n	80023ac <__libc_init_array+0xc>
 80023ce:	f855 3b04 	ldr.w	r3, [r5], #4
 80023d2:	4798      	blx	r3
 80023d4:	3601      	adds	r6, #1
 80023d6:	e7f2      	b.n	80023be <__libc_init_array+0x1e>
 80023d8:	08003d60 	.word	0x08003d60
 80023dc:	08003d60 	.word	0x08003d60
 80023e0:	08003d60 	.word	0x08003d60
 80023e4:	08003d64 	.word	0x08003d64

080023e8 <acos>:
 80023e8:	b5f8      	push	{r3, r4, r5, r6, r7, lr}
 80023ea:	4604      	mov	r4, r0
 80023ec:	460d      	mov	r5, r1
 80023ee:	f000 fb2f 	bl	8002a50 <__ieee754_acos>
 80023f2:	4622      	mov	r2, r4
 80023f4:	4606      	mov	r6, r0
 80023f6:	460f      	mov	r7, r1
 80023f8:	462b      	mov	r3, r5
 80023fa:	4620      	mov	r0, r4
 80023fc:	4629      	mov	r1, r5
 80023fe:	f7fe fbb1 	bl	8000b64 <__aeabi_dcmpun>
 8002402:	b988      	cbnz	r0, 8002428 <acos+0x40>
 8002404:	4620      	mov	r0, r4
 8002406:	4629      	mov	r1, r5
 8002408:	f000 f880 	bl	800250c <fabs>
 800240c:	2200      	movs	r2, #0
 800240e:	4b08      	ldr	r3, [pc, #32]	; (8002430 <acos+0x48>)
 8002410:	f7fe fb9e 	bl	8000b50 <__aeabi_dcmpgt>
 8002414:	b140      	cbz	r0, 8002428 <acos+0x40>
 8002416:	f7ff ffbd 	bl	8002394 <__errno>
 800241a:	2321      	movs	r3, #33	; 0x21
 800241c:	6003      	str	r3, [r0, #0]
 800241e:	4805      	ldr	r0, [pc, #20]	; (8002434 <acos+0x4c>)
 8002420:	e8bd 40f8 	ldmia.w	sp!, {r3, r4, r5, r6, r7, lr}
 8002424:	f000 b8bc 	b.w	80025a0 <nan>
 8002428:	4630      	mov	r0, r6
 800242a:	4639      	mov	r1, r7
 800242c:	bdf8      	pop	{r3, r4, r5, r6, r7, pc}
 800242e:	bf00      	nop
 8002430:	3ff00000 	.word	0x3ff00000
 8002434:	08003b82 	.word	0x08003b82

08002438 <sqrt>:
 8002438:	b5f8      	push	{r3, r4, r5, r6, r7, lr}
 800243a:	4606      	mov	r6, r0
 800243c:	460f      	mov	r7, r1
 800243e:	f000 f8b5 	bl	80025ac <__ieee754_sqrt>
 8002442:	4632      	mov	r2, r6
 8002444:	4604      	mov	r4, r0
 8002446:	460d      	mov	r5, r1
 8002448:	463b      	mov	r3, r7
 800244a:	4630      	mov	r0, r6
 800244c:	4639      	mov	r1, r7
 800244e:	f7fe fb89 	bl	8000b64 <__aeabi_dcmpun>
 8002452:	b990      	cbnz	r0, 800247a <sqrt+0x42>
 8002454:	2200      	movs	r2, #0
 8002456:	2300      	movs	r3, #0
 8002458:	4630      	mov	r0, r6
 800245a:	4639      	mov	r1, r7
 800245c:	f7fe fb5a 	bl	8000b14 <__aeabi_dcmplt>
 8002460:	b158      	cbz	r0, 800247a <sqrt+0x42>
 8002462:	f7ff ff97 	bl	8002394 <__errno>
 8002466:	2321      	movs	r3, #33	; 0x21
 8002468:	2200      	movs	r2, #0
 800246a:	6003      	str	r3, [r0, #0]
 800246c:	2300      	movs	r3, #0
 800246e:	4610      	mov	r0, r2
 8002470:	4619      	mov	r1, r3
 8002472:	f7fe fa07 	bl	8000884 <__aeabi_ddiv>
 8002476:	4604      	mov	r4, r0
 8002478:	460d      	mov	r5, r1
 800247a:	4620      	mov	r0, r4
 800247c:	4629      	mov	r1, r5
 800247e:	bdf8      	pop	{r3, r4, r5, r6, r7, pc}

08002480 <cos>:
 8002480:	b530      	push	{r4, r5, lr}
 8002482:	4a20      	ldr	r2, [pc, #128]	; (8002504 <cos+0x84>)
 8002484:	f021 4300 	bic.w	r3, r1, #2147483648	; 0x80000000
 8002488:	4293      	cmp	r3, r2
 800248a:	b087      	sub	sp, #28
 800248c:	dc06      	bgt.n	800249c <cos+0x1c>
 800248e:	2200      	movs	r2, #0
 8002490:	2300      	movs	r3, #0
 8002492:	b007      	add	sp, #28
 8002494:	e8bd 4030 	ldmia.w	sp!, {r4, r5, lr}
 8002498:	f000 b962 	b.w	8002760 <__kernel_cos>
 800249c:	4a1a      	ldr	r2, [pc, #104]	; (8002508 <cos+0x88>)
 800249e:	4293      	cmp	r3, r2
 80024a0:	dd05      	ble.n	80024ae <cos+0x2e>
 80024a2:	4602      	mov	r2, r0
 80024a4:	460b      	mov	r3, r1
 80024a6:	f7fd ff0b 	bl	80002c0 <__aeabi_dsub>
 80024aa:	b007      	add	sp, #28
 80024ac:	bd30      	pop	{r4, r5, pc}
 80024ae:	aa02      	add	r2, sp, #8
 80024b0:	f000 fd1a 	bl	8002ee8 <__ieee754_rem_pio2>
 80024b4:	f000 0003 	and.w	r0, r0, #3
 80024b8:	2801      	cmp	r0, #1
 80024ba:	d009      	beq.n	80024d0 <cos+0x50>
 80024bc:	2802      	cmp	r0, #2
 80024be:	d011      	beq.n	80024e4 <cos+0x64>
 80024c0:	b9b8      	cbnz	r0, 80024f2 <cos+0x72>
 80024c2:	e9dd 2304 	ldrd	r2, r3, [sp, #16]
 80024c6:	e9dd 0102 	ldrd	r0, r1, [sp, #8]
 80024ca:	f000 f949 	bl	8002760 <__kernel_cos>
 80024ce:	e7ec      	b.n	80024aa <cos+0x2a>
 80024d0:	9000      	str	r0, [sp, #0]
 80024d2:	e9dd 2304 	ldrd	r2, r3, [sp, #16]
 80024d6:	e9dd 0102 	ldrd	r0, r1, [sp, #8]
 80024da:	f000 fa01 	bl	80028e0 <__kernel_sin>
 80024de:	f101 4100 	add.w	r1, r1, #2147483648	; 0x80000000
 80024e2:	e7e2      	b.n	80024aa <cos+0x2a>
 80024e4:	e9dd 2304 	ldrd	r2, r3, [sp, #16]
 80024e8:	e9dd 0102 	ldrd	r0, r1, [sp, #8]
 80024ec:	f000 f938 	bl	8002760 <__kernel_cos>
 80024f0:	e7f5      	b.n	80024de <cos+0x5e>
 80024f2:	2301      	movs	r3, #1
 80024f4:	e9dd 0102 	ldrd	r0, r1, [sp, #8]
 80024f8:	9300      	str	r3, [sp, #0]
 80024fa:	e9dd 2304 	ldrd	r2, r3, [sp, #16]
 80024fe:	f000 f9ef 	bl	80028e0 <__kernel_sin>
 8002502:	e7d2      	b.n	80024aa <cos+0x2a>
 8002504:	3fe921fb 	.word	0x3fe921fb
 8002508:	7fefffff 	.word	0x7fefffff

0800250c <fabs>:
 800250c:	f021 4300 	bic.w	r3, r1, #2147483648	; 0x80000000
 8002510:	4619      	mov	r1, r3
 8002512:	4770      	bx	lr

08002514 <sin>:
 8002514:	b530      	push	{r4, r5, lr}
 8002516:	4a20      	ldr	r2, [pc, #128]	; (8002598 <sin+0x84>)
 8002518:	f021 4300 	bic.w	r3, r1, #2147483648	; 0x80000000
 800251c:	4293      	cmp	r3, r2
 800251e:	b087      	sub	sp, #28
 8002520:	dc06      	bgt.n	8002530 <sin+0x1c>
 8002522:	2300      	movs	r3, #0
 8002524:	2200      	movs	r2, #0
 8002526:	9300      	str	r3, [sp, #0]
 8002528:	2300      	movs	r3, #0
 800252a:	f000 f9d9 	bl	80028e0 <__kernel_sin>
 800252e:	e006      	b.n	800253e <sin+0x2a>
 8002530:	4a1a      	ldr	r2, [pc, #104]	; (800259c <sin+0x88>)
 8002532:	4293      	cmp	r3, r2
 8002534:	dd05      	ble.n	8002542 <sin+0x2e>
 8002536:	4602      	mov	r2, r0
 8002538:	460b      	mov	r3, r1
 800253a:	f7fd fec1 	bl	80002c0 <__aeabi_dsub>
 800253e:	b007      	add	sp, #28
 8002540:	bd30      	pop	{r4, r5, pc}
 8002542:	aa02      	add	r2, sp, #8
 8002544:	f000 fcd0 	bl	8002ee8 <__ieee754_rem_pio2>
 8002548:	f000 0003 	and.w	r0, r0, #3
 800254c:	2801      	cmp	r0, #1
 800254e:	d009      	beq.n	8002564 <sin+0x50>
 8002550:	2802      	cmp	r0, #2
 8002552:	d00e      	beq.n	8002572 <sin+0x5e>
 8002554:	b9c0      	cbnz	r0, 8002588 <sin+0x74>
 8002556:	e9dd 0102 	ldrd	r0, r1, [sp, #8]
 800255a:	2301      	movs	r3, #1
 800255c:	9300      	str	r3, [sp, #0]
 800255e:	e9dd 2304 	ldrd	r2, r3, [sp, #16]
 8002562:	e7e2      	b.n	800252a <sin+0x16>
 8002564:	e9dd 2304 	ldrd	r2, r3, [sp, #16]
 8002568:	e9dd 0102 	ldrd	r0, r1, [sp, #8]
 800256c:	f000 f8f8 	bl	8002760 <__kernel_cos>
 8002570:	e7e5      	b.n	800253e <sin+0x2a>
 8002572:	2301      	movs	r3, #1
 8002574:	e9dd 0102 	ldrd	r0, r1, [sp, #8]
 8002578:	9300      	str	r3, [sp, #0]
 800257a:	e9dd 2304 	ldrd	r2, r3, [sp, #16]
 800257e:	f000 f9af 	bl	80028e0 <__kernel_sin>
 8002582:	f101 4100 	add.w	r1, r1, #2147483648	; 0x80000000
 8002586:	e7da      	b.n	800253e <sin+0x2a>
 8002588:	e9dd 2304 	ldrd	r2, r3, [sp, #16]
 800258c:	e9dd 0102 	ldrd	r0, r1, [sp, #8]
 8002590:	f000 f8e6 	bl	8002760 <__kernel_cos>
 8002594:	e7f5      	b.n	8002582 <sin+0x6e>
 8002596:	bf00      	nop
 8002598:	3fe921fb 	.word	0x3fe921fb
 800259c:	7fefffff 	.word	0x7fefffff

080025a0 <nan>:
 80025a0:	2000      	movs	r0, #0
 80025a2:	4901      	ldr	r1, [pc, #4]	; (80025a8 <nan+0x8>)
 80025a4:	4770      	bx	lr
 80025a6:	bf00      	nop
 80025a8:	7ff80000 	.word	0x7ff80000

080025ac <__ieee754_sqrt>:
 80025ac:	f8df c1a0 	ldr.w	ip, [pc, #416]	; 8002750 <__ieee754_sqrt+0x1a4>
 80025b0:	e92d 4ff8 	stmdb	sp!, {r3, r4, r5, r6, r7, r8, r9, sl, fp, lr}
 80025b4:	ea3c 0c01 	bics.w	ip, ip, r1
 80025b8:	460b      	mov	r3, r1
 80025ba:	4606      	mov	r6, r0
 80025bc:	460d      	mov	r5, r1
 80025be:	460a      	mov	r2, r1
 80025c0:	4604      	mov	r4, r0
 80025c2:	d10e      	bne.n	80025e2 <__ieee754_sqrt+0x36>
 80025c4:	4602      	mov	r2, r0
 80025c6:	f7fe f833 	bl	8000630 <__aeabi_dmul>
 80025ca:	4602      	mov	r2, r0
 80025cc:	460b      	mov	r3, r1
 80025ce:	4630      	mov	r0, r6
 80025d0:	4629      	mov	r1, r5
 80025d2:	f7fd fe77 	bl	80002c4 <__adddf3>
 80025d6:	4606      	mov	r6, r0
 80025d8:	460d      	mov	r5, r1
 80025da:	4630      	mov	r0, r6
 80025dc:	4629      	mov	r1, r5
 80025de:	e8bd 8ff8 	ldmia.w	sp!, {r3, r4, r5, r6, r7, r8, r9, sl, fp, pc}
 80025e2:	2900      	cmp	r1, #0
 80025e4:	dc0d      	bgt.n	8002602 <__ieee754_sqrt+0x56>
 80025e6:	f021 4c00 	bic.w	ip, r1, #2147483648	; 0x80000000
 80025ea:	ea5c 0c00 	orrs.w	ip, ip, r0
 80025ee:	d0f4      	beq.n	80025da <__ieee754_sqrt+0x2e>
 80025f0:	b139      	cbz	r1, 8002602 <__ieee754_sqrt+0x56>
 80025f2:	4602      	mov	r2, r0
 80025f4:	f7fd fe64 	bl	80002c0 <__aeabi_dsub>
 80025f8:	4602      	mov	r2, r0
 80025fa:	460b      	mov	r3, r1
 80025fc:	f7fe f942 	bl	8000884 <__aeabi_ddiv>
 8002600:	e7e9      	b.n	80025d6 <__ieee754_sqrt+0x2a>
 8002602:	1512      	asrs	r2, r2, #20
 8002604:	f000 8089 	beq.w	800271a <__ieee754_sqrt+0x16e>
 8002608:	2500      	movs	r5, #0
 800260a:	f3c3 0313 	ubfx	r3, r3, #0, #20
 800260e:	f2a2 36ff 	subw	r6, r2, #1023	; 0x3ff
 8002612:	f443 1380 	orr.w	r3, r3, #1048576	; 0x100000
 8002616:	07d2      	lsls	r2, r2, #31
 8002618:	bf5c      	itt	pl
 800261a:	005b      	lslpl	r3, r3, #1
 800261c:	eb03 73d4 	addpl.w	r3, r3, r4, lsr #31
 8002620:	ea4f 0343 	mov.w	r3, r3, lsl #1
 8002624:	bf58      	it	pl
 8002626:	0064      	lslpl	r4, r4, #1
 8002628:	eb03 73d4 	add.w	r3, r3, r4, lsr #31
 800262c:	0062      	lsls	r2, r4, #1
 800262e:	2016      	movs	r0, #22
 8002630:	4629      	mov	r1, r5
 8002632:	f44f 1400 	mov.w	r4, #2097152	; 0x200000
 8002636:	1076      	asrs	r6, r6, #1
 8002638:	190f      	adds	r7, r1, r4
 800263a:	429f      	cmp	r7, r3
 800263c:	bfde      	ittt	le
 800263e:	1bdb      	suble	r3, r3, r7
 8002640:	1939      	addle	r1, r7, r4
 8002642:	192d      	addle	r5, r5, r4
 8002644:	005b      	lsls	r3, r3, #1
 8002646:	3801      	subs	r0, #1
 8002648:	eb03 73d2 	add.w	r3, r3, r2, lsr #31
 800264c:	ea4f 0454 	mov.w	r4, r4, lsr #1
 8002650:	ea4f 0242 	mov.w	r2, r2, lsl #1
 8002654:	d1f0      	bne.n	8002638 <__ieee754_sqrt+0x8c>
 8002656:	4604      	mov	r4, r0
 8002658:	2720      	movs	r7, #32
 800265a:	f04f 4c00 	mov.w	ip, #2147483648	; 0x80000000
 800265e:	428b      	cmp	r3, r1
 8002660:	eb0c 0e00 	add.w	lr, ip, r0
 8002664:	dc02      	bgt.n	800266c <__ieee754_sqrt+0xc0>
 8002666:	d113      	bne.n	8002690 <__ieee754_sqrt+0xe4>
 8002668:	4596      	cmp	lr, r2
 800266a:	d811      	bhi.n	8002690 <__ieee754_sqrt+0xe4>
 800266c:	f1be 0f00 	cmp.w	lr, #0
 8002670:	eb0e 000c 	add.w	r0, lr, ip
 8002674:	da56      	bge.n	8002724 <__ieee754_sqrt+0x178>
 8002676:	2800      	cmp	r0, #0
 8002678:	db54      	blt.n	8002724 <__ieee754_sqrt+0x178>
 800267a:	f101 0801 	add.w	r8, r1, #1
 800267e:	1a5b      	subs	r3, r3, r1
 8002680:	4641      	mov	r1, r8
 8002682:	4596      	cmp	lr, r2
 8002684:	bf88      	it	hi
 8002686:	f103 33ff 	addhi.w	r3, r3, #4294967295
 800268a:	eba2 020e 	sub.w	r2, r2, lr
 800268e:	4464      	add	r4, ip
 8002690:	005b      	lsls	r3, r3, #1
 8002692:	3f01      	subs	r7, #1
 8002694:	eb03 73d2 	add.w	r3, r3, r2, lsr #31
 8002698:	ea4f 0c5c 	mov.w	ip, ip, lsr #1
 800269c:	ea4f 0242 	mov.w	r2, r2, lsl #1
 80026a0:	d1dd      	bne.n	800265e <__ieee754_sqrt+0xb2>
 80026a2:	4313      	orrs	r3, r2
 80026a4:	d01b      	beq.n	80026de <__ieee754_sqrt+0x132>
 80026a6:	f8df a0ac 	ldr.w	sl, [pc, #172]	; 8002754 <__ieee754_sqrt+0x1a8>
 80026aa:	f8df b0ac 	ldr.w	fp, [pc, #172]	; 8002758 <__ieee754_sqrt+0x1ac>
 80026ae:	e9da 0100 	ldrd	r0, r1, [sl]
 80026b2:	e9db 2300 	ldrd	r2, r3, [fp]
 80026b6:	f7fd fe03 	bl	80002c0 <__aeabi_dsub>
 80026ba:	e9da 8900 	ldrd	r8, r9, [sl]
 80026be:	4602      	mov	r2, r0
 80026c0:	460b      	mov	r3, r1
 80026c2:	4640      	mov	r0, r8
 80026c4:	4649      	mov	r1, r9
 80026c6:	f7fe fa2f 	bl	8000b28 <__aeabi_dcmple>
 80026ca:	b140      	cbz	r0, 80026de <__ieee754_sqrt+0x132>
 80026cc:	e9da 0100 	ldrd	r0, r1, [sl]
 80026d0:	e9db 2300 	ldrd	r2, r3, [fp]
 80026d4:	f1b4 3fff 	cmp.w	r4, #4294967295
 80026d8:	d126      	bne.n	8002728 <__ieee754_sqrt+0x17c>
 80026da:	463c      	mov	r4, r7
 80026dc:	3501      	adds	r5, #1
 80026de:	106b      	asrs	r3, r5, #1
 80026e0:	0864      	lsrs	r4, r4, #1
 80026e2:	f103 537f 	add.w	r3, r3, #1069547520	; 0x3fc00000
 80026e6:	07ea      	lsls	r2, r5, #31
 80026e8:	f503 1300 	add.w	r3, r3, #2097152	; 0x200000
 80026ec:	bf48      	it	mi
 80026ee:	f044 4400 	orrmi.w	r4, r4, #2147483648	; 0x80000000
 80026f2:	4620      	mov	r0, r4
 80026f4:	eb03 5106 	add.w	r1, r3, r6, lsl #20
 80026f8:	e76d      	b.n	80025d6 <__ieee754_sqrt+0x2a>
 80026fa:	0ae3      	lsrs	r3, r4, #11
 80026fc:	3915      	subs	r1, #21
 80026fe:	0564      	lsls	r4, r4, #21
 8002700:	2b00      	cmp	r3, #0
 8002702:	d0fa      	beq.n	80026fa <__ieee754_sqrt+0x14e>
 8002704:	02d8      	lsls	r0, r3, #11
 8002706:	d50a      	bpl.n	800271e <__ieee754_sqrt+0x172>
 8002708:	f1c2 0020 	rsb	r0, r2, #32
 800270c:	fa24 f000 	lsr.w	r0, r4, r0
 8002710:	1e55      	subs	r5, r2, #1
 8002712:	4094      	lsls	r4, r2
 8002714:	4303      	orrs	r3, r0
 8002716:	1b4a      	subs	r2, r1, r5
 8002718:	e776      	b.n	8002608 <__ieee754_sqrt+0x5c>
 800271a:	4611      	mov	r1, r2
 800271c:	e7f0      	b.n	8002700 <__ieee754_sqrt+0x154>
 800271e:	005b      	lsls	r3, r3, #1
 8002720:	3201      	adds	r2, #1
 8002722:	e7ef      	b.n	8002704 <__ieee754_sqrt+0x158>
 8002724:	4688      	mov	r8, r1
 8002726:	e7aa      	b.n	800267e <__ieee754_sqrt+0xd2>
 8002728:	f7fd fdcc 	bl	80002c4 <__adddf3>
 800272c:	e9da 8900 	ldrd	r8, r9, [sl]
 8002730:	4602      	mov	r2, r0
 8002732:	460b      	mov	r3, r1
 8002734:	4640      	mov	r0, r8
 8002736:	4649      	mov	r1, r9
 8002738:	f7fe f9ec 	bl	8000b14 <__aeabi_dcmplt>
 800273c:	b120      	cbz	r0, 8002748 <__ieee754_sqrt+0x19c>
 800273e:	1ca1      	adds	r1, r4, #2
 8002740:	bf08      	it	eq
 8002742:	3501      	addeq	r5, #1
 8002744:	3402      	adds	r4, #2
 8002746:	e7ca      	b.n	80026de <__ieee754_sqrt+0x132>
 8002748:	3401      	adds	r4, #1
 800274a:	f024 0401 	bic.w	r4, r4, #1
 800274e:	e7c6      	b.n	80026de <__ieee754_sqrt+0x132>
 8002750:	7ff00000 	.word	0x7ff00000
 8002754:	20000060 	.word	0x20000060
 8002758:	20000068 	.word	0x20000068
 800275c:	00000000 	.word	0x00000000

08002760 <__kernel_cos>:
 8002760:	e92d 4ff7 	stmdb	sp!, {r0, r1, r2, r4, r5, r6, r7, r8, r9, sl, fp, lr}
 8002764:	f021 4600 	bic.w	r6, r1, #2147483648	; 0x80000000
 8002768:	f1b6 5f79 	cmp.w	r6, #1044381696	; 0x3e400000
 800276c:	4680      	mov	r8, r0
 800276e:	460f      	mov	r7, r1
 8002770:	e9cd 2300 	strd	r2, r3, [sp]
 8002774:	da04      	bge.n	8002780 <__kernel_cos+0x20>
 8002776:	f7fe fa0b 	bl	8000b90 <__aeabi_d2iz>
 800277a:	2800      	cmp	r0, #0
 800277c:	f000 8086 	beq.w	800288c <__kernel_cos+0x12c>
 8002780:	4642      	mov	r2, r8
 8002782:	463b      	mov	r3, r7
 8002784:	4640      	mov	r0, r8
 8002786:	4639      	mov	r1, r7
 8002788:	f7fd ff52 	bl	8000630 <__aeabi_dmul>
 800278c:	2200      	movs	r2, #0
 800278e:	4b4e      	ldr	r3, [pc, #312]	; (80028c8 <__kernel_cos+0x168>)
 8002790:	4604      	mov	r4, r0
 8002792:	460d      	mov	r5, r1
 8002794:	f7fd ff4c 	bl	8000630 <__aeabi_dmul>
 8002798:	a33f      	add	r3, pc, #252	; (adr r3, 8002898 <__kernel_cos+0x138>)
 800279a:	e9d3 2300 	ldrd	r2, r3, [r3]
 800279e:	4682      	mov	sl, r0
 80027a0:	468b      	mov	fp, r1
 80027a2:	4620      	mov	r0, r4
 80027a4:	4629      	mov	r1, r5
 80027a6:	f7fd ff43 	bl	8000630 <__aeabi_dmul>
 80027aa:	a33d      	add	r3, pc, #244	; (adr r3, 80028a0 <__kernel_cos+0x140>)
 80027ac:	e9d3 2300 	ldrd	r2, r3, [r3]
 80027b0:	f7fd fd88 	bl	80002c4 <__adddf3>
 80027b4:	4622      	mov	r2, r4
 80027b6:	462b      	mov	r3, r5
 80027b8:	f7fd ff3a 	bl	8000630 <__aeabi_dmul>
 80027bc:	a33a      	add	r3, pc, #232	; (adr r3, 80028a8 <__kernel_cos+0x148>)
 80027be:	e9d3 2300 	ldrd	r2, r3, [r3]
 80027c2:	f7fd fd7d 	bl	80002c0 <__aeabi_dsub>
 80027c6:	4622      	mov	r2, r4
 80027c8:	462b      	mov	r3, r5
 80027ca:	f7fd ff31 	bl	8000630 <__aeabi_dmul>
 80027ce:	a338      	add	r3, pc, #224	; (adr r3, 80028b0 <__kernel_cos+0x150>)
 80027d0:	e9d3 2300 	ldrd	r2, r3, [r3]
 80027d4:	f7fd fd76 	bl	80002c4 <__adddf3>
 80027d8:	4622      	mov	r2, r4
 80027da:	462b      	mov	r3, r5
 80027dc:	f7fd ff28 	bl	8000630 <__aeabi_dmul>
 80027e0:	a335      	add	r3, pc, #212	; (adr r3, 80028b8 <__kernel_cos+0x158>)
 80027e2:	e9d3 2300 	ldrd	r2, r3, [r3]
 80027e6:	f7fd fd6b 	bl	80002c0 <__aeabi_dsub>
 80027ea:	4622      	mov	r2, r4
 80027ec:	462b      	mov	r3, r5
 80027ee:	f7fd ff1f 	bl	8000630 <__aeabi_dmul>
 80027f2:	a333      	add	r3, pc, #204	; (adr r3, 80028c0 <__kernel_cos+0x160>)
 80027f4:	e9d3 2300 	ldrd	r2, r3, [r3]
 80027f8:	f7fd fd64 	bl	80002c4 <__adddf3>
 80027fc:	4622      	mov	r2, r4
 80027fe:	462b      	mov	r3, r5
 8002800:	f7fd ff16 	bl	8000630 <__aeabi_dmul>
 8002804:	4622      	mov	r2, r4
 8002806:	462b      	mov	r3, r5
 8002808:	f7fd ff12 	bl	8000630 <__aeabi_dmul>
 800280c:	e9dd 2300 	ldrd	r2, r3, [sp]
 8002810:	4604      	mov	r4, r0
 8002812:	460d      	mov	r5, r1
 8002814:	4640      	mov	r0, r8
 8002816:	4639      	mov	r1, r7
 8002818:	f7fd ff0a 	bl	8000630 <__aeabi_dmul>
 800281c:	460b      	mov	r3, r1
 800281e:	4602      	mov	r2, r0
 8002820:	4629      	mov	r1, r5
 8002822:	4620      	mov	r0, r4
 8002824:	f7fd fd4c 	bl	80002c0 <__aeabi_dsub>
 8002828:	4b28      	ldr	r3, [pc, #160]	; (80028cc <__kernel_cos+0x16c>)
 800282a:	4680      	mov	r8, r0
 800282c:	429e      	cmp	r6, r3
 800282e:	4689      	mov	r9, r1
 8002830:	dc0e      	bgt.n	8002850 <__kernel_cos+0xf0>
 8002832:	4602      	mov	r2, r0
 8002834:	460b      	mov	r3, r1
 8002836:	4650      	mov	r0, sl
 8002838:	4659      	mov	r1, fp
 800283a:	f7fd fd41 	bl	80002c0 <__aeabi_dsub>
 800283e:	4602      	mov	r2, r0
 8002840:	2000      	movs	r0, #0
 8002842:	460b      	mov	r3, r1
 8002844:	4922      	ldr	r1, [pc, #136]	; (80028d0 <__kernel_cos+0x170>)
 8002846:	f7fd fd3b 	bl	80002c0 <__aeabi_dsub>
 800284a:	b003      	add	sp, #12
 800284c:	e8bd 8ff0 	ldmia.w	sp!, {r4, r5, r6, r7, r8, r9, sl, fp, pc}
 8002850:	2400      	movs	r4, #0
 8002852:	4b20      	ldr	r3, [pc, #128]	; (80028d4 <__kernel_cos+0x174>)
 8002854:	4622      	mov	r2, r4
 8002856:	429e      	cmp	r6, r3
 8002858:	bfcc      	ite	gt
 800285a:	4d1f      	ldrgt	r5, [pc, #124]	; (80028d8 <__kernel_cos+0x178>)
 800285c:	f5a6 1500 	suble.w	r5, r6, #2097152	; 0x200000
 8002860:	462b      	mov	r3, r5
 8002862:	2000      	movs	r0, #0
 8002864:	491a      	ldr	r1, [pc, #104]	; (80028d0 <__kernel_cos+0x170>)
 8002866:	f7fd fd2b 	bl	80002c0 <__aeabi_dsub>
 800286a:	4622      	mov	r2, r4
 800286c:	4606      	mov	r6, r0
 800286e:	460f      	mov	r7, r1
 8002870:	462b      	mov	r3, r5
 8002872:	4650      	mov	r0, sl
 8002874:	4659      	mov	r1, fp
 8002876:	f7fd fd23 	bl	80002c0 <__aeabi_dsub>
 800287a:	4642      	mov	r2, r8
 800287c:	464b      	mov	r3, r9
 800287e:	f7fd fd1f 	bl	80002c0 <__aeabi_dsub>
 8002882:	4602      	mov	r2, r0
 8002884:	460b      	mov	r3, r1
 8002886:	4630      	mov	r0, r6
 8002888:	4639      	mov	r1, r7
 800288a:	e7dc      	b.n	8002846 <__kernel_cos+0xe6>
 800288c:	2000      	movs	r0, #0
 800288e:	4910      	ldr	r1, [pc, #64]	; (80028d0 <__kernel_cos+0x170>)
 8002890:	e7db      	b.n	800284a <__kernel_cos+0xea>
 8002892:	bf00      	nop
 8002894:	f3af 8000 	nop.w
 8002898:	be8838d4 	.word	0xbe8838d4
 800289c:	bda8fae9 	.word	0xbda8fae9
 80028a0:	bdb4b1c4 	.word	0xbdb4b1c4
 80028a4:	3e21ee9e 	.word	0x3e21ee9e
 80028a8:	809c52ad 	.word	0x809c52ad
 80028ac:	3e927e4f 	.word	0x3e927e4f
 80028b0:	19cb1590 	.word	0x19cb1590
 80028b4:	3efa01a0 	.word	0x3efa01a0
 80028b8:	16c15177 	.word	0x16c15177
 80028bc:	3f56c16c 	.word	0x3f56c16c
 80028c0:	5555554c 	.word	0x5555554c
 80028c4:	3fa55555 	.word	0x3fa55555
 80028c8:	3fe00000 	.word	0x3fe00000
 80028cc:	3fd33332 	.word	0x3fd33332
 80028d0:	3ff00000 	.word	0x3ff00000
 80028d4:	3fe90000 	.word	0x3fe90000
 80028d8:	3fd20000 	.word	0x3fd20000
 80028dc:	00000000 	.word	0x00000000

080028e0 <__kernel_sin>:
 80028e0:	e92d 47f0 	stmdb	sp!, {r4, r5, r6, r7, r8, r9, sl, lr}
 80028e4:	b086      	sub	sp, #24
 80028e6:	e9cd 2300 	strd	r2, r3, [sp]
 80028ea:	f021 4300 	bic.w	r3, r1, #2147483648	; 0x80000000
 80028ee:	f1b3 5f79 	cmp.w	r3, #1044381696	; 0x3e400000
 80028f2:	4682      	mov	sl, r0
 80028f4:	460c      	mov	r4, r1
 80028f6:	9d0e      	ldr	r5, [sp, #56]	; 0x38
 80028f8:	da03      	bge.n	8002902 <__kernel_sin+0x22>
 80028fa:	f7fe f949 	bl	8000b90 <__aeabi_d2iz>
 80028fe:	2800      	cmp	r0, #0
 8002900:	d050      	beq.n	80029a4 <__kernel_sin+0xc4>
 8002902:	4652      	mov	r2, sl
 8002904:	4623      	mov	r3, r4
 8002906:	4650      	mov	r0, sl
 8002908:	4621      	mov	r1, r4
 800290a:	f7fd fe91 	bl	8000630 <__aeabi_dmul>
 800290e:	4606      	mov	r6, r0
 8002910:	460f      	mov	r7, r1
 8002912:	4602      	mov	r2, r0
 8002914:	460b      	mov	r3, r1
 8002916:	4650      	mov	r0, sl
 8002918:	4621      	mov	r1, r4
 800291a:	f7fd fe89 	bl	8000630 <__aeabi_dmul>
 800291e:	a33e      	add	r3, pc, #248	; (adr r3, 8002a18 <__kernel_sin+0x138>)
 8002920:	e9d3 2300 	ldrd	r2, r3, [r3]
 8002924:	4680      	mov	r8, r0
 8002926:	4689      	mov	r9, r1
 8002928:	4630      	mov	r0, r6
 800292a:	4639      	mov	r1, r7
 800292c:	f7fd fe80 	bl	8000630 <__aeabi_dmul>
 8002930:	a33b      	add	r3, pc, #236	; (adr r3, 8002a20 <__kernel_sin+0x140>)
 8002932:	e9d3 2300 	ldrd	r2, r3, [r3]
 8002936:	f7fd fcc3 	bl	80002c0 <__aeabi_dsub>
 800293a:	4632      	mov	r2, r6
 800293c:	463b      	mov	r3, r7
 800293e:	f7fd fe77 	bl	8000630 <__aeabi_dmul>
 8002942:	a339      	add	r3, pc, #228	; (adr r3, 8002a28 <__kernel_sin+0x148>)
 8002944:	e9d3 2300 	ldrd	r2, r3, [r3]
 8002948:	f7fd fcbc 	bl	80002c4 <__adddf3>
 800294c:	4632      	mov	r2, r6
 800294e:	463b      	mov	r3, r7
 8002950:	f7fd fe6e 	bl	8000630 <__aeabi_dmul>
 8002954:	a336      	add	r3, pc, #216	; (adr r3, 8002a30 <__kernel_sin+0x150>)
 8002956:	e9d3 2300 	ldrd	r2, r3, [r3]
 800295a:	f7fd fcb1 	bl	80002c0 <__aeabi_dsub>
 800295e:	4632      	mov	r2, r6
 8002960:	463b      	mov	r3, r7
 8002962:	f7fd fe65 	bl	8000630 <__aeabi_dmul>
 8002966:	a334      	add	r3, pc, #208	; (adr r3, 8002a38 <__kernel_sin+0x158>)
 8002968:	e9d3 2300 	ldrd	r2, r3, [r3]
 800296c:	f7fd fcaa 	bl	80002c4 <__adddf3>
 8002970:	e9cd 0102 	strd	r0, r1, [sp, #8]
 8002974:	b9dd      	cbnz	r5, 80029ae <__kernel_sin+0xce>
 8002976:	4602      	mov	r2, r0
 8002978:	460b      	mov	r3, r1
 800297a:	4630      	mov	r0, r6
 800297c:	4639      	mov	r1, r7
 800297e:	f7fd fe57 	bl	8000630 <__aeabi_dmul>
 8002982:	a32f      	add	r3, pc, #188	; (adr r3, 8002a40 <__kernel_sin+0x160>)
 8002984:	e9d3 2300 	ldrd	r2, r3, [r3]
 8002988:	f7fd fc9a 	bl	80002c0 <__aeabi_dsub>
 800298c:	4642      	mov	r2, r8
 800298e:	464b      	mov	r3, r9
 8002990:	f7fd fe4e 	bl	8000630 <__aeabi_dmul>
 8002994:	4602      	mov	r2, r0
 8002996:	460b      	mov	r3, r1
 8002998:	4650      	mov	r0, sl
 800299a:	4621      	mov	r1, r4
 800299c:	f7fd fc92 	bl	80002c4 <__adddf3>
 80029a0:	4682      	mov	sl, r0
 80029a2:	460c      	mov	r4, r1
 80029a4:	4650      	mov	r0, sl
 80029a6:	4621      	mov	r1, r4
 80029a8:	b006      	add	sp, #24
 80029aa:	e8bd 87f0 	ldmia.w	sp!, {r4, r5, r6, r7, r8, r9, sl, pc}
 80029ae:	2200      	movs	r2, #0
 80029b0:	e9dd 0100 	ldrd	r0, r1, [sp]
 80029b4:	4b24      	ldr	r3, [pc, #144]	; (8002a48 <__kernel_sin+0x168>)
 80029b6:	f7fd fe3b 	bl	8000630 <__aeabi_dmul>
 80029ba:	e9dd 2302 	ldrd	r2, r3, [sp, #8]
 80029be:	e9cd 0104 	strd	r0, r1, [sp, #16]
 80029c2:	4640      	mov	r0, r8
 80029c4:	4649      	mov	r1, r9
 80029c6:	f7fd fe33 	bl	8000630 <__aeabi_dmul>
 80029ca:	4602      	mov	r2, r0
 80029cc:	460b      	mov	r3, r1
 80029ce:	e9dd 0104 	ldrd	r0, r1, [sp, #16]
 80029d2:	f7fd fc75 	bl	80002c0 <__aeabi_dsub>
 80029d6:	4632      	mov	r2, r6
 80029d8:	463b      	mov	r3, r7
 80029da:	f7fd fe29 	bl	8000630 <__aeabi_dmul>
 80029de:	e9dd 2300 	ldrd	r2, r3, [sp]
 80029e2:	f7fd fc6d 	bl	80002c0 <__aeabi_dsub>
 80029e6:	a316      	add	r3, pc, #88	; (adr r3, 8002a40 <__kernel_sin+0x160>)
 80029e8:	e9d3 2300 	ldrd	r2, r3, [r3]
 80029ec:	4606      	mov	r6, r0
 80029ee:	460f      	mov	r7, r1
 80029f0:	4640      	mov	r0, r8
 80029f2:	4649      	mov	r1, r9
 80029f4:	f7fd fe1c 	bl	8000630 <__aeabi_dmul>
 80029f8:	4602      	mov	r2, r0
 80029fa:	460b      	mov	r3, r1
 80029fc:	4630      	mov	r0, r6
 80029fe:	4639      	mov	r1, r7
 8002a00:	f7fd fc60 	bl	80002c4 <__adddf3>
 8002a04:	4602      	mov	r2, r0
 8002a06:	460b      	mov	r3, r1
 8002a08:	4650      	mov	r0, sl
 8002a0a:	4621      	mov	r1, r4
 8002a0c:	f7fd fc58 	bl	80002c0 <__aeabi_dsub>
 8002a10:	e7c6      	b.n	80029a0 <__kernel_sin+0xc0>
 8002a12:	bf00      	nop
 8002a14:	f3af 8000 	nop.w
 8002a18:	5acfd57c 	.word	0x5acfd57c
 8002a1c:	3de5d93a 	.word	0x3de5d93a
 8002a20:	8a2b9ceb 	.word	0x8a2b9ceb
 8002a24:	3e5ae5e6 	.word	0x3e5ae5e6
 8002a28:	57b1fe7d 	.word	0x57b1fe7d
 8002a2c:	3ec71de3 	.word	0x3ec71de3
 8002a30:	19c161d5 	.word	0x19c161d5
 8002a34:	3f2a01a0 	.word	0x3f2a01a0
 8002a38:	1110f8a6 	.word	0x1110f8a6
 8002a3c:	3f811111 	.word	0x3f811111
 8002a40:	55555549 	.word	0x55555549
 8002a44:	3fc55555 	.word	0x3fc55555
 8002a48:	3fe00000 	.word	0x3fe00000
 8002a4c:	00000000 	.word	0x00000000

08002a50 <__ieee754_acos>:
 8002a50:	e92d 4ff8 	stmdb	sp!, {r3, r4, r5, r6, r7, r8, r9, sl, fp, lr}
 8002a54:	4cb2      	ldr	r4, [pc, #712]	; (8002d20 <__ieee754_acos+0x2d0>)
 8002a56:	f021 4300 	bic.w	r3, r1, #2147483648	; 0x80000000
 8002a5a:	42a3      	cmp	r3, r4
 8002a5c:	4607      	mov	r7, r0
 8002a5e:	460e      	mov	r6, r1
 8002a60:	dd16      	ble.n	8002a90 <__ieee754_acos+0x40>
 8002a62:	f103 4340 	add.w	r3, r3, #3221225472	; 0xc0000000
 8002a66:	f503 1380 	add.w	r3, r3, #1048576	; 0x100000
 8002a6a:	4303      	orrs	r3, r0
 8002a6c:	d107      	bne.n	8002a7e <__ieee754_acos+0x2e>
 8002a6e:	2900      	cmp	r1, #0
 8002a70:	f300 8202 	bgt.w	8002e78 <__ieee754_acos+0x428>
 8002a74:	a190      	add	r1, pc, #576	; (adr r1, 8002cb8 <__ieee754_acos+0x268>)
 8002a76:	e9d1 0100 	ldrd	r0, r1, [r1]
 8002a7a:	e8bd 8ff8 	ldmia.w	sp!, {r3, r4, r5, r6, r7, r8, r9, sl, fp, pc}
 8002a7e:	4602      	mov	r2, r0
 8002a80:	460b      	mov	r3, r1
 8002a82:	f7fd fc1d 	bl	80002c0 <__aeabi_dsub>
 8002a86:	4602      	mov	r2, r0
 8002a88:	460b      	mov	r3, r1
 8002a8a:	f7fd fefb 	bl	8000884 <__aeabi_ddiv>
 8002a8e:	e7f4      	b.n	8002a7a <__ieee754_acos+0x2a>
 8002a90:	4ca4      	ldr	r4, [pc, #656]	; (8002d24 <__ieee754_acos+0x2d4>)
 8002a92:	42a3      	cmp	r3, r4
 8002a94:	f300 8083 	bgt.w	8002b9e <__ieee754_acos+0x14e>
 8002a98:	4aa3      	ldr	r2, [pc, #652]	; (8002d28 <__ieee754_acos+0x2d8>)
 8002a9a:	4293      	cmp	r3, r2
 8002a9c:	f340 81ef 	ble.w	8002e7e <__ieee754_acos+0x42e>
 8002aa0:	4602      	mov	r2, r0
 8002aa2:	460b      	mov	r3, r1
 8002aa4:	f7fd fdc4 	bl	8000630 <__aeabi_dmul>
 8002aa8:	a385      	add	r3, pc, #532	; (adr r3, 8002cc0 <__ieee754_acos+0x270>)
 8002aaa:	e9d3 2300 	ldrd	r2, r3, [r3]
 8002aae:	4604      	mov	r4, r0
 8002ab0:	460d      	mov	r5, r1
 8002ab2:	f7fd fdbd 	bl	8000630 <__aeabi_dmul>
 8002ab6:	a384      	add	r3, pc, #528	; (adr r3, 8002cc8 <__ieee754_acos+0x278>)
 8002ab8:	e9d3 2300 	ldrd	r2, r3, [r3]
 8002abc:	f7fd fc02 	bl	80002c4 <__adddf3>
 8002ac0:	4622      	mov	r2, r4
 8002ac2:	462b      	mov	r3, r5
 8002ac4:	f7fd fdb4 	bl	8000630 <__aeabi_dmul>
 8002ac8:	a381      	add	r3, pc, #516	; (adr r3, 8002cd0 <__ieee754_acos+0x280>)
 8002aca:	e9d3 2300 	ldrd	r2, r3, [r3]
 8002ace:	f7fd fbf7 	bl	80002c0 <__aeabi_dsub>
 8002ad2:	4622      	mov	r2, r4
 8002ad4:	462b      	mov	r3, r5
 8002ad6:	f7fd fdab 	bl	8000630 <__aeabi_dmul>
 8002ada:	a37f      	add	r3, pc, #508	; (adr r3, 8002cd8 <__ieee754_acos+0x288>)
 8002adc:	e9d3 2300 	ldrd	r2, r3, [r3]
 8002ae0:	f7fd fbf0 	bl	80002c4 <__adddf3>
 8002ae4:	4622      	mov	r2, r4
 8002ae6:	462b      	mov	r3, r5
 8002ae8:	f7fd fda2 	bl	8000630 <__aeabi_dmul>
 8002aec:	a37c      	add	r3, pc, #496	; (adr r3, 8002ce0 <__ieee754_acos+0x290>)
 8002aee:	e9d3 2300 	ldrd	r2, r3, [r3]
 8002af2:	f7fd fbe5 	bl	80002c0 <__aeabi_dsub>
 8002af6:	4622      	mov	r2, r4
 8002af8:	462b      	mov	r3, r5
 8002afa:	f7fd fd99 	bl	8000630 <__aeabi_dmul>
 8002afe:	a37a      	add	r3, pc, #488	; (adr r3, 8002ce8 <__ieee754_acos+0x298>)
 8002b00:	e9d3 2300 	ldrd	r2, r3, [r3]
 8002b04:	f7fd fbde 	bl	80002c4 <__adddf3>
 8002b08:	4622      	mov	r2, r4
 8002b0a:	462b      	mov	r3, r5
 8002b0c:	f7fd fd90 	bl	8000630 <__aeabi_dmul>
 8002b10:	a377      	add	r3, pc, #476	; (adr r3, 8002cf0 <__ieee754_acos+0x2a0>)
 8002b12:	e9d3 2300 	ldrd	r2, r3, [r3]
 8002b16:	4680      	mov	r8, r0
 8002b18:	4689      	mov	r9, r1
 8002b1a:	4620      	mov	r0, r4
 8002b1c:	4629      	mov	r1, r5
 8002b1e:	f7fd fd87 	bl	8000630 <__aeabi_dmul>
 8002b22:	a375      	add	r3, pc, #468	; (adr r3, 8002cf8 <__ieee754_acos+0x2a8>)
 8002b24:	e9d3 2300 	ldrd	r2, r3, [r3]
 8002b28:	f7fd fbca 	bl	80002c0 <__aeabi_dsub>
 8002b2c:	4622      	mov	r2, r4
 8002b2e:	462b      	mov	r3, r5
 8002b30:	f7fd fd7e 	bl	8000630 <__aeabi_dmul>
 8002b34:	a372      	add	r3, pc, #456	; (adr r3, 8002d00 <__ieee754_acos+0x2b0>)
 8002b36:	e9d3 2300 	ldrd	r2, r3, [r3]
 8002b3a:	f7fd fbc3 	bl	80002c4 <__adddf3>
 8002b3e:	4622      	mov	r2, r4
 8002b40:	462b      	mov	r3, r5
 8002b42:	f7fd fd75 	bl	8000630 <__aeabi_dmul>
 8002b46:	a370      	add	r3, pc, #448	; (adr r3, 8002d08 <__ieee754_acos+0x2b8>)
 8002b48:	e9d3 2300 	ldrd	r2, r3, [r3]
 8002b4c:	f7fd fbb8 	bl	80002c0 <__aeabi_dsub>
 8002b50:	4622      	mov	r2, r4
 8002b52:	462b      	mov	r3, r5
 8002b54:	f7fd fd6c 	bl	8000630 <__aeabi_dmul>
 8002b58:	2200      	movs	r2, #0
 8002b5a:	4b74      	ldr	r3, [pc, #464]	; (8002d2c <__ieee754_acos+0x2dc>)
 8002b5c:	f7fd fbb2 	bl	80002c4 <__adddf3>
 8002b60:	4602      	mov	r2, r0
 8002b62:	460b      	mov	r3, r1
 8002b64:	4640      	mov	r0, r8
 8002b66:	4649      	mov	r1, r9
 8002b68:	f7fd fe8c 	bl	8000884 <__aeabi_ddiv>
 8002b6c:	463a      	mov	r2, r7
 8002b6e:	4633      	mov	r3, r6
 8002b70:	f7fd fd5e 	bl	8000630 <__aeabi_dmul>
 8002b74:	4602      	mov	r2, r0
 8002b76:	460b      	mov	r3, r1
 8002b78:	a165      	add	r1, pc, #404	; (adr r1, 8002d10 <__ieee754_acos+0x2c0>)
 8002b7a:	e9d1 0100 	ldrd	r0, r1, [r1]
 8002b7e:	f7fd fb9f 	bl	80002c0 <__aeabi_dsub>
 8002b82:	4602      	mov	r2, r0
 8002b84:	460b      	mov	r3, r1
 8002b86:	4638      	mov	r0, r7
 8002b88:	4631      	mov	r1, r6
 8002b8a:	f7fd fb99 	bl	80002c0 <__aeabi_dsub>
 8002b8e:	4602      	mov	r2, r0
 8002b90:	460b      	mov	r3, r1
 8002b92:	a161      	add	r1, pc, #388	; (adr r1, 8002d18 <__ieee754_acos+0x2c8>)
 8002b94:	e9d1 0100 	ldrd	r0, r1, [r1]
 8002b98:	f7fd fb92 	bl	80002c0 <__aeabi_dsub>
 8002b9c:	e76d      	b.n	8002a7a <__ieee754_acos+0x2a>
 8002b9e:	2900      	cmp	r1, #0
 8002ba0:	f280 80c8 	bge.w	8002d34 <__ieee754_acos+0x2e4>
 8002ba4:	2200      	movs	r2, #0
 8002ba6:	4b61      	ldr	r3, [pc, #388]	; (8002d2c <__ieee754_acos+0x2dc>)
 8002ba8:	f7fd fb8c 	bl	80002c4 <__adddf3>
 8002bac:	2200      	movs	r2, #0
 8002bae:	4b60      	ldr	r3, [pc, #384]	; (8002d30 <__ieee754_acos+0x2e0>)
 8002bb0:	f7fd fd3e 	bl	8000630 <__aeabi_dmul>
 8002bb4:	a342      	add	r3, pc, #264	; (adr r3, 8002cc0 <__ieee754_acos+0x270>)
 8002bb6:	e9d3 2300 	ldrd	r2, r3, [r3]
 8002bba:	4604      	mov	r4, r0
 8002bbc:	460d      	mov	r5, r1
 8002bbe:	f7fd fd37 	bl	8000630 <__aeabi_dmul>
 8002bc2:	a341      	add	r3, pc, #260	; (adr r3, 8002cc8 <__ieee754_acos+0x278>)
 8002bc4:	e9d3 2300 	ldrd	r2, r3, [r3]
 8002bc8:	f7fd fb7c 	bl	80002c4 <__adddf3>
 8002bcc:	4622      	mov	r2, r4
 8002bce:	462b      	mov	r3, r5
 8002bd0:	f7fd fd2e 	bl	8000630 <__aeabi_dmul>
 8002bd4:	a33e      	add	r3, pc, #248	; (adr r3, 8002cd0 <__ieee754_acos+0x280>)
 8002bd6:	e9d3 2300 	ldrd	r2, r3, [r3]
 8002bda:	f7fd fb71 	bl	80002c0 <__aeabi_dsub>
 8002bde:	4622      	mov	r2, r4
 8002be0:	462b      	mov	r3, r5
 8002be2:	f7fd fd25 	bl	8000630 <__aeabi_dmul>
 8002be6:	a33c      	add	r3, pc, #240	; (adr r3, 8002cd8 <__ieee754_acos+0x288>)
 8002be8:	e9d3 2300 	ldrd	r2, r3, [r3]
 8002bec:	f7fd fb6a 	bl	80002c4 <__adddf3>
 8002bf0:	4622      	mov	r2, r4
 8002bf2:	462b      	mov	r3, r5
 8002bf4:	f7fd fd1c 	bl	8000630 <__aeabi_dmul>
 8002bf8:	a339      	add	r3, pc, #228	; (adr r3, 8002ce0 <__ieee754_acos+0x290>)
 8002bfa:	e9d3 2300 	ldrd	r2, r3, [r3]
 8002bfe:	f7fd fb5f 	bl	80002c0 <__aeabi_dsub>
 8002c02:	4622      	mov	r2, r4
 8002c04:	462b      	mov	r3, r5
 8002c06:	f7fd fd13 	bl	8000630 <__aeabi_dmul>
 8002c0a:	a337      	add	r3, pc, #220	; (adr r3, 8002ce8 <__ieee754_acos+0x298>)
 8002c0c:	e9d3 2300 	ldrd	r2, r3, [r3]
 8002c10:	f7fd fb58 	bl	80002c4 <__adddf3>
 8002c14:	4622      	mov	r2, r4
 8002c16:	462b      	mov	r3, r5
 8002c18:	f7fd fd0a 	bl	8000630 <__aeabi_dmul>
 8002c1c:	4680      	mov	r8, r0
 8002c1e:	4689      	mov	r9, r1
 8002c20:	4620      	mov	r0, r4
 8002c22:	4629      	mov	r1, r5
 8002c24:	f7ff fcc2 	bl	80025ac <__ieee754_sqrt>
 8002c28:	a331      	add	r3, pc, #196	; (adr r3, 8002cf0 <__ieee754_acos+0x2a0>)
 8002c2a:	e9d3 2300 	ldrd	r2, r3, [r3]
 8002c2e:	4606      	mov	r6, r0
 8002c30:	460f      	mov	r7, r1
 8002c32:	4620      	mov	r0, r4
 8002c34:	4629      	mov	r1, r5
 8002c36:	f7fd fcfb 	bl	8000630 <__aeabi_dmul>
 8002c3a:	a32f      	add	r3, pc, #188	; (adr r3, 8002cf8 <__ieee754_acos+0x2a8>)
 8002c3c:	e9d3 2300 	ldrd	r2, r3, [r3]
 8002c40:	f7fd fb3e 	bl	80002c0 <__aeabi_dsub>
 8002c44:	4622      	mov	r2, r4
 8002c46:	462b      	mov	r3, r5
 8002c48:	f7fd fcf2 	bl	8000630 <__aeabi_dmul>
 8002c4c:	a32c      	add	r3, pc, #176	; (adr r3, 8002d00 <__ieee754_acos+0x2b0>)
 8002c4e:	e9d3 2300 	ldrd	r2, r3, [r3]
 8002c52:	f7fd fb37 	bl	80002c4 <__adddf3>
 8002c56:	4622      	mov	r2, r4
 8002c58:	462b      	mov	r3, r5
 8002c5a:	f7fd fce9 	bl	8000630 <__aeabi_dmul>
 8002c5e:	a32a      	add	r3, pc, #168	; (adr r3, 8002d08 <__ieee754_acos+0x2b8>)
 8002c60:	e9d3 2300 	ldrd	r2, r3, [r3]
 8002c64:	f7fd fb2c 	bl	80002c0 <__aeabi_dsub>
 8002c68:	4622      	mov	r2, r4
 8002c6a:	462b      	mov	r3, r5
 8002c6c:	f7fd fce0 	bl	8000630 <__aeabi_dmul>
 8002c70:	2200      	movs	r2, #0
 8002c72:	4b2e      	ldr	r3, [pc, #184]	; (8002d2c <__ieee754_acos+0x2dc>)
 8002c74:	f7fd fb26 	bl	80002c4 <__adddf3>
 8002c78:	4602      	mov	r2, r0
 8002c7a:	460b      	mov	r3, r1
 8002c7c:	4640      	mov	r0, r8
 8002c7e:	4649      	mov	r1, r9
 8002c80:	f7fd fe00 	bl	8000884 <__aeabi_ddiv>
 8002c84:	4632      	mov	r2, r6
 8002c86:	463b      	mov	r3, r7
 8002c88:	f7fd fcd2 	bl	8000630 <__aeabi_dmul>
 8002c8c:	a320      	add	r3, pc, #128	; (adr r3, 8002d10 <__ieee754_acos+0x2c0>)
 8002c8e:	e9d3 2300 	ldrd	r2, r3, [r3]
 8002c92:	f7fd fb15 	bl	80002c0 <__aeabi_dsub>
 8002c96:	4632      	mov	r2, r6
 8002c98:	463b      	mov	r3, r7
 8002c9a:	f7fd fb13 	bl	80002c4 <__adddf3>
 8002c9e:	4602      	mov	r2, r0
 8002ca0:	460b      	mov	r3, r1
 8002ca2:	f7fd fb0f 	bl	80002c4 <__adddf3>
 8002ca6:	4602      	mov	r2, r0
 8002ca8:	460b      	mov	r3, r1
 8002caa:	a103      	add	r1, pc, #12	; (adr r1, 8002cb8 <__ieee754_acos+0x268>)
 8002cac:	e9d1 0100 	ldrd	r0, r1, [r1]
 8002cb0:	e772      	b.n	8002b98 <__ieee754_acos+0x148>
 8002cb2:	bf00      	nop
 8002cb4:	f3af 8000 	nop.w
 8002cb8:	54442d18 	.word	0x54442d18
 8002cbc:	400921fb 	.word	0x400921fb
 8002cc0:	0dfdf709 	.word	0x0dfdf709
 8002cc4:	3f023de1 	.word	0x3f023de1
 8002cc8:	7501b288 	.word	0x7501b288
 8002ccc:	3f49efe0 	.word	0x3f49efe0
 8002cd0:	b5688f3b 	.word	0xb5688f3b
 8002cd4:	3fa48228 	.word	0x3fa48228
 8002cd8:	0e884455 	.word	0x0e884455
 8002cdc:	3fc9c155 	.word	0x3fc9c155
 8002ce0:	03eb6f7d 	.word	0x03eb6f7d
 8002ce4:	3fd4d612 	.word	0x3fd4d612
 8002ce8:	55555555 	.word	0x55555555
 8002cec:	3fc55555 	.word	0x3fc55555
 8002cf0:	b12e9282 	.word	0xb12e9282
 8002cf4:	3fb3b8c5 	.word	0x3fb3b8c5
 8002cf8:	1b8d0159 	.word	0x1b8d0159
 8002cfc:	3fe6066c 	.word	0x3fe6066c
 8002d00:	9c598ac8 	.word	0x9c598ac8
 8002d04:	40002ae5 	.word	0x40002ae5
 8002d08:	1c8a2d4b 	.word	0x1c8a2d4b
 8002d0c:	40033a27 	.word	0x40033a27
 8002d10:	33145c07 	.word	0x33145c07
 8002d14:	3c91a626 	.word	0x3c91a626
 8002d18:	54442d18 	.word	0x54442d18
 8002d1c:	3ff921fb 	.word	0x3ff921fb
 8002d20:	3fefffff 	.word	0x3fefffff
 8002d24:	3fdfffff 	.word	0x3fdfffff
 8002d28:	3c600000 	.word	0x3c600000
 8002d2c:	3ff00000 	.word	0x3ff00000
 8002d30:	3fe00000 	.word	0x3fe00000
 8002d34:	4602      	mov	r2, r0
 8002d36:	460b      	mov	r3, r1
 8002d38:	2000      	movs	r0, #0
 8002d3a:	4969      	ldr	r1, [pc, #420]	; (8002ee0 <__ieee754_acos+0x490>)
 8002d3c:	f7fd fac0 	bl	80002c0 <__aeabi_dsub>
 8002d40:	2200      	movs	r2, #0
 8002d42:	4b68      	ldr	r3, [pc, #416]	; (8002ee4 <__ieee754_acos+0x494>)
 8002d44:	f7fd fc74 	bl	8000630 <__aeabi_dmul>
 8002d48:	4604      	mov	r4, r0
 8002d4a:	460d      	mov	r5, r1
 8002d4c:	f7ff fc2e 	bl	80025ac <__ieee754_sqrt>
 8002d50:	a34d      	add	r3, pc, #308	; (adr r3, 8002e88 <__ieee754_acos+0x438>)
 8002d52:	e9d3 2300 	ldrd	r2, r3, [r3]
 8002d56:	4689      	mov	r9, r1
 8002d58:	4680      	mov	r8, r0
 8002d5a:	4629      	mov	r1, r5
 8002d5c:	4620      	mov	r0, r4
 8002d5e:	f7fd fc67 	bl	8000630 <__aeabi_dmul>
 8002d62:	a34b      	add	r3, pc, #300	; (adr r3, 8002e90 <__ieee754_acos+0x440>)
 8002d64:	e9d3 2300 	ldrd	r2, r3, [r3]
 8002d68:	f7fd faac 	bl	80002c4 <__adddf3>
 8002d6c:	4622      	mov	r2, r4
 8002d6e:	462b      	mov	r3, r5
 8002d70:	f7fd fc5e 	bl	8000630 <__aeabi_dmul>
 8002d74:	a348      	add	r3, pc, #288	; (adr r3, 8002e98 <__ieee754_acos+0x448>)
 8002d76:	e9d3 2300 	ldrd	r2, r3, [r3]
 8002d7a:	f7fd faa1 	bl	80002c0 <__aeabi_dsub>
 8002d7e:	4622      	mov	r2, r4
 8002d80:	462b      	mov	r3, r5
 8002d82:	f7fd fc55 	bl	8000630 <__aeabi_dmul>
 8002d86:	a346      	add	r3, pc, #280	; (adr r3, 8002ea0 <__ieee754_acos+0x450>)
 8002d88:	e9d3 2300 	ldrd	r2, r3, [r3]
 8002d8c:	f7fd fa9a 	bl	80002c4 <__adddf3>
 8002d90:	4622      	mov	r2, r4
 8002d92:	462b      	mov	r3, r5
 8002d94:	f7fd fc4c 	bl	8000630 <__aeabi_dmul>
 8002d98:	a343      	add	r3, pc, #268	; (adr r3, 8002ea8 <__ieee754_acos+0x458>)
 8002d9a:	e9d3 2300 	ldrd	r2, r3, [r3]
 8002d9e:	f7fd fa8f 	bl	80002c0 <__aeabi_dsub>
 8002da2:	4622      	mov	r2, r4
 8002da4:	462b      	mov	r3, r5
 8002da6:	f7fd fc43 	bl	8000630 <__aeabi_dmul>
 8002daa:	a341      	add	r3, pc, #260	; (adr r3, 8002eb0 <__ieee754_acos+0x460>)
 8002dac:	e9d3 2300 	ldrd	r2, r3, [r3]
 8002db0:	f7fd fa88 	bl	80002c4 <__adddf3>
 8002db4:	4622      	mov	r2, r4
 8002db6:	462b      	mov	r3, r5
 8002db8:	f7fd fc3a 	bl	8000630 <__aeabi_dmul>
 8002dbc:	a33e      	add	r3, pc, #248	; (adr r3, 8002eb8 <__ieee754_acos+0x468>)
 8002dbe:	e9d3 2300 	ldrd	r2, r3, [r3]
 8002dc2:	4682      	mov	sl, r0
 8002dc4:	468b      	mov	fp, r1
 8002dc6:	4620      	mov	r0, r4
 8002dc8:	4629      	mov	r1, r5
 8002dca:	f7fd fc31 	bl	8000630 <__aeabi_dmul>
 8002dce:	a33c      	add	r3, pc, #240	; (adr r3, 8002ec0 <__ieee754_acos+0x470>)
 8002dd0:	e9d3 2300 	ldrd	r2, r3, [r3]
 8002dd4:	f7fd fa74 	bl	80002c0 <__aeabi_dsub>
 8002dd8:	4622      	mov	r2, r4
 8002dda:	462b      	mov	r3, r5
 8002ddc:	f7fd fc28 	bl	8000630 <__aeabi_dmul>
 8002de0:	a339      	add	r3, pc, #228	; (adr r3, 8002ec8 <__ieee754_acos+0x478>)
 8002de2:	e9d3 2300 	ldrd	r2, r3, [r3]
 8002de6:	f7fd fa6d 	bl	80002c4 <__adddf3>
 8002dea:	4622      	mov	r2, r4
 8002dec:	462b      	mov	r3, r5
 8002dee:	f7fd fc1f 	bl	8000630 <__aeabi_dmul>
 8002df2:	a337      	add	r3, pc, #220	; (adr r3, 8002ed0 <__ieee754_acos+0x480>)
 8002df4:	e9d3 2300 	ldrd	r2, r3, [r3]
 8002df8:	f7fd fa62 	bl	80002c0 <__aeabi_dsub>
 8002dfc:	4622      	mov	r2, r4
 8002dfe:	462b      	mov	r3, r5
 8002e00:	f7fd fc16 	bl	8000630 <__aeabi_dmul>
 8002e04:	2200      	movs	r2, #0
 8002e06:	4b36      	ldr	r3, [pc, #216]	; (8002ee0 <__ieee754_acos+0x490>)
 8002e08:	f7fd fa5c 	bl	80002c4 <__adddf3>
 8002e0c:	4602      	mov	r2, r0
 8002e0e:	460b      	mov	r3, r1
 8002e10:	4650      	mov	r0, sl
 8002e12:	4659      	mov	r1, fp
 8002e14:	f7fd fd36 	bl	8000884 <__aeabi_ddiv>
 8002e18:	4642      	mov	r2, r8
 8002e1a:	464b      	mov	r3, r9
 8002e1c:	f7fd fc08 	bl	8000630 <__aeabi_dmul>
 8002e20:	2600      	movs	r6, #0
 8002e22:	4682      	mov	sl, r0
 8002e24:	468b      	mov	fp, r1
 8002e26:	4632      	mov	r2, r6
 8002e28:	464b      	mov	r3, r9
 8002e2a:	4630      	mov	r0, r6
 8002e2c:	4649      	mov	r1, r9
 8002e2e:	f7fd fbff 	bl	8000630 <__aeabi_dmul>
 8002e32:	4602      	mov	r2, r0
 8002e34:	460b      	mov	r3, r1
 8002e36:	4620      	mov	r0, r4
 8002e38:	4629      	mov	r1, r5
 8002e3a:	f7fd fa41 	bl	80002c0 <__aeabi_dsub>
 8002e3e:	4632      	mov	r2, r6
 8002e40:	4604      	mov	r4, r0
 8002e42:	460d      	mov	r5, r1
 8002e44:	464b      	mov	r3, r9
 8002e46:	4640      	mov	r0, r8
 8002e48:	4649      	mov	r1, r9
 8002e4a:	f7fd fa3b 	bl	80002c4 <__adddf3>
 8002e4e:	4602      	mov	r2, r0
 8002e50:	460b      	mov	r3, r1
 8002e52:	4620      	mov	r0, r4
 8002e54:	4629      	mov	r1, r5
 8002e56:	f7fd fd15 	bl	8000884 <__aeabi_ddiv>
 8002e5a:	4602      	mov	r2, r0
 8002e5c:	460b      	mov	r3, r1
 8002e5e:	4650      	mov	r0, sl
 8002e60:	4659      	mov	r1, fp
 8002e62:	f7fd fa2f 	bl	80002c4 <__adddf3>
 8002e66:	4632      	mov	r2, r6
 8002e68:	464b      	mov	r3, r9
 8002e6a:	f7fd fa2b 	bl	80002c4 <__adddf3>
 8002e6e:	4602      	mov	r2, r0
 8002e70:	460b      	mov	r3, r1
 8002e72:	f7fd fa27 	bl	80002c4 <__adddf3>
 8002e76:	e600      	b.n	8002a7a <__ieee754_acos+0x2a>
 8002e78:	2000      	movs	r0, #0
 8002e7a:	2100      	movs	r1, #0
 8002e7c:	e5fd      	b.n	8002a7a <__ieee754_acos+0x2a>
 8002e7e:	a116      	add	r1, pc, #88	; (adr r1, 8002ed8 <__ieee754_acos+0x488>)
 8002e80:	e9d1 0100 	ldrd	r0, r1, [r1]
 8002e84:	e5f9      	b.n	8002a7a <__ieee754_acos+0x2a>
 8002e86:	bf00      	nop
 8002e88:	0dfdf709 	.word	0x0dfdf709
 8002e8c:	3f023de1 	.word	0x3f023de1
 8002e90:	7501b288 	.word	0x7501b288
 8002e94:	3f49efe0 	.word	0x3f49efe0
 8002e98:	b5688f3b 	.word	0xb5688f3b
 8002e9c:	3fa48228 	.word	0x3fa48228
 8002ea0:	0e884455 	.word	0x0e884455
 8002ea4:	3fc9c155 	.word	0x3fc9c155
 8002ea8:	03eb6f7d 	.word	0x03eb6f7d
 8002eac:	3fd4d612 	.word	0x3fd4d612
 8002eb0:	55555555 	.word	0x55555555
 8002eb4:	3fc55555 	.word	0x3fc55555
 8002eb8:	b12e9282 	.word	0xb12e9282
 8002ebc:	3fb3b8c5 	.word	0x3fb3b8c5
 8002ec0:	1b8d0159 	.word	0x1b8d0159
 8002ec4:	3fe6066c 	.word	0x3fe6066c
 8002ec8:	9c598ac8 	.word	0x9c598ac8
 8002ecc:	40002ae5 	.word	0x40002ae5
 8002ed0:	1c8a2d4b 	.word	0x1c8a2d4b
 8002ed4:	40033a27 	.word	0x40033a27
 8002ed8:	54442d18 	.word	0x54442d18
 8002edc:	3ff921fb 	.word	0x3ff921fb
 8002ee0:	3ff00000 	.word	0x3ff00000
 8002ee4:	3fe00000 	.word	0x3fe00000

08002ee8 <__ieee754_rem_pio2>:
 8002ee8:	e92d 4ff0 	stmdb	sp!, {r4, r5, r6, r7, r8, r9, sl, fp, lr}
 8002eec:	4614      	mov	r4, r2
 8002eee:	4ac2      	ldr	r2, [pc, #776]	; (80031f8 <__ieee754_rem_pio2+0x310>)
 8002ef0:	f021 4a00 	bic.w	sl, r1, #2147483648	; 0x80000000
 8002ef4:	b08d      	sub	sp, #52	; 0x34
 8002ef6:	4592      	cmp	sl, r2
 8002ef8:	9104      	str	r1, [sp, #16]
 8002efa:	dc07      	bgt.n	8002f0c <__ieee754_rem_pio2+0x24>
 8002efc:	2200      	movs	r2, #0
 8002efe:	2300      	movs	r3, #0
 8002f00:	e9c4 0100 	strd	r0, r1, [r4]
 8002f04:	e9c4 2302 	strd	r2, r3, [r4, #8]
 8002f08:	2500      	movs	r5, #0
 8002f0a:	e024      	b.n	8002f56 <__ieee754_rem_pio2+0x6e>
 8002f0c:	4abb      	ldr	r2, [pc, #748]	; (80031fc <__ieee754_rem_pio2+0x314>)
 8002f0e:	4592      	cmp	sl, r2
 8002f10:	dc72      	bgt.n	8002ff8 <__ieee754_rem_pio2+0x110>
 8002f12:	9b04      	ldr	r3, [sp, #16]
 8002f14:	4dba      	ldr	r5, [pc, #744]	; (8003200 <__ieee754_rem_pio2+0x318>)
 8002f16:	2b00      	cmp	r3, #0
 8002f18:	a3a9      	add	r3, pc, #676	; (adr r3, 80031c0 <__ieee754_rem_pio2+0x2d8>)
 8002f1a:	e9d3 2300 	ldrd	r2, r3, [r3]
 8002f1e:	dd36      	ble.n	8002f8e <__ieee754_rem_pio2+0xa6>
 8002f20:	f7fd f9ce 	bl	80002c0 <__aeabi_dsub>
 8002f24:	45aa      	cmp	sl, r5
 8002f26:	4606      	mov	r6, r0
 8002f28:	460f      	mov	r7, r1
 8002f2a:	d018      	beq.n	8002f5e <__ieee754_rem_pio2+0x76>
 8002f2c:	a3a6      	add	r3, pc, #664	; (adr r3, 80031c8 <__ieee754_rem_pio2+0x2e0>)
 8002f2e:	e9d3 2300 	ldrd	r2, r3, [r3]
 8002f32:	f7fd f9c5 	bl	80002c0 <__aeabi_dsub>
 8002f36:	4602      	mov	r2, r0
 8002f38:	460b      	mov	r3, r1
 8002f3a:	4630      	mov	r0, r6
 8002f3c:	e9c4 2300 	strd	r2, r3, [r4]
 8002f40:	4639      	mov	r1, r7
 8002f42:	f7fd f9bd 	bl	80002c0 <__aeabi_dsub>
 8002f46:	a3a0      	add	r3, pc, #640	; (adr r3, 80031c8 <__ieee754_rem_pio2+0x2e0>)
 8002f48:	e9d3 2300 	ldrd	r2, r3, [r3]
 8002f4c:	f7fd f9b8 	bl	80002c0 <__aeabi_dsub>
 8002f50:	2501      	movs	r5, #1
 8002f52:	e9c4 0102 	strd	r0, r1, [r4, #8]
 8002f56:	4628      	mov	r0, r5
 8002f58:	b00d      	add	sp, #52	; 0x34
 8002f5a:	e8bd 8ff0 	ldmia.w	sp!, {r4, r5, r6, r7, r8, r9, sl, fp, pc}
 8002f5e:	a39c      	add	r3, pc, #624	; (adr r3, 80031d0 <__ieee754_rem_pio2+0x2e8>)
 8002f60:	e9d3 2300 	ldrd	r2, r3, [r3]
 8002f64:	f7fd f9ac 	bl	80002c0 <__aeabi_dsub>
 8002f68:	a39b      	add	r3, pc, #620	; (adr r3, 80031d8 <__ieee754_rem_pio2+0x2f0>)
 8002f6a:	e9d3 2300 	ldrd	r2, r3, [r3]
 8002f6e:	4606      	mov	r6, r0
 8002f70:	460f      	mov	r7, r1
 8002f72:	f7fd f9a5 	bl	80002c0 <__aeabi_dsub>
 8002f76:	4602      	mov	r2, r0
 8002f78:	460b      	mov	r3, r1
 8002f7a:	4630      	mov	r0, r6
 8002f7c:	e9c4 2300 	strd	r2, r3, [r4]
 8002f80:	4639      	mov	r1, r7
 8002f82:	f7fd f99d 	bl	80002c0 <__aeabi_dsub>
 8002f86:	a394      	add	r3, pc, #592	; (adr r3, 80031d8 <__ieee754_rem_pio2+0x2f0>)
 8002f88:	e9d3 2300 	ldrd	r2, r3, [r3]
 8002f8c:	e7de      	b.n	8002f4c <__ieee754_rem_pio2+0x64>
 8002f8e:	f7fd f999 	bl	80002c4 <__adddf3>
 8002f92:	45aa      	cmp	sl, r5
 8002f94:	4606      	mov	r6, r0
 8002f96:	460f      	mov	r7, r1
 8002f98:	d016      	beq.n	8002fc8 <__ieee754_rem_pio2+0xe0>
 8002f9a:	a38b      	add	r3, pc, #556	; (adr r3, 80031c8 <__ieee754_rem_pio2+0x2e0>)
 8002f9c:	e9d3 2300 	ldrd	r2, r3, [r3]
 8002fa0:	f7fd f990 	bl	80002c4 <__adddf3>
 8002fa4:	4602      	mov	r2, r0
 8002fa6:	460b      	mov	r3, r1
 8002fa8:	4630      	mov	r0, r6
 8002faa:	e9c4 2300 	strd	r2, r3, [r4]
 8002fae:	4639      	mov	r1, r7
 8002fb0:	f7fd f986 	bl	80002c0 <__aeabi_dsub>
 8002fb4:	a384      	add	r3, pc, #528	; (adr r3, 80031c8 <__ieee754_rem_pio2+0x2e0>)
 8002fb6:	e9d3 2300 	ldrd	r2, r3, [r3]
 8002fba:	f7fd f983 	bl	80002c4 <__adddf3>
 8002fbe:	f04f 35ff 	mov.w	r5, #4294967295
 8002fc2:	e9c4 0102 	strd	r0, r1, [r4, #8]
 8002fc6:	e7c6      	b.n	8002f56 <__ieee754_rem_pio2+0x6e>
 8002fc8:	a381      	add	r3, pc, #516	; (adr r3, 80031d0 <__ieee754_rem_pio2+0x2e8>)
 8002fca:	e9d3 2300 	ldrd	r2, r3, [r3]
 8002fce:	f7fd f979 	bl	80002c4 <__adddf3>
 8002fd2:	a381      	add	r3, pc, #516	; (adr r3, 80031d8 <__ieee754_rem_pio2+0x2f0>)
 8002fd4:	e9d3 2300 	ldrd	r2, r3, [r3]
 8002fd8:	4606      	mov	r6, r0
 8002fda:	460f      	mov	r7, r1
 8002fdc:	f7fd f972 	bl	80002c4 <__adddf3>
 8002fe0:	4602      	mov	r2, r0
 8002fe2:	460b      	mov	r3, r1
 8002fe4:	4630      	mov	r0, r6
 8002fe6:	e9c4 2300 	strd	r2, r3, [r4]
 8002fea:	4639      	mov	r1, r7
 8002fec:	f7fd f968 	bl	80002c0 <__aeabi_dsub>
 8002ff0:	a379      	add	r3, pc, #484	; (adr r3, 80031d8 <__ieee754_rem_pio2+0x2f0>)
 8002ff2:	e9d3 2300 	ldrd	r2, r3, [r3]
 8002ff6:	e7e0      	b.n	8002fba <__ieee754_rem_pio2+0xd2>
 8002ff8:	4a82      	ldr	r2, [pc, #520]	; (8003204 <__ieee754_rem_pio2+0x31c>)
 8002ffa:	4592      	cmp	sl, r2
 8002ffc:	f300 80d4 	bgt.w	80031a8 <__ieee754_rem_pio2+0x2c0>
 8003000:	f7ff fa84 	bl	800250c <fabs>
 8003004:	a376      	add	r3, pc, #472	; (adr r3, 80031e0 <__ieee754_rem_pio2+0x2f8>)
 8003006:	e9d3 2300 	ldrd	r2, r3, [r3]
 800300a:	4606      	mov	r6, r0
 800300c:	460f      	mov	r7, r1
 800300e:	f7fd fb0f 	bl	8000630 <__aeabi_dmul>
 8003012:	2200      	movs	r2, #0
 8003014:	4b7c      	ldr	r3, [pc, #496]	; (8003208 <__ieee754_rem_pio2+0x320>)
 8003016:	f7fd f955 	bl	80002c4 <__adddf3>
 800301a:	f7fd fdb9 	bl	8000b90 <__aeabi_d2iz>
 800301e:	4605      	mov	r5, r0
 8003020:	f7fd fa9c 	bl	800055c <__aeabi_i2d>
 8003024:	4602      	mov	r2, r0
 8003026:	460b      	mov	r3, r1
 8003028:	e9cd 2302 	strd	r2, r3, [sp, #8]
 800302c:	a364      	add	r3, pc, #400	; (adr r3, 80031c0 <__ieee754_rem_pio2+0x2d8>)
 800302e:	e9d3 2300 	ldrd	r2, r3, [r3]
 8003032:	f7fd fafd 	bl	8000630 <__aeabi_dmul>
 8003036:	4602      	mov	r2, r0
 8003038:	460b      	mov	r3, r1
 800303a:	4630      	mov	r0, r6
 800303c:	4639      	mov	r1, r7
 800303e:	f7fd f93f 	bl	80002c0 <__aeabi_dsub>
 8003042:	a361      	add	r3, pc, #388	; (adr r3, 80031c8 <__ieee754_rem_pio2+0x2e0>)
 8003044:	e9d3 2300 	ldrd	r2, r3, [r3]
 8003048:	4680      	mov	r8, r0
 800304a:	4689      	mov	r9, r1
 800304c:	e9dd 0102 	ldrd	r0, r1, [sp, #8]
 8003050:	f7fd faee 	bl	8000630 <__aeabi_dmul>
 8003054:	2d1f      	cmp	r5, #31
 8003056:	4606      	mov	r6, r0
 8003058:	460f      	mov	r7, r1
 800305a:	dc0e      	bgt.n	800307a <__ieee754_rem_pio2+0x192>
 800305c:	4b6b      	ldr	r3, [pc, #428]	; (800320c <__ieee754_rem_pio2+0x324>)
 800305e:	1e6a      	subs	r2, r5, #1
 8003060:	f853 3022 	ldr.w	r3, [r3, r2, lsl #2]
 8003064:	4553      	cmp	r3, sl
 8003066:	d008      	beq.n	800307a <__ieee754_rem_pio2+0x192>
 8003068:	4632      	mov	r2, r6
 800306a:	463b      	mov	r3, r7
 800306c:	4640      	mov	r0, r8
 800306e:	4649      	mov	r1, r9
 8003070:	f7fd f926 	bl	80002c0 <__aeabi_dsub>
 8003074:	e9c4 0100 	strd	r0, r1, [r4]
 8003078:	e012      	b.n	80030a0 <__ieee754_rem_pio2+0x1b8>
 800307a:	463b      	mov	r3, r7
 800307c:	4632      	mov	r2, r6
 800307e:	4640      	mov	r0, r8
 8003080:	4649      	mov	r1, r9
 8003082:	f7fd f91d 	bl	80002c0 <__aeabi_dsub>
 8003086:	ea4f 532a 	mov.w	r3, sl, asr #20
 800308a:	9305      	str	r3, [sp, #20]
 800308c:	f3c1 530a 	ubfx	r3, r1, #20, #11
 8003090:	ebc3 531a 	rsb	r3, r3, sl, lsr #20
 8003094:	2b10      	cmp	r3, #16
 8003096:	dc1f      	bgt.n	80030d8 <__ieee754_rem_pio2+0x1f0>
 8003098:	4602      	mov	r2, r0
 800309a:	460b      	mov	r3, r1
 800309c:	e9c4 2300 	strd	r2, r3, [r4]
 80030a0:	e9d4 2a00 	ldrd	r2, sl, [r4]
 80030a4:	4640      	mov	r0, r8
 80030a6:	4653      	mov	r3, sl
 80030a8:	4649      	mov	r1, r9
 80030aa:	f7fd f909 	bl	80002c0 <__aeabi_dsub>
 80030ae:	4632      	mov	r2, r6
 80030b0:	463b      	mov	r3, r7
 80030b2:	f7fd f905 	bl	80002c0 <__aeabi_dsub>
 80030b6:	460b      	mov	r3, r1
 80030b8:	e9c4 0102 	strd	r0, r1, [r4, #8]
 80030bc:	9904      	ldr	r1, [sp, #16]
 80030be:	4602      	mov	r2, r0
 80030c0:	2900      	cmp	r1, #0
 80030c2:	f6bf af48 	bge.w	8002f56 <__ieee754_rem_pio2+0x6e>
 80030c6:	f10a 4100 	add.w	r1, sl, #2147483648	; 0x80000000
 80030ca:	e9c4 1201 	strd	r1, r2, [r4, #4]
 80030ce:	f103 4300 	add.w	r3, r3, #2147483648	; 0x80000000
 80030d2:	60e3      	str	r3, [r4, #12]
 80030d4:	426d      	negs	r5, r5
 80030d6:	e73e      	b.n	8002f56 <__ieee754_rem_pio2+0x6e>
 80030d8:	a33d      	add	r3, pc, #244	; (adr r3, 80031d0 <__ieee754_rem_pio2+0x2e8>)
 80030da:	e9d3 2300 	ldrd	r2, r3, [r3]
 80030de:	e9dd 0102 	ldrd	r0, r1, [sp, #8]
 80030e2:	f7fd faa5 	bl	8000630 <__aeabi_dmul>
 80030e6:	4606      	mov	r6, r0
 80030e8:	460f      	mov	r7, r1
 80030ea:	4602      	mov	r2, r0
 80030ec:	460b      	mov	r3, r1
 80030ee:	4640      	mov	r0, r8
 80030f0:	4649      	mov	r1, r9
 80030f2:	f7fd f8e5 	bl	80002c0 <__aeabi_dsub>
 80030f6:	4602      	mov	r2, r0
 80030f8:	460b      	mov	r3, r1
 80030fa:	4682      	mov	sl, r0
 80030fc:	468b      	mov	fp, r1
 80030fe:	4640      	mov	r0, r8
 8003100:	4649      	mov	r1, r9
 8003102:	f7fd f8dd 	bl	80002c0 <__aeabi_dsub>
 8003106:	4632      	mov	r2, r6
 8003108:	463b      	mov	r3, r7
 800310a:	f7fd f8d9 	bl	80002c0 <__aeabi_dsub>
 800310e:	a332      	add	r3, pc, #200	; (adr r3, 80031d8 <__ieee754_rem_pio2+0x2f0>)
 8003110:	e9d3 2300 	ldrd	r2, r3, [r3]
 8003114:	4606      	mov	r6, r0
 8003116:	460f      	mov	r7, r1
 8003118:	e9dd 0102 	ldrd	r0, r1, [sp, #8]
 800311c:	f7fd fa88 	bl	8000630 <__aeabi_dmul>
 8003120:	4632      	mov	r2, r6
 8003122:	463b      	mov	r3, r7
 8003124:	f7fd f8cc 	bl	80002c0 <__aeabi_dsub>
 8003128:	4602      	mov	r2, r0
 800312a:	460b      	mov	r3, r1
 800312c:	4606      	mov	r6, r0
 800312e:	460f      	mov	r7, r1
 8003130:	4650      	mov	r0, sl
 8003132:	4659      	mov	r1, fp
 8003134:	f7fd f8c4 	bl	80002c0 <__aeabi_dsub>
 8003138:	9a05      	ldr	r2, [sp, #20]
 800313a:	f3c1 530a 	ubfx	r3, r1, #20, #11
 800313e:	1ad3      	subs	r3, r2, r3
 8003140:	2b31      	cmp	r3, #49	; 0x31
 8003142:	dc06      	bgt.n	8003152 <__ieee754_rem_pio2+0x26a>
 8003144:	4602      	mov	r2, r0
 8003146:	460b      	mov	r3, r1
 8003148:	46d0      	mov	r8, sl
 800314a:	46d9      	mov	r9, fp
 800314c:	e9c4 2300 	strd	r2, r3, [r4]
 8003150:	e7a6      	b.n	80030a0 <__ieee754_rem_pio2+0x1b8>
 8003152:	a325      	add	r3, pc, #148	; (adr r3, 80031e8 <__ieee754_rem_pio2+0x300>)
 8003154:	e9d3 2300 	ldrd	r2, r3, [r3]
 8003158:	e9dd 0102 	ldrd	r0, r1, [sp, #8]
 800315c:	f7fd fa68 	bl	8000630 <__aeabi_dmul>
 8003160:	4606      	mov	r6, r0
 8003162:	460f      	mov	r7, r1
 8003164:	4602      	mov	r2, r0
 8003166:	460b      	mov	r3, r1
 8003168:	4650      	mov	r0, sl
 800316a:	4659      	mov	r1, fp
 800316c:	f7fd f8a8 	bl	80002c0 <__aeabi_dsub>
 8003170:	4602      	mov	r2, r0
 8003172:	460b      	mov	r3, r1
 8003174:	4680      	mov	r8, r0
 8003176:	4689      	mov	r9, r1
 8003178:	4650      	mov	r0, sl
 800317a:	4659      	mov	r1, fp
 800317c:	f7fd f8a0 	bl	80002c0 <__aeabi_dsub>
 8003180:	4632      	mov	r2, r6
 8003182:	463b      	mov	r3, r7
 8003184:	f7fd f89c 	bl	80002c0 <__aeabi_dsub>
 8003188:	a319      	add	r3, pc, #100	; (adr r3, 80031f0 <__ieee754_rem_pio2+0x308>)
 800318a:	e9d3 2300 	ldrd	r2, r3, [r3]
 800318e:	4606      	mov	r6, r0
 8003190:	460f      	mov	r7, r1
 8003192:	e9dd 0102 	ldrd	r0, r1, [sp, #8]
 8003196:	f7fd fa4b 	bl	8000630 <__aeabi_dmul>
 800319a:	4632      	mov	r2, r6
 800319c:	463b      	mov	r3, r7
 800319e:	f7fd f88f 	bl	80002c0 <__aeabi_dsub>
 80031a2:	4606      	mov	r6, r0
 80031a4:	460f      	mov	r7, r1
 80031a6:	e75f      	b.n	8003068 <__ieee754_rem_pio2+0x180>
 80031a8:	4a19      	ldr	r2, [pc, #100]	; (8003210 <__ieee754_rem_pio2+0x328>)
 80031aa:	4592      	cmp	sl, r2
 80031ac:	dd32      	ble.n	8003214 <__ieee754_rem_pio2+0x32c>
 80031ae:	4602      	mov	r2, r0
 80031b0:	460b      	mov	r3, r1
 80031b2:	f7fd f885 	bl	80002c0 <__aeabi_dsub>
 80031b6:	e9c4 0102 	strd	r0, r1, [r4, #8]
 80031ba:	e9c4 0100 	strd	r0, r1, [r4]
 80031be:	e6a3      	b.n	8002f08 <__ieee754_rem_pio2+0x20>
 80031c0:	54400000 	.word	0x54400000
 80031c4:	3ff921fb 	.word	0x3ff921fb
 80031c8:	1a626331 	.word	0x1a626331
 80031cc:	3dd0b461 	.word	0x3dd0b461
 80031d0:	1a600000 	.word	0x1a600000
 80031d4:	3dd0b461 	.word	0x3dd0b461
 80031d8:	2e037073 	.word	0x2e037073
 80031dc:	3ba3198a 	.word	0x3ba3198a
 80031e0:	6dc9c883 	.word	0x6dc9c883
 80031e4:	3fe45f30 	.word	0x3fe45f30
 80031e8:	2e000000 	.word	0x2e000000
 80031ec:	3ba3198a 	.word	0x3ba3198a
 80031f0:	252049c1 	.word	0x252049c1
 80031f4:	397b839a 	.word	0x397b839a
 80031f8:	3fe921fb 	.word	0x3fe921fb
 80031fc:	4002d97b 	.word	0x4002d97b
 8003200:	3ff921fb 	.word	0x3ff921fb
 8003204:	413921fb 	.word	0x413921fb
 8003208:	3fe00000 	.word	0x3fe00000
 800320c:	08003b84 	.word	0x08003b84
 8003210:	7fefffff 	.word	0x7fefffff
 8003214:	ea4f 552a 	mov.w	r5, sl, asr #20
 8003218:	f2a5 4516 	subw	r5, r5, #1046	; 0x416
 800321c:	ebaa 5105 	sub.w	r1, sl, r5, lsl #20
 8003220:	460f      	mov	r7, r1
 8003222:	4606      	mov	r6, r0
 8003224:	f7fd fcb4 	bl	8000b90 <__aeabi_d2iz>
 8003228:	f7fd f998 	bl	800055c <__aeabi_i2d>
 800322c:	4602      	mov	r2, r0
 800322e:	460b      	mov	r3, r1
 8003230:	4630      	mov	r0, r6
 8003232:	4639      	mov	r1, r7
 8003234:	e9cd 2306 	strd	r2, r3, [sp, #24]
 8003238:	f7fd f842 	bl	80002c0 <__aeabi_dsub>
 800323c:	2200      	movs	r2, #0
 800323e:	4b22      	ldr	r3, [pc, #136]	; (80032c8 <__ieee754_rem_pio2+0x3e0>)
 8003240:	f7fd f9f6 	bl	8000630 <__aeabi_dmul>
 8003244:	460f      	mov	r7, r1
 8003246:	4606      	mov	r6, r0
 8003248:	f7fd fca2 	bl	8000b90 <__aeabi_d2iz>
 800324c:	f7fd f986 	bl	800055c <__aeabi_i2d>
 8003250:	4602      	mov	r2, r0
 8003252:	460b      	mov	r3, r1
 8003254:	4630      	mov	r0, r6
 8003256:	4639      	mov	r1, r7
 8003258:	e9cd 2308 	strd	r2, r3, [sp, #32]
 800325c:	f7fd f830 	bl	80002c0 <__aeabi_dsub>
 8003260:	2200      	movs	r2, #0
 8003262:	4b19      	ldr	r3, [pc, #100]	; (80032c8 <__ieee754_rem_pio2+0x3e0>)
 8003264:	f7fd f9e4 	bl	8000630 <__aeabi_dmul>
 8003268:	f04f 0803 	mov.w	r8, #3
 800326c:	2600      	movs	r6, #0
 800326e:	2700      	movs	r7, #0
 8003270:	e9cd 010a 	strd	r0, r1, [sp, #40]	; 0x28
 8003274:	f10d 0930 	add.w	r9, sp, #48	; 0x30
 8003278:	4632      	mov	r2, r6
 800327a:	e979 0102 	ldrd	r0, r1, [r9, #-8]!
 800327e:	463b      	mov	r3, r7
 8003280:	46c2      	mov	sl, r8
 8003282:	f108 38ff 	add.w	r8, r8, #4294967295
 8003286:	f7fd fc3b 	bl	8000b00 <__aeabi_dcmpeq>
 800328a:	2800      	cmp	r0, #0
 800328c:	d1f4      	bne.n	8003278 <__ieee754_rem_pio2+0x390>
 800328e:	4b0f      	ldr	r3, [pc, #60]	; (80032cc <__ieee754_rem_pio2+0x3e4>)
 8003290:	462a      	mov	r2, r5
 8003292:	9301      	str	r3, [sp, #4]
 8003294:	2302      	movs	r3, #2
 8003296:	4621      	mov	r1, r4
 8003298:	9300      	str	r3, [sp, #0]
 800329a:	a806      	add	r0, sp, #24
 800329c:	4653      	mov	r3, sl
 800329e:	f000 f817 	bl	80032d0 <__kernel_rem_pio2>
 80032a2:	9b04      	ldr	r3, [sp, #16]
 80032a4:	4605      	mov	r5, r0
 80032a6:	2b00      	cmp	r3, #0
 80032a8:	f6bf ae55 	bge.w	8002f56 <__ieee754_rem_pio2+0x6e>
 80032ac:	e9d4 2100 	ldrd	r2, r1, [r4]
 80032b0:	f101 4300 	add.w	r3, r1, #2147483648	; 0x80000000
 80032b4:	e9c4 2300 	strd	r2, r3, [r4]
 80032b8:	e9d4 2102 	ldrd	r2, r1, [r4, #8]
 80032bc:	f101 4300 	add.w	r3, r1, #2147483648	; 0x80000000
 80032c0:	e9c4 2302 	strd	r2, r3, [r4, #8]
 80032c4:	e706      	b.n	80030d4 <__ieee754_rem_pio2+0x1ec>
 80032c6:	bf00      	nop
 80032c8:	41700000 	.word	0x41700000
 80032cc:	08003c04 	.word	0x08003c04

080032d0 <__kernel_rem_pio2>:
 80032d0:	e92d 4ff0 	stmdb	sp!, {r4, r5, r6, r7, r8, r9, sl, fp, lr}
 80032d4:	f5ad 7d19 	sub.w	sp, sp, #612	; 0x264
 80032d8:	9308      	str	r3, [sp, #32]
 80032da:	9106      	str	r1, [sp, #24]
 80032dc:	4bb6      	ldr	r3, [pc, #728]	; (80035b8 <__kernel_rem_pio2+0x2e8>)
 80032de:	99a2      	ldr	r1, [sp, #648]	; 0x288
 80032e0:	f112 0f14 	cmn.w	r2, #20
 80032e4:	f853 3021 	ldr.w	r3, [r3, r1, lsl #2]
 80032e8:	bfa8      	it	ge
 80032ea:	1ed4      	subge	r4, r2, #3
 80032ec:	9302      	str	r3, [sp, #8]
 80032ee:	9b08      	ldr	r3, [sp, #32]
 80032f0:	bfb8      	it	lt
 80032f2:	2400      	movlt	r4, #0
 80032f4:	f103 33ff 	add.w	r3, r3, #4294967295
 80032f8:	9307      	str	r3, [sp, #28]
 80032fa:	bfa4      	itt	ge
 80032fc:	2318      	movge	r3, #24
 80032fe:	fb94 f4f3 	sdivge	r4, r4, r3
 8003302:	f06f 0317 	mvn.w	r3, #23
 8003306:	fb04 3303 	mla	r3, r4, r3, r3
 800330a:	eb03 0b02 	add.w	fp, r3, r2
 800330e:	9a07      	ldr	r2, [sp, #28]
 8003310:	9b02      	ldr	r3, [sp, #8]
 8003312:	1aa7      	subs	r7, r4, r2
 8003314:	eb03 0802 	add.w	r8, r3, r2
 8003318:	9ba3      	ldr	r3, [sp, #652]	; 0x28c
 800331a:	2500      	movs	r5, #0
 800331c:	eb03 0987 	add.w	r9, r3, r7, lsl #2
 8003320:	2200      	movs	r2, #0
 8003322:	2300      	movs	r3, #0
 8003324:	9009      	str	r0, [sp, #36]	; 0x24
 8003326:	ae20      	add	r6, sp, #128	; 0x80
 8003328:	4545      	cmp	r5, r8
 800332a:	dd14      	ble.n	8003356 <__kernel_rem_pio2+0x86>
 800332c:	f04f 0800 	mov.w	r8, #0
 8003330:	9a08      	ldr	r2, [sp, #32]
 8003332:	ab20      	add	r3, sp, #128	; 0x80
 8003334:	eb03 05c2 	add.w	r5, r3, r2, lsl #3
 8003338:	f50d 7ae0 	add.w	sl, sp, #448	; 0x1c0
 800333c:	9b02      	ldr	r3, [sp, #8]
 800333e:	4598      	cmp	r8, r3
 8003340:	dc35      	bgt.n	80033ae <__kernel_rem_pio2+0xde>
 8003342:	9b09      	ldr	r3, [sp, #36]	; 0x24
 8003344:	2200      	movs	r2, #0
 8003346:	f1a3 0908 	sub.w	r9, r3, #8
 800334a:	2300      	movs	r3, #0
 800334c:	462f      	mov	r7, r5
 800334e:	2600      	movs	r6, #0
 8003350:	e9cd 2300 	strd	r2, r3, [sp]
 8003354:	e01f      	b.n	8003396 <__kernel_rem_pio2+0xc6>
 8003356:	42ef      	cmn	r7, r5
 8003358:	d40b      	bmi.n	8003372 <__kernel_rem_pio2+0xa2>
 800335a:	f859 0025 	ldr.w	r0, [r9, r5, lsl #2]
 800335e:	e9cd 2300 	strd	r2, r3, [sp]
 8003362:	f7fd f8fb 	bl	800055c <__aeabi_i2d>
 8003366:	e9dd 2300 	ldrd	r2, r3, [sp]
 800336a:	e8e6 0102 	strd	r0, r1, [r6], #8
 800336e:	3501      	adds	r5, #1
 8003370:	e7da      	b.n	8003328 <__kernel_rem_pio2+0x58>
 8003372:	4610      	mov	r0, r2
 8003374:	4619      	mov	r1, r3
 8003376:	e7f8      	b.n	800336a <__kernel_rem_pio2+0x9a>
 8003378:	e9d7 2300 	ldrd	r2, r3, [r7]
 800337c:	e9f9 0102 	ldrd	r0, r1, [r9, #8]!
 8003380:	f7fd f956 	bl	8000630 <__aeabi_dmul>
 8003384:	4602      	mov	r2, r0
 8003386:	460b      	mov	r3, r1
 8003388:	e9dd 0100 	ldrd	r0, r1, [sp]
 800338c:	f7fc ff9a 	bl	80002c4 <__adddf3>
 8003390:	e9cd 0100 	strd	r0, r1, [sp]
 8003394:	3601      	adds	r6, #1
 8003396:	9b07      	ldr	r3, [sp, #28]
 8003398:	3f08      	subs	r7, #8
 800339a:	429e      	cmp	r6, r3
 800339c:	ddec      	ble.n	8003378 <__kernel_rem_pio2+0xa8>
 800339e:	e9dd 2300 	ldrd	r2, r3, [sp]
 80033a2:	f108 0801 	add.w	r8, r8, #1
 80033a6:	e8ea 2302 	strd	r2, r3, [sl], #8
 80033aa:	3508      	adds	r5, #8
 80033ac:	e7c6      	b.n	800333c <__kernel_rem_pio2+0x6c>
 80033ae:	9b02      	ldr	r3, [sp, #8]
 80033b0:	aa0c      	add	r2, sp, #48	; 0x30
 80033b2:	eb02 0383 	add.w	r3, r2, r3, lsl #2
 80033b6:	930b      	str	r3, [sp, #44]	; 0x2c
 80033b8:	9ba3      	ldr	r3, [sp, #652]	; 0x28c
 80033ba:	9e02      	ldr	r6, [sp, #8]
 80033bc:	eb03 0384 	add.w	r3, r3, r4, lsl #2
 80033c0:	930a      	str	r3, [sp, #40]	; 0x28
 80033c2:	ab98      	add	r3, sp, #608	; 0x260
 80033c4:	eb03 03c6 	add.w	r3, r3, r6, lsl #3
 80033c8:	e953 4528 	ldrd	r4, r5, [r3, #-160]	; 0xa0
 80033cc:	ab70      	add	r3, sp, #448	; 0x1c0
 80033ce:	eb03 0ac6 	add.w	sl, r3, r6, lsl #3
 80033d2:	46d0      	mov	r8, sl
 80033d4:	46b1      	mov	r9, r6
 80033d6:	af0c      	add	r7, sp, #48	; 0x30
 80033d8:	9700      	str	r7, [sp, #0]
 80033da:	f1b9 0f00 	cmp.w	r9, #0
 80033de:	f1a8 0808 	sub.w	r8, r8, #8
 80033e2:	dc70      	bgt.n	80034c6 <__kernel_rem_pio2+0x1f6>
 80033e4:	465a      	mov	r2, fp
 80033e6:	4620      	mov	r0, r4
 80033e8:	4629      	mov	r1, r5
 80033ea:	f000 fab1 	bl	8003950 <scalbn>
 80033ee:	2200      	movs	r2, #0
 80033f0:	f04f 537f 	mov.w	r3, #1069547520	; 0x3fc00000
 80033f4:	4604      	mov	r4, r0
 80033f6:	460d      	mov	r5, r1
 80033f8:	f7fd f91a 	bl	8000630 <__aeabi_dmul>
 80033fc:	f000 fb24 	bl	8003a48 <floor>
 8003400:	2200      	movs	r2, #0
 8003402:	4b6e      	ldr	r3, [pc, #440]	; (80035bc <__kernel_rem_pio2+0x2ec>)
 8003404:	f7fd f914 	bl	8000630 <__aeabi_dmul>
 8003408:	4602      	mov	r2, r0
 800340a:	460b      	mov	r3, r1
 800340c:	4620      	mov	r0, r4
 800340e:	4629      	mov	r1, r5
 8003410:	f7fc ff56 	bl	80002c0 <__aeabi_dsub>
 8003414:	460d      	mov	r5, r1
 8003416:	4604      	mov	r4, r0
 8003418:	f7fd fbba 	bl	8000b90 <__aeabi_d2iz>
 800341c:	9004      	str	r0, [sp, #16]
 800341e:	f7fd f89d 	bl	800055c <__aeabi_i2d>
 8003422:	4602      	mov	r2, r0
 8003424:	460b      	mov	r3, r1
 8003426:	4620      	mov	r0, r4
 8003428:	4629      	mov	r1, r5
 800342a:	f7fc ff49 	bl	80002c0 <__aeabi_dsub>
 800342e:	f1bb 0f00 	cmp.w	fp, #0
 8003432:	4680      	mov	r8, r0
 8003434:	4689      	mov	r9, r1
 8003436:	dd6f      	ble.n	8003518 <__kernel_rem_pio2+0x248>
 8003438:	1e71      	subs	r1, r6, #1
 800343a:	ab0c      	add	r3, sp, #48	; 0x30
 800343c:	f853 3021 	ldr.w	r3, [r3, r1, lsl #2]
 8003440:	9c04      	ldr	r4, [sp, #16]
 8003442:	f1cb 0018 	rsb	r0, fp, #24
 8003446:	fa43 f200 	asr.w	r2, r3, r0
 800344a:	4414      	add	r4, r2
 800344c:	4082      	lsls	r2, r0
 800344e:	1a9b      	subs	r3, r3, r2
 8003450:	aa0c      	add	r2, sp, #48	; 0x30
 8003452:	f842 3021 	str.w	r3, [r2, r1, lsl #2]
 8003456:	f1cb 0217 	rsb	r2, fp, #23
 800345a:	9404      	str	r4, [sp, #16]
 800345c:	4113      	asrs	r3, r2
 800345e:	9300      	str	r3, [sp, #0]
 8003460:	9b00      	ldr	r3, [sp, #0]
 8003462:	2b00      	cmp	r3, #0
 8003464:	dd66      	ble.n	8003534 <__kernel_rem_pio2+0x264>
 8003466:	2200      	movs	r2, #0
 8003468:	f06f 417f 	mvn.w	r1, #4278190080	; 0xff000000
 800346c:	4614      	mov	r4, r2
 800346e:	9b04      	ldr	r3, [sp, #16]
 8003470:	3301      	adds	r3, #1
 8003472:	9304      	str	r3, [sp, #16]
 8003474:	4296      	cmp	r6, r2
 8003476:	f300 80ad 	bgt.w	80035d4 <__kernel_rem_pio2+0x304>
 800347a:	f1bb 0f00 	cmp.w	fp, #0
 800347e:	dd07      	ble.n	8003490 <__kernel_rem_pio2+0x1c0>
 8003480:	f1bb 0f01 	cmp.w	fp, #1
 8003484:	f000 80b5 	beq.w	80035f2 <__kernel_rem_pio2+0x322>
 8003488:	f1bb 0f02 	cmp.w	fp, #2
 800348c:	f000 80bb 	beq.w	8003606 <__kernel_rem_pio2+0x336>
 8003490:	9b00      	ldr	r3, [sp, #0]
 8003492:	2b02      	cmp	r3, #2
 8003494:	d14e      	bne.n	8003534 <__kernel_rem_pio2+0x264>
 8003496:	4642      	mov	r2, r8
 8003498:	464b      	mov	r3, r9
 800349a:	2000      	movs	r0, #0
 800349c:	4948      	ldr	r1, [pc, #288]	; (80035c0 <__kernel_rem_pio2+0x2f0>)
 800349e:	f7fc ff0f 	bl	80002c0 <__aeabi_dsub>
 80034a2:	4680      	mov	r8, r0
 80034a4:	4689      	mov	r9, r1
 80034a6:	2c00      	cmp	r4, #0
 80034a8:	d044      	beq.n	8003534 <__kernel_rem_pio2+0x264>
 80034aa:	465a      	mov	r2, fp
 80034ac:	2000      	movs	r0, #0
 80034ae:	4944      	ldr	r1, [pc, #272]	; (80035c0 <__kernel_rem_pio2+0x2f0>)
 80034b0:	f000 fa4e 	bl	8003950 <scalbn>
 80034b4:	4602      	mov	r2, r0
 80034b6:	460b      	mov	r3, r1
 80034b8:	4640      	mov	r0, r8
 80034ba:	4649      	mov	r1, r9
 80034bc:	f7fc ff00 	bl	80002c0 <__aeabi_dsub>
 80034c0:	4680      	mov	r8, r0
 80034c2:	4689      	mov	r9, r1
 80034c4:	e036      	b.n	8003534 <__kernel_rem_pio2+0x264>
 80034c6:	2200      	movs	r2, #0
 80034c8:	4b3e      	ldr	r3, [pc, #248]	; (80035c4 <__kernel_rem_pio2+0x2f4>)
 80034ca:	4620      	mov	r0, r4
 80034cc:	4629      	mov	r1, r5
 80034ce:	f7fd f8af 	bl	8000630 <__aeabi_dmul>
 80034d2:	f7fd fb5d 	bl	8000b90 <__aeabi_d2iz>
 80034d6:	f7fd f841 	bl	800055c <__aeabi_i2d>
 80034da:	4602      	mov	r2, r0
 80034dc:	460b      	mov	r3, r1
 80034de:	e9cd 2304 	strd	r2, r3, [sp, #16]
 80034e2:	2200      	movs	r2, #0
 80034e4:	4b38      	ldr	r3, [pc, #224]	; (80035c8 <__kernel_rem_pio2+0x2f8>)
 80034e6:	f7fd f8a3 	bl	8000630 <__aeabi_dmul>
 80034ea:	4602      	mov	r2, r0
 80034ec:	460b      	mov	r3, r1
 80034ee:	4620      	mov	r0, r4
 80034f0:	4629      	mov	r1, r5
 80034f2:	f7fc fee5 	bl	80002c0 <__aeabi_dsub>
 80034f6:	f7fd fb4b 	bl	8000b90 <__aeabi_d2iz>
 80034fa:	9b00      	ldr	r3, [sp, #0]
 80034fc:	f109 39ff 	add.w	r9, r9, #4294967295
 8003500:	f843 0b04 	str.w	r0, [r3], #4
 8003504:	9300      	str	r3, [sp, #0]
 8003506:	e9dd 0104 	ldrd	r0, r1, [sp, #16]
 800350a:	e9d8 2300 	ldrd	r2, r3, [r8]
 800350e:	f7fc fed9 	bl	80002c4 <__adddf3>
 8003512:	4604      	mov	r4, r0
 8003514:	460d      	mov	r5, r1
 8003516:	e760      	b.n	80033da <__kernel_rem_pio2+0x10a>
 8003518:	d105      	bne.n	8003526 <__kernel_rem_pio2+0x256>
 800351a:	1e73      	subs	r3, r6, #1
 800351c:	aa0c      	add	r2, sp, #48	; 0x30
 800351e:	f852 3023 	ldr.w	r3, [r2, r3, lsl #2]
 8003522:	15db      	asrs	r3, r3, #23
 8003524:	e79b      	b.n	800345e <__kernel_rem_pio2+0x18e>
 8003526:	2200      	movs	r2, #0
 8003528:	4b28      	ldr	r3, [pc, #160]	; (80035cc <__kernel_rem_pio2+0x2fc>)
 800352a:	f7fd fb07 	bl	8000b3c <__aeabi_dcmpge>
 800352e:	2800      	cmp	r0, #0
 8003530:	d13e      	bne.n	80035b0 <__kernel_rem_pio2+0x2e0>
 8003532:	9000      	str	r0, [sp, #0]
 8003534:	2200      	movs	r2, #0
 8003536:	2300      	movs	r3, #0
 8003538:	4640      	mov	r0, r8
 800353a:	4649      	mov	r1, r9
 800353c:	f7fd fae0 	bl	8000b00 <__aeabi_dcmpeq>
 8003540:	2800      	cmp	r0, #0
 8003542:	f000 80b2 	beq.w	80036aa <__kernel_rem_pio2+0x3da>
 8003546:	1e74      	subs	r4, r6, #1
 8003548:	4623      	mov	r3, r4
 800354a:	2200      	movs	r2, #0
 800354c:	9902      	ldr	r1, [sp, #8]
 800354e:	428b      	cmp	r3, r1
 8003550:	da60      	bge.n	8003614 <__kernel_rem_pio2+0x344>
 8003552:	2a00      	cmp	r2, #0
 8003554:	d075      	beq.n	8003642 <__kernel_rem_pio2+0x372>
 8003556:	ab0c      	add	r3, sp, #48	; 0x30
 8003558:	f853 3024 	ldr.w	r3, [r3, r4, lsl #2]
 800355c:	f1ab 0b18 	sub.w	fp, fp, #24
 8003560:	2b00      	cmp	r3, #0
 8003562:	f000 80a0 	beq.w	80036a6 <__kernel_rem_pio2+0x3d6>
 8003566:	465a      	mov	r2, fp
 8003568:	2000      	movs	r0, #0
 800356a:	4915      	ldr	r1, [pc, #84]	; (80035c0 <__kernel_rem_pio2+0x2f0>)
 800356c:	f000 f9f0 	bl	8003950 <scalbn>
 8003570:	46a2      	mov	sl, r4
 8003572:	4606      	mov	r6, r0
 8003574:	460f      	mov	r7, r1
 8003576:	f04f 0800 	mov.w	r8, #0
 800357a:	ab70      	add	r3, sp, #448	; 0x1c0
 800357c:	f8df 9044 	ldr.w	r9, [pc, #68]	; 80035c4 <__kernel_rem_pio2+0x2f4>
 8003580:	00e5      	lsls	r5, r4, #3
 8003582:	eb03 0bc4 	add.w	fp, r3, r4, lsl #3
 8003586:	f1ba 0f00 	cmp.w	sl, #0
 800358a:	f280 80c4 	bge.w	8003716 <__kernel_rem_pio2+0x446>
 800358e:	4626      	mov	r6, r4
 8003590:	2e00      	cmp	r6, #0
 8003592:	f2c0 80f6 	blt.w	8003782 <__kernel_rem_pio2+0x4b2>
 8003596:	4b0e      	ldr	r3, [pc, #56]	; (80035d0 <__kernel_rem_pio2+0x300>)
 8003598:	f04f 0a00 	mov.w	sl, #0
 800359c:	9307      	str	r3, [sp, #28]
 800359e:	ab70      	add	r3, sp, #448	; 0x1c0
 80035a0:	f04f 0b00 	mov.w	fp, #0
 80035a4:	f04f 0800 	mov.w	r8, #0
 80035a8:	eb03 09c6 	add.w	r9, r3, r6, lsl #3
 80035ac:	1ba7      	subs	r7, r4, r6
 80035ae:	e0dc      	b.n	800376a <__kernel_rem_pio2+0x49a>
 80035b0:	2302      	movs	r3, #2
 80035b2:	9300      	str	r3, [sp, #0]
 80035b4:	e757      	b.n	8003466 <__kernel_rem_pio2+0x196>
 80035b6:	bf00      	nop
 80035b8:	08003d50 	.word	0x08003d50
 80035bc:	40200000 	.word	0x40200000
 80035c0:	3ff00000 	.word	0x3ff00000
 80035c4:	3e700000 	.word	0x3e700000
 80035c8:	41700000 	.word	0x41700000
 80035cc:	3fe00000 	.word	0x3fe00000
 80035d0:	08003d10 	.word	0x08003d10
 80035d4:	683b      	ldr	r3, [r7, #0]
 80035d6:	b944      	cbnz	r4, 80035ea <__kernel_rem_pio2+0x31a>
 80035d8:	b11b      	cbz	r3, 80035e2 <__kernel_rem_pio2+0x312>
 80035da:	f1c3 7380 	rsb	r3, r3, #16777216	; 0x1000000
 80035de:	603b      	str	r3, [r7, #0]
 80035e0:	2301      	movs	r3, #1
 80035e2:	461c      	mov	r4, r3
 80035e4:	3201      	adds	r2, #1
 80035e6:	3704      	adds	r7, #4
 80035e8:	e744      	b.n	8003474 <__kernel_rem_pio2+0x1a4>
 80035ea:	1acb      	subs	r3, r1, r3
 80035ec:	603b      	str	r3, [r7, #0]
 80035ee:	4623      	mov	r3, r4
 80035f0:	e7f7      	b.n	80035e2 <__kernel_rem_pio2+0x312>
 80035f2:	1e72      	subs	r2, r6, #1
 80035f4:	ab0c      	add	r3, sp, #48	; 0x30
 80035f6:	f853 3022 	ldr.w	r3, [r3, r2, lsl #2]
 80035fa:	f3c3 0316 	ubfx	r3, r3, #0, #23
 80035fe:	a90c      	add	r1, sp, #48	; 0x30
 8003600:	f841 3022 	str.w	r3, [r1, r2, lsl #2]
 8003604:	e744      	b.n	8003490 <__kernel_rem_pio2+0x1c0>
 8003606:	1e72      	subs	r2, r6, #1
 8003608:	ab0c      	add	r3, sp, #48	; 0x30
 800360a:	f853 3022 	ldr.w	r3, [r3, r2, lsl #2]
 800360e:	f3c3 0315 	ubfx	r3, r3, #0, #22
 8003612:	e7f4      	b.n	80035fe <__kernel_rem_pio2+0x32e>
 8003614:	a90c      	add	r1, sp, #48	; 0x30
 8003616:	f851 1023 	ldr.w	r1, [r1, r3, lsl #2]
 800361a:	3b01      	subs	r3, #1
 800361c:	430a      	orrs	r2, r1
 800361e:	e795      	b.n	800354c <__kernel_rem_pio2+0x27c>
 8003620:	3301      	adds	r3, #1
 8003622:	f852 1d04 	ldr.w	r1, [r2, #-4]!
 8003626:	2900      	cmp	r1, #0
 8003628:	d0fa      	beq.n	8003620 <__kernel_rem_pio2+0x350>
 800362a:	9a08      	ldr	r2, [sp, #32]
 800362c:	a920      	add	r1, sp, #128	; 0x80
 800362e:	18b2      	adds	r2, r6, r2
 8003630:	f106 0801 	add.w	r8, r6, #1
 8003634:	eb01 05c2 	add.w	r5, r1, r2, lsl #3
 8003638:	18f4      	adds	r4, r6, r3
 800363a:	4544      	cmp	r4, r8
 800363c:	da04      	bge.n	8003648 <__kernel_rem_pio2+0x378>
 800363e:	4626      	mov	r6, r4
 8003640:	e6bf      	b.n	80033c2 <__kernel_rem_pio2+0xf2>
 8003642:	2301      	movs	r3, #1
 8003644:	9a0b      	ldr	r2, [sp, #44]	; 0x2c
 8003646:	e7ec      	b.n	8003622 <__kernel_rem_pio2+0x352>
 8003648:	9b0a      	ldr	r3, [sp, #40]	; 0x28
 800364a:	f04f 0900 	mov.w	r9, #0
 800364e:	f853 0028 	ldr.w	r0, [r3, r8, lsl #2]
 8003652:	f7fc ff83 	bl	800055c <__aeabi_i2d>
 8003656:	2600      	movs	r6, #0
 8003658:	2700      	movs	r7, #0
 800365a:	9b09      	ldr	r3, [sp, #36]	; 0x24
 800365c:	e9c5 0100 	strd	r0, r1, [r5]
 8003660:	3b08      	subs	r3, #8
 8003662:	9300      	str	r3, [sp, #0]
 8003664:	9504      	str	r5, [sp, #16]
 8003666:	9b07      	ldr	r3, [sp, #28]
 8003668:	4599      	cmp	r9, r3
 800366a:	dd05      	ble.n	8003678 <__kernel_rem_pio2+0x3a8>
 800366c:	e9ea 6702 	strd	r6, r7, [sl, #8]!
 8003670:	f108 0801 	add.w	r8, r8, #1
 8003674:	3508      	adds	r5, #8
 8003676:	e7e0      	b.n	800363a <__kernel_rem_pio2+0x36a>
 8003678:	f8dd c010 	ldr.w	ip, [sp, #16]
 800367c:	9900      	ldr	r1, [sp, #0]
 800367e:	f109 0901 	add.w	r9, r9, #1
 8003682:	e9f1 2302 	ldrd	r2, r3, [r1, #8]!
 8003686:	9100      	str	r1, [sp, #0]
 8003688:	e87c 0102 	ldrd	r0, r1, [ip], #-8
 800368c:	f8cd c010 	str.w	ip, [sp, #16]
 8003690:	f7fc ffce 	bl	8000630 <__aeabi_dmul>
 8003694:	4602      	mov	r2, r0
 8003696:	460b      	mov	r3, r1
 8003698:	4630      	mov	r0, r6
 800369a:	4639      	mov	r1, r7
 800369c:	f7fc fe12 	bl	80002c4 <__adddf3>
 80036a0:	4606      	mov	r6, r0
 80036a2:	460f      	mov	r7, r1
 80036a4:	e7df      	b.n	8003666 <__kernel_rem_pio2+0x396>
 80036a6:	3c01      	subs	r4, #1
 80036a8:	e755      	b.n	8003556 <__kernel_rem_pio2+0x286>
 80036aa:	f1cb 0200 	rsb	r2, fp, #0
 80036ae:	4640      	mov	r0, r8
 80036b0:	4649      	mov	r1, r9
 80036b2:	f000 f94d 	bl	8003950 <scalbn>
 80036b6:	2200      	movs	r2, #0
 80036b8:	4ba3      	ldr	r3, [pc, #652]	; (8003948 <__kernel_rem_pio2+0x678>)
 80036ba:	4604      	mov	r4, r0
 80036bc:	460d      	mov	r5, r1
 80036be:	f7fd fa3d 	bl	8000b3c <__aeabi_dcmpge>
 80036c2:	b1f8      	cbz	r0, 8003704 <__kernel_rem_pio2+0x434>
 80036c4:	2200      	movs	r2, #0
 80036c6:	4ba1      	ldr	r3, [pc, #644]	; (800394c <__kernel_rem_pio2+0x67c>)
 80036c8:	4620      	mov	r0, r4
 80036ca:	4629      	mov	r1, r5
 80036cc:	f7fc ffb0 	bl	8000630 <__aeabi_dmul>
 80036d0:	f7fd fa5e 	bl	8000b90 <__aeabi_d2iz>
 80036d4:	4607      	mov	r7, r0
 80036d6:	f7fc ff41 	bl	800055c <__aeabi_i2d>
 80036da:	2200      	movs	r2, #0
 80036dc:	4b9a      	ldr	r3, [pc, #616]	; (8003948 <__kernel_rem_pio2+0x678>)
 80036de:	f7fc ffa7 	bl	8000630 <__aeabi_dmul>
 80036e2:	460b      	mov	r3, r1
 80036e4:	4602      	mov	r2, r0
 80036e6:	4629      	mov	r1, r5
 80036e8:	4620      	mov	r0, r4
 80036ea:	f7fc fde9 	bl	80002c0 <__aeabi_dsub>
 80036ee:	f7fd fa4f 	bl	8000b90 <__aeabi_d2iz>
 80036f2:	1c74      	adds	r4, r6, #1
 80036f4:	ab0c      	add	r3, sp, #48	; 0x30
 80036f6:	f843 0026 	str.w	r0, [r3, r6, lsl #2]
 80036fa:	f10b 0b18 	add.w	fp, fp, #24
 80036fe:	f843 7024 	str.w	r7, [r3, r4, lsl #2]
 8003702:	e730      	b.n	8003566 <__kernel_rem_pio2+0x296>
 8003704:	4620      	mov	r0, r4
 8003706:	4629      	mov	r1, r5
 8003708:	f7fd fa42 	bl	8000b90 <__aeabi_d2iz>
 800370c:	ab0c      	add	r3, sp, #48	; 0x30
 800370e:	4634      	mov	r4, r6
 8003710:	f843 0026 	str.w	r0, [r3, r6, lsl #2]
 8003714:	e727      	b.n	8003566 <__kernel_rem_pio2+0x296>
 8003716:	ab0c      	add	r3, sp, #48	; 0x30
 8003718:	f853 002a 	ldr.w	r0, [r3, sl, lsl #2]
 800371c:	f7fc ff1e 	bl	800055c <__aeabi_i2d>
 8003720:	4632      	mov	r2, r6
 8003722:	463b      	mov	r3, r7
 8003724:	f7fc ff84 	bl	8000630 <__aeabi_dmul>
 8003728:	4642      	mov	r2, r8
 800372a:	e86b 0102 	strd	r0, r1, [fp], #-8
 800372e:	464b      	mov	r3, r9
 8003730:	4630      	mov	r0, r6
 8003732:	4639      	mov	r1, r7
 8003734:	f7fc ff7c 	bl	8000630 <__aeabi_dmul>
 8003738:	f10a 3aff 	add.w	sl, sl, #4294967295
 800373c:	4606      	mov	r6, r0
 800373e:	460f      	mov	r7, r1
 8003740:	e721      	b.n	8003586 <__kernel_rem_pio2+0x2b6>
 8003742:	f8dd c01c 	ldr.w	ip, [sp, #28]
 8003746:	e8f9 2302 	ldrd	r2, r3, [r9], #8
 800374a:	e8fc 0102 	ldrd	r0, r1, [ip], #8
 800374e:	f8cd c01c 	str.w	ip, [sp, #28]
 8003752:	f7fc ff6d 	bl	8000630 <__aeabi_dmul>
 8003756:	4602      	mov	r2, r0
 8003758:	460b      	mov	r3, r1
 800375a:	4650      	mov	r0, sl
 800375c:	4659      	mov	r1, fp
 800375e:	f7fc fdb1 	bl	80002c4 <__adddf3>
 8003762:	4682      	mov	sl, r0
 8003764:	468b      	mov	fp, r1
 8003766:	f108 0801 	add.w	r8, r8, #1
 800376a:	9b02      	ldr	r3, [sp, #8]
 800376c:	4598      	cmp	r8, r3
 800376e:	dc01      	bgt.n	8003774 <__kernel_rem_pio2+0x4a4>
 8003770:	45b8      	cmp	r8, r7
 8003772:	dde6      	ble.n	8003742 <__kernel_rem_pio2+0x472>
 8003774:	ab48      	add	r3, sp, #288	; 0x120
 8003776:	eb03 07c7 	add.w	r7, r3, r7, lsl #3
 800377a:	e9c7 ab00 	strd	sl, fp, [r7]
 800377e:	3e01      	subs	r6, #1
 8003780:	e706      	b.n	8003590 <__kernel_rem_pio2+0x2c0>
 8003782:	9ba2      	ldr	r3, [sp, #648]	; 0x288
 8003784:	2b02      	cmp	r3, #2
 8003786:	dc09      	bgt.n	800379c <__kernel_rem_pio2+0x4cc>
 8003788:	2b00      	cmp	r3, #0
 800378a:	dc32      	bgt.n	80037f2 <__kernel_rem_pio2+0x522>
 800378c:	d058      	beq.n	8003840 <__kernel_rem_pio2+0x570>
 800378e:	9b04      	ldr	r3, [sp, #16]
 8003790:	f003 0007 	and.w	r0, r3, #7
 8003794:	f50d 7d19 	add.w	sp, sp, #612	; 0x264
 8003798:	e8bd 8ff0 	ldmia.w	sp!, {r4, r5, r6, r7, r8, r9, sl, fp, pc}
 800379c:	9ba2      	ldr	r3, [sp, #648]	; 0x288
 800379e:	2b03      	cmp	r3, #3
 80037a0:	d1f5      	bne.n	800378e <__kernel_rem_pio2+0x4be>
 80037a2:	ab48      	add	r3, sp, #288	; 0x120
 80037a4:	441d      	add	r5, r3
 80037a6:	46aa      	mov	sl, r5
 80037a8:	46a3      	mov	fp, r4
 80037aa:	f1bb 0f00 	cmp.w	fp, #0
 80037ae:	dc74      	bgt.n	800389a <__kernel_rem_pio2+0x5ca>
 80037b0:	46aa      	mov	sl, r5
 80037b2:	46a3      	mov	fp, r4
 80037b4:	f1bb 0f01 	cmp.w	fp, #1
 80037b8:	f300 808e 	bgt.w	80038d8 <__kernel_rem_pio2+0x608>
 80037bc:	2700      	movs	r7, #0
 80037be:	463e      	mov	r6, r7
 80037c0:	2c01      	cmp	r4, #1
 80037c2:	f300 80a8 	bgt.w	8003916 <__kernel_rem_pio2+0x646>
 80037c6:	e9dd 5048 	ldrd	r5, r0, [sp, #288]	; 0x120
 80037ca:	e9dd 414a 	ldrd	r4, r1, [sp, #296]	; 0x128
 80037ce:	9b00      	ldr	r3, [sp, #0]
 80037d0:	2b00      	cmp	r3, #0
 80037d2:	f040 80aa 	bne.w	800392a <__kernel_rem_pio2+0x65a>
 80037d6:	4603      	mov	r3, r0
 80037d8:	462a      	mov	r2, r5
 80037da:	9806      	ldr	r0, [sp, #24]
 80037dc:	e9c0 2300 	strd	r2, r3, [r0]
 80037e0:	4622      	mov	r2, r4
 80037e2:	460b      	mov	r3, r1
 80037e4:	e9c0 2302 	strd	r2, r3, [r0, #8]
 80037e8:	463a      	mov	r2, r7
 80037ea:	4633      	mov	r3, r6
 80037ec:	e9c0 2304 	strd	r2, r3, [r0, #16]
 80037f0:	e7cd      	b.n	800378e <__kernel_rem_pio2+0x4be>
 80037f2:	2000      	movs	r0, #0
 80037f4:	46a0      	mov	r8, r4
 80037f6:	4601      	mov	r1, r0
 80037f8:	ab48      	add	r3, sp, #288	; 0x120
 80037fa:	441d      	add	r5, r3
 80037fc:	f1b8 0f00 	cmp.w	r8, #0
 8003800:	da38      	bge.n	8003874 <__kernel_rem_pio2+0x5a4>
 8003802:	9b00      	ldr	r3, [sp, #0]
 8003804:	2b00      	cmp	r3, #0
 8003806:	d03c      	beq.n	8003882 <__kernel_rem_pio2+0x5b2>
 8003808:	f101 4500 	add.w	r5, r1, #2147483648	; 0x80000000
 800380c:	4602      	mov	r2, r0
 800380e:	462b      	mov	r3, r5
 8003810:	9d06      	ldr	r5, [sp, #24]
 8003812:	2601      	movs	r6, #1
 8003814:	e9c5 2300 	strd	r2, r3, [r5]
 8003818:	460b      	mov	r3, r1
 800381a:	e9dd 0148 	ldrd	r0, r1, [sp, #288]	; 0x120
 800381e:	f7fc fd4f 	bl	80002c0 <__aeabi_dsub>
 8003822:	4684      	mov	ip, r0
 8003824:	460f      	mov	r7, r1
 8003826:	ad48      	add	r5, sp, #288	; 0x120
 8003828:	42b4      	cmp	r4, r6
 800382a:	da2c      	bge.n	8003886 <__kernel_rem_pio2+0x5b6>
 800382c:	9b00      	ldr	r3, [sp, #0]
 800382e:	b10b      	cbz	r3, 8003834 <__kernel_rem_pio2+0x564>
 8003830:	f107 4700 	add.w	r7, r7, #2147483648	; 0x80000000
 8003834:	4662      	mov	r2, ip
 8003836:	463b      	mov	r3, r7
 8003838:	9906      	ldr	r1, [sp, #24]
 800383a:	e9c1 2302 	strd	r2, r3, [r1, #8]
 800383e:	e7a6      	b.n	800378e <__kernel_rem_pio2+0x4be>
 8003840:	9ea2      	ldr	r6, [sp, #648]	; 0x288
 8003842:	ab48      	add	r3, sp, #288	; 0x120
 8003844:	4637      	mov	r7, r6
 8003846:	441d      	add	r5, r3
 8003848:	2c00      	cmp	r4, #0
 800384a:	da09      	bge.n	8003860 <__kernel_rem_pio2+0x590>
 800384c:	9b00      	ldr	r3, [sp, #0]
 800384e:	b10b      	cbz	r3, 8003854 <__kernel_rem_pio2+0x584>
 8003850:	f107 4700 	add.w	r7, r7, #2147483648	; 0x80000000
 8003854:	4632      	mov	r2, r6
 8003856:	463b      	mov	r3, r7
 8003858:	9906      	ldr	r1, [sp, #24]
 800385a:	e9c1 2300 	strd	r2, r3, [r1]
 800385e:	e796      	b.n	800378e <__kernel_rem_pio2+0x4be>
 8003860:	4630      	mov	r0, r6
 8003862:	e875 2302 	ldrd	r2, r3, [r5], #-8
 8003866:	4639      	mov	r1, r7
 8003868:	f7fc fd2c 	bl	80002c4 <__adddf3>
 800386c:	3c01      	subs	r4, #1
 800386e:	4606      	mov	r6, r0
 8003870:	460f      	mov	r7, r1
 8003872:	e7e9      	b.n	8003848 <__kernel_rem_pio2+0x578>
 8003874:	e875 2302 	ldrd	r2, r3, [r5], #-8
 8003878:	f7fc fd24 	bl	80002c4 <__adddf3>
 800387c:	f108 38ff 	add.w	r8, r8, #4294967295
 8003880:	e7bc      	b.n	80037fc <__kernel_rem_pio2+0x52c>
 8003882:	460d      	mov	r5, r1
 8003884:	e7c2      	b.n	800380c <__kernel_rem_pio2+0x53c>
 8003886:	4660      	mov	r0, ip
 8003888:	e9f5 2302 	ldrd	r2, r3, [r5, #8]!
 800388c:	4639      	mov	r1, r7
 800388e:	f7fc fd19 	bl	80002c4 <__adddf3>
 8003892:	3601      	adds	r6, #1
 8003894:	4684      	mov	ip, r0
 8003896:	460f      	mov	r7, r1
 8003898:	e7c6      	b.n	8003828 <__kernel_rem_pio2+0x558>
 800389a:	e9da 6700 	ldrd	r6, r7, [sl]
 800389e:	e95a 8902 	ldrd	r8, r9, [sl, #-8]
 80038a2:	4632      	mov	r2, r6
 80038a4:	463b      	mov	r3, r7
 80038a6:	4640      	mov	r0, r8
 80038a8:	4649      	mov	r1, r9
 80038aa:	f7fc fd0b 	bl	80002c4 <__adddf3>
 80038ae:	4602      	mov	r2, r0
 80038b0:	460b      	mov	r3, r1
 80038b2:	e9cd 0102 	strd	r0, r1, [sp, #8]
 80038b6:	4640      	mov	r0, r8
 80038b8:	4649      	mov	r1, r9
 80038ba:	f7fc fd01 	bl	80002c0 <__aeabi_dsub>
 80038be:	4632      	mov	r2, r6
 80038c0:	463b      	mov	r3, r7
 80038c2:	f7fc fcff 	bl	80002c4 <__adddf3>
 80038c6:	e9dd 2302 	ldrd	r2, r3, [sp, #8]
 80038ca:	e86a 0102 	strd	r0, r1, [sl], #-8
 80038ce:	f10b 3bff 	add.w	fp, fp, #4294967295
 80038d2:	e9ca 2300 	strd	r2, r3, [sl]
 80038d6:	e768      	b.n	80037aa <__kernel_rem_pio2+0x4da>
 80038d8:	e9da 8900 	ldrd	r8, r9, [sl]
 80038dc:	e95a 6702 	ldrd	r6, r7, [sl, #-8]
 80038e0:	4642      	mov	r2, r8
 80038e2:	464b      	mov	r3, r9
 80038e4:	4630      	mov	r0, r6
 80038e6:	4639      	mov	r1, r7
 80038e8:	f7fc fcec 	bl	80002c4 <__adddf3>
 80038ec:	4602      	mov	r2, r0
 80038ee:	460b      	mov	r3, r1
 80038f0:	e9cd 0102 	strd	r0, r1, [sp, #8]
 80038f4:	4630      	mov	r0, r6
 80038f6:	4639      	mov	r1, r7
 80038f8:	f7fc fce2 	bl	80002c0 <__aeabi_dsub>
 80038fc:	4642      	mov	r2, r8
 80038fe:	464b      	mov	r3, r9
 8003900:	f7fc fce0 	bl	80002c4 <__adddf3>
 8003904:	e9dd 2302 	ldrd	r2, r3, [sp, #8]
 8003908:	e86a 0102 	strd	r0, r1, [sl], #-8
 800390c:	f10b 3bff 	add.w	fp, fp, #4294967295
 8003910:	e9ca 2300 	strd	r2, r3, [sl]
 8003914:	e74e      	b.n	80037b4 <__kernel_rem_pio2+0x4e4>
 8003916:	4638      	mov	r0, r7
 8003918:	e875 2302 	ldrd	r2, r3, [r5], #-8
 800391c:	4631      	mov	r1, r6
 800391e:	f7fc fcd1 	bl	80002c4 <__adddf3>
 8003922:	3c01      	subs	r4, #1
 8003924:	4607      	mov	r7, r0
 8003926:	460e      	mov	r6, r1
 8003928:	e74a      	b.n	80037c0 <__kernel_rem_pio2+0x4f0>
 800392a:	9b06      	ldr	r3, [sp, #24]
 800392c:	f100 4000 	add.w	r0, r0, #2147483648	; 0x80000000
 8003930:	f101 4100 	add.w	r1, r1, #2147483648	; 0x80000000
 8003934:	f106 4600 	add.w	r6, r6, #2147483648	; 0x80000000
 8003938:	e9c3 0401 	strd	r0, r4, [r3, #4]
 800393c:	e9c3 1703 	strd	r1, r7, [r3, #12]
 8003940:	601d      	str	r5, [r3, #0]
 8003942:	615e      	str	r6, [r3, #20]
 8003944:	e723      	b.n	800378e <__kernel_rem_pio2+0x4be>
 8003946:	bf00      	nop
 8003948:	41700000 	.word	0x41700000
 800394c:	3e700000 	.word	0x3e700000

08003950 <scalbn>:
 8003950:	b5f8      	push	{r3, r4, r5, r6, r7, lr}
 8003952:	4616      	mov	r6, r2
 8003954:	f3c1 520a 	ubfx	r2, r1, #20, #11
 8003958:	4604      	mov	r4, r0
 800395a:	460d      	mov	r5, r1
 800395c:	460b      	mov	r3, r1
 800395e:	b992      	cbnz	r2, 8003986 <scalbn+0x36>
 8003960:	f021 4300 	bic.w	r3, r1, #2147483648	; 0x80000000
 8003964:	4303      	orrs	r3, r0
 8003966:	d03c      	beq.n	80039e2 <scalbn+0x92>
 8003968:	4b31      	ldr	r3, [pc, #196]	; (8003a30 <scalbn+0xe0>)
 800396a:	2200      	movs	r2, #0
 800396c:	f7fc fe60 	bl	8000630 <__aeabi_dmul>
 8003970:	4b30      	ldr	r3, [pc, #192]	; (8003a34 <scalbn+0xe4>)
 8003972:	4604      	mov	r4, r0
 8003974:	429e      	cmp	r6, r3
 8003976:	460d      	mov	r5, r1
 8003978:	da0f      	bge.n	800399a <scalbn+0x4a>
 800397a:	a329      	add	r3, pc, #164	; (adr r3, 8003a20 <scalbn+0xd0>)
 800397c:	e9d3 2300 	ldrd	r2, r3, [r3]
 8003980:	f7fc fe56 	bl	8000630 <__aeabi_dmul>
 8003984:	e006      	b.n	8003994 <scalbn+0x44>
 8003986:	f240 77ff 	movw	r7, #2047	; 0x7ff
 800398a:	42ba      	cmp	r2, r7
 800398c:	d109      	bne.n	80039a2 <scalbn+0x52>
 800398e:	4602      	mov	r2, r0
 8003990:	f7fc fc98 	bl	80002c4 <__adddf3>
 8003994:	4604      	mov	r4, r0
 8003996:	460d      	mov	r5, r1
 8003998:	e023      	b.n	80039e2 <scalbn+0x92>
 800399a:	460b      	mov	r3, r1
 800399c:	f3c1 520a 	ubfx	r2, r1, #20, #11
 80039a0:	3a36      	subs	r2, #54	; 0x36
 80039a2:	f24c 3150 	movw	r1, #50000	; 0xc350
 80039a6:	428e      	cmp	r6, r1
 80039a8:	dd0e      	ble.n	80039c8 <scalbn+0x78>
 80039aa:	a31f      	add	r3, pc, #124	; (adr r3, 8003a28 <scalbn+0xd8>)
 80039ac:	e9d3 2300 	ldrd	r2, r3, [r3]
 80039b0:	f005 4400 	and.w	r4, r5, #2147483648	; 0x80000000
 80039b4:	f044 41fc 	orr.w	r1, r4, #2113929216	; 0x7e000000
 80039b8:	f441 115f 	orr.w	r1, r1, #3653632	; 0x37c000
 80039bc:	f441 5110 	orr.w	r1, r1, #9216	; 0x2400
 80039c0:	481d      	ldr	r0, [pc, #116]	; (8003a38 <scalbn+0xe8>)
 80039c2:	f041 013c 	orr.w	r1, r1, #60	; 0x3c
 80039c6:	e7db      	b.n	8003980 <scalbn+0x30>
 80039c8:	f240 71fe 	movw	r1, #2046	; 0x7fe
 80039cc:	4432      	add	r2, r6
 80039ce:	428a      	cmp	r2, r1
 80039d0:	dceb      	bgt.n	80039aa <scalbn+0x5a>
 80039d2:	2a00      	cmp	r2, #0
 80039d4:	dd08      	ble.n	80039e8 <scalbn+0x98>
 80039d6:	f023 43ff 	bic.w	r3, r3, #2139095040	; 0x7f800000
 80039da:	f423 03e0 	bic.w	r3, r3, #7340032	; 0x700000
 80039de:	ea43 5502 	orr.w	r5, r3, r2, lsl #20
 80039e2:	4620      	mov	r0, r4
 80039e4:	4629      	mov	r1, r5
 80039e6:	bdf8      	pop	{r3, r4, r5, r6, r7, pc}
 80039e8:	f112 0f35 	cmn.w	r2, #53	; 0x35
 80039ec:	da0c      	bge.n	8003a08 <scalbn+0xb8>
 80039ee:	a30c      	add	r3, pc, #48	; (adr r3, 8003a20 <scalbn+0xd0>)
 80039f0:	e9d3 2300 	ldrd	r2, r3, [r3]
 80039f4:	f005 4400 	and.w	r4, r5, #2147483648	; 0x80000000
 80039f8:	f044 71d2 	orr.w	r1, r4, #27525120	; 0x1a40000
 80039fc:	f441 31b7 	orr.w	r1, r1, #93696	; 0x16e00
 8003a00:	480e      	ldr	r0, [pc, #56]	; (8003a3c <scalbn+0xec>)
 8003a02:	f041 011f 	orr.w	r1, r1, #31
 8003a06:	e7bb      	b.n	8003980 <scalbn+0x30>
 8003a08:	f023 43ff 	bic.w	r3, r3, #2139095040	; 0x7f800000
 8003a0c:	3236      	adds	r2, #54	; 0x36
 8003a0e:	f423 03e0 	bic.w	r3, r3, #7340032	; 0x700000
 8003a12:	ea43 5502 	orr.w	r5, r3, r2, lsl #20
 8003a16:	4620      	mov	r0, r4
 8003a18:	4629      	mov	r1, r5
 8003a1a:	2200      	movs	r2, #0
 8003a1c:	4b08      	ldr	r3, [pc, #32]	; (8003a40 <scalbn+0xf0>)
 8003a1e:	e7af      	b.n	8003980 <scalbn+0x30>
 8003a20:	c2f8f359 	.word	0xc2f8f359
 8003a24:	01a56e1f 	.word	0x01a56e1f
 8003a28:	8800759c 	.word	0x8800759c
 8003a2c:	7e37e43c 	.word	0x7e37e43c
 8003a30:	43500000 	.word	0x43500000
 8003a34:	ffff3cb0 	.word	0xffff3cb0
 8003a38:	8800759c 	.word	0x8800759c
 8003a3c:	c2f8f359 	.word	0xc2f8f359
 8003a40:	3c900000 	.word	0x3c900000
 8003a44:	00000000 	.word	0x00000000

08003a48 <floor>:
 8003a48:	f3c1 520a 	ubfx	r2, r1, #20, #11
 8003a4c:	e92d 43f8 	stmdb	sp!, {r3, r4, r5, r6, r7, r8, r9, lr}
 8003a50:	f2a2 36ff 	subw	r6, r2, #1023	; 0x3ff
 8003a54:	2e13      	cmp	r6, #19
 8003a56:	460b      	mov	r3, r1
 8003a58:	4607      	mov	r7, r0
 8003a5a:	460c      	mov	r4, r1
 8003a5c:	4605      	mov	r5, r0
 8003a5e:	dc32      	bgt.n	8003ac6 <floor+0x7e>
 8003a60:	2e00      	cmp	r6, #0
 8003a62:	da14      	bge.n	8003a8e <floor+0x46>
 8003a64:	a334      	add	r3, pc, #208	; (adr r3, 8003b38 <floor+0xf0>)
 8003a66:	e9d3 2300 	ldrd	r2, r3, [r3]
 8003a6a:	f7fc fc2b 	bl	80002c4 <__adddf3>
 8003a6e:	2200      	movs	r2, #0
 8003a70:	2300      	movs	r3, #0
 8003a72:	f7fd f86d 	bl	8000b50 <__aeabi_dcmpgt>
 8003a76:	b138      	cbz	r0, 8003a88 <floor+0x40>
 8003a78:	2c00      	cmp	r4, #0
 8003a7a:	da56      	bge.n	8003b2a <floor+0xe2>
 8003a7c:	f024 4400 	bic.w	r4, r4, #2147483648	; 0x80000000
 8003a80:	4325      	orrs	r5, r4
 8003a82:	d055      	beq.n	8003b30 <floor+0xe8>
 8003a84:	2500      	movs	r5, #0
 8003a86:	4c2e      	ldr	r4, [pc, #184]	; (8003b40 <floor+0xf8>)
 8003a88:	4623      	mov	r3, r4
 8003a8a:	462f      	mov	r7, r5
 8003a8c:	e025      	b.n	8003ada <floor+0x92>
 8003a8e:	4a2d      	ldr	r2, [pc, #180]	; (8003b44 <floor+0xfc>)
 8003a90:	fa42 f806 	asr.w	r8, r2, r6
 8003a94:	ea01 0208 	and.w	r2, r1, r8
 8003a98:	4302      	orrs	r2, r0
 8003a9a:	d01e      	beq.n	8003ada <floor+0x92>
 8003a9c:	a326      	add	r3, pc, #152	; (adr r3, 8003b38 <floor+0xf0>)
 8003a9e:	e9d3 2300 	ldrd	r2, r3, [r3]
 8003aa2:	f7fc fc0f 	bl	80002c4 <__adddf3>
 8003aa6:	2200      	movs	r2, #0
 8003aa8:	2300      	movs	r3, #0
 8003aaa:	f7fd f851 	bl	8000b50 <__aeabi_dcmpgt>
 8003aae:	2800      	cmp	r0, #0
 8003ab0:	d0ea      	beq.n	8003a88 <floor+0x40>
 8003ab2:	2c00      	cmp	r4, #0
 8003ab4:	bfbe      	ittt	lt
 8003ab6:	f44f 1380 	movlt.w	r3, #1048576	; 0x100000
 8003aba:	4133      	asrlt	r3, r6
 8003abc:	18e4      	addlt	r4, r4, r3
 8003abe:	2500      	movs	r5, #0
 8003ac0:	ea24 0408 	bic.w	r4, r4, r8
 8003ac4:	e7e0      	b.n	8003a88 <floor+0x40>
 8003ac6:	2e33      	cmp	r6, #51	; 0x33
 8003ac8:	dd0b      	ble.n	8003ae2 <floor+0x9a>
 8003aca:	f5b6 6f80 	cmp.w	r6, #1024	; 0x400
 8003ace:	d104      	bne.n	8003ada <floor+0x92>
 8003ad0:	4602      	mov	r2, r0
 8003ad2:	f7fc fbf7 	bl	80002c4 <__adddf3>
 8003ad6:	4607      	mov	r7, r0
 8003ad8:	460b      	mov	r3, r1
 8003ada:	4638      	mov	r0, r7
 8003adc:	4619      	mov	r1, r3
 8003ade:	e8bd 83f8 	ldmia.w	sp!, {r3, r4, r5, r6, r7, r8, r9, pc}
 8003ae2:	f04f 38ff 	mov.w	r8, #4294967295
 8003ae6:	f2a2 4213 	subw	r2, r2, #1043	; 0x413
 8003aea:	fa28 f802 	lsr.w	r8, r8, r2
 8003aee:	ea10 0f08 	tst.w	r0, r8
 8003af2:	d0f2      	beq.n	8003ada <floor+0x92>
 8003af4:	a310      	add	r3, pc, #64	; (adr r3, 8003b38 <floor+0xf0>)
 8003af6:	e9d3 2300 	ldrd	r2, r3, [r3]
 8003afa:	f7fc fbe3 	bl	80002c4 <__adddf3>
 8003afe:	2200      	movs	r2, #0
 8003b00:	2300      	movs	r3, #0
 8003b02:	f7fd f825 	bl	8000b50 <__aeabi_dcmpgt>
 8003b06:	2800      	cmp	r0, #0
 8003b08:	d0be      	beq.n	8003a88 <floor+0x40>
 8003b0a:	2c00      	cmp	r4, #0
 8003b0c:	da0a      	bge.n	8003b24 <floor+0xdc>
 8003b0e:	2e14      	cmp	r6, #20
 8003b10:	d101      	bne.n	8003b16 <floor+0xce>
 8003b12:	3401      	adds	r4, #1
 8003b14:	e006      	b.n	8003b24 <floor+0xdc>
 8003b16:	2301      	movs	r3, #1
 8003b18:	f1c6 0634 	rsb	r6, r6, #52	; 0x34
 8003b1c:	40b3      	lsls	r3, r6
 8003b1e:	441d      	add	r5, r3
 8003b20:	42af      	cmp	r7, r5
 8003b22:	d8f6      	bhi.n	8003b12 <floor+0xca>
 8003b24:	ea25 0508 	bic.w	r5, r5, r8
 8003b28:	e7ae      	b.n	8003a88 <floor+0x40>
 8003b2a:	2500      	movs	r5, #0
 8003b2c:	462c      	mov	r4, r5
 8003b2e:	e7ab      	b.n	8003a88 <floor+0x40>
 8003b30:	f04f 4400 	mov.w	r4, #2147483648	; 0x80000000
 8003b34:	e7a8      	b.n	8003a88 <floor+0x40>
 8003b36:	bf00      	nop
 8003b38:	8800759c 	.word	0x8800759c
 8003b3c:	7e37e43c 	.word	0x7e37e43c
 8003b40:	bff00000 	.word	0xbff00000
 8003b44:	000fffff 	.word	0x000fffff

08003b48 <_init>:
 8003b48:	b5f8      	push	{r3, r4, r5, r6, r7, lr}
 8003b4a:	bf00      	nop
 8003b4c:	bcf8      	pop	{r3, r4, r5, r6, r7}
 8003b4e:	bc08      	pop	{r3}
 8003b50:	469e      	mov	lr, r3
 8003b52:	4770      	bx	lr

08003b54 <_fini>:
 8003b54:	b5f8      	push	{r3, r4, r5, r6, r7, lr}
 8003b56:	bf00      	nop
 8003b58:	bcf8      	pop	{r3, r4, r5, r6, r7}
 8003b5a:	bc08      	pop	{r3}
 8003b5c:	469e      	mov	lr, r3
 8003b5e:	4770      	bx	lr
