
STM32F103_Test_Kit.elf:     file format elf32-littlearm

Sections:
Idx Name          Size      VMA       LMA       File off  Algn
  0 .isr_vector   0000010c  08000000  08000000  00010000  2**0
                  CONTENTS, ALLOC, LOAD, READONLY, DATA
  1 .text         00001b08  0800010c  0800010c  0001010c  2**2
                  CONTENTS, ALLOC, LOAD, READONLY, CODE
  2 .rodata       00000024  08001c14  08001c14  00011c14  2**2
                  CONTENTS, ALLOC, LOAD, READONLY, DATA
  3 .ARM.extab    00000000  08001c38  08001c38  0002000c  2**0
                  CONTENTS
  4 .ARM          00000000  08001c38  08001c38  0002000c  2**0
                  CONTENTS
  5 .preinit_array 00000000  08001c38  08001c38  0002000c  2**0
                  CONTENTS, ALLOC, LOAD, DATA
  6 .init_array   00000004  08001c38  08001c38  00011c38  2**2
                  CONTENTS, ALLOC, LOAD, DATA
  7 .fini_array   00000004  08001c3c  08001c3c  00011c3c  2**2
                  CONTENTS, ALLOC, LOAD, DATA
  8 .data         0000000c  20000000  08001c40  00020000  2**2
                  CONTENTS, ALLOC, LOAD, DATA
  9 .bss          0000006c  2000000c  08001c4c  0002000c  2**2
                  ALLOC
 10 ._user_heap_stack 00000600  20000078  08001c4c  00020078  2**0
                  ALLOC
 11 .ARM.attributes 00000029  00000000  00000000  0002000c  2**0
                  CONTENTS, READONLY
 12 .comment      00000043  00000000  00000000  00020035  2**0
                  CONTENTS, READONLY
 13 .debug_info   00007513  00000000  00000000  00020078  2**0
                  CONTENTS, READONLY, DEBUGGING, OCTETS
 14 .debug_abbrev 00001470  00000000  00000000  0002758b  2**0
                  CONTENTS, READONLY, DEBUGGING, OCTETS
 15 .debug_aranges 00000928  00000000  00000000  00028a00  2**3
                  CONTENTS, READONLY, DEBUGGING, OCTETS
 16 .debug_rnglists 00000711  00000000  00000000  00029328  2**0
                  CONTENTS, READONLY, DEBUGGING, OCTETS
 17 .debug_macro  000165e4  00000000  00000000  00029a39  2**0
                  CONTENTS, READONLY, DEBUGGING, OCTETS
 18 .debug_line   000098fa  00000000  00000000  0004001d  2**0
                  CONTENTS, READONLY, DEBUGGING, OCTETS
 19 .debug_str    00084093  00000000  00000000  00049917  2**0
                  CONTENTS, READONLY, DEBUGGING, OCTETS
 20 .debug_frame  000025b8  00000000  00000000  000cd9ac  2**2
                  CONTENTS, READONLY, DEBUGGING, OCTETS
 21 .debug_line_str 00000058  00000000  00000000  000cff64  2**0
                  CONTENTS, READONLY, DEBUGGING, OCTETS

Disassembly of section .text:

0800010c <__do_global_dtors_aux>:
 800010c:	b510      	push	{r4, lr}
 800010e:	4c05      	ldr	r4, [pc, #20]	; (8000124 <__do_global_dtors_aux+0x18>)
 8000110:	7823      	ldrb	r3, [r4, #0]
 8000112:	b933      	cbnz	r3, 8000122 <__do_global_dtors_aux+0x16>
 8000114:	4b04      	ldr	r3, [pc, #16]	; (8000128 <__do_global_dtors_aux+0x1c>)
 8000116:	b113      	cbz	r3, 800011e <__do_global_dtors_aux+0x12>
 8000118:	4804      	ldr	r0, [pc, #16]	; (800012c <__do_global_dtors_aux+0x20>)
 800011a:	f3af 8000 	nop.w
 800011e:	2301      	movs	r3, #1
 8000120:	7023      	strb	r3, [r4, #0]
 8000122:	bd10      	pop	{r4, pc}
 8000124:	2000000c 	.word	0x2000000c
 8000128:	00000000 	.word	0x00000000
 800012c:	08001bfc 	.word	0x08001bfc

08000130 <frame_dummy>:
 8000130:	b508      	push	{r3, lr}
 8000132:	4b03      	ldr	r3, [pc, #12]	; (8000140 <frame_dummy+0x10>)
 8000134:	b11b      	cbz	r3, 800013e <frame_dummy+0xe>
 8000136:	4903      	ldr	r1, [pc, #12]	; (8000144 <frame_dummy+0x14>)
 8000138:	4803      	ldr	r0, [pc, #12]	; (8000148 <frame_dummy+0x18>)
 800013a:	f3af 8000 	nop.w
 800013e:	bd08      	pop	{r3, pc}
 8000140:	00000000 	.word	0x00000000
 8000144:	20000010 	.word	0x20000010
 8000148:	08001bfc 	.word	0x08001bfc

0800014c <main>:
/**
  * @brief  The application entry point.
  * @retval int
  */
int main(void)
{
 800014c:	b580      	push	{r7, lr}
 800014e:	af00      	add	r7, sp, #0
  /* USER CODE END 1 */

  /* MCU Configuration--------------------------------------------------------*/

  /* Reset of all peripherals, Initializes the Flash interface and the Systick. */
  HAL_Init();
 8000150:	f000 fa0a 	bl	8000568 <HAL_Init>
  /* USER CODE BEGIN Init */

  /* USER CODE END Init */

  /* Configure the system clock */
  SystemClock_Config();
 8000154:	f000 f828 	bl	80001a8 <SystemClock_Config>
  /* USER CODE BEGIN SysInit */

  /* USER CODE END SysInit */

  /* Initialize all configured peripherals */
  MX_GPIO_Init();
 8000158:	f000 f8d0 	bl	80002fc <MX_GPIO_Init>
  MX_TIM4_Init();
 800015c:	f000 f86a 	bl	8000234 <MX_TIM4_Init>
  /* USER CODE BEGIN 2 */
  HAL_TIM_PWM_Start(&htim4, TIM_CHANNEL_3);
 8000160:	2108      	movs	r1, #8
 8000162:	480d      	ldr	r0, [pc, #52]	; (8000198 <main+0x4c>)
 8000164:	f001 f94e 	bl	8001404 <HAL_TIM_PWM_Start>
  HAL_TIM_PWM_Start(&htim4, TIM_CHANNEL_4);
 8000168:	210c      	movs	r1, #12
 800016a:	480b      	ldr	r0, [pc, #44]	; (8000198 <main+0x4c>)
 800016c:	f001 f94a 	bl	8001404 <HAL_TIM_PWM_Start>

  /* Infinite loop */
  /* USER CODE BEGIN WHILE */
  while (1)
  {
	  __HAL_TIM_SET_COMPARE(&htim4,TIM_CHANNEL_3,pwm1);
 8000170:	4b0a      	ldr	r3, [pc, #40]	; (800019c <main+0x50>)
 8000172:	881a      	ldrh	r2, [r3, #0]
 8000174:	4b08      	ldr	r3, [pc, #32]	; (8000198 <main+0x4c>)
 8000176:	681b      	ldr	r3, [r3, #0]
 8000178:	63da      	str	r2, [r3, #60]	; 0x3c
	  __HAL_TIM_SET_COMPARE(&htim4,TIM_CHANNEL_4,pwm2);
 800017a:	4b09      	ldr	r3, [pc, #36]	; (80001a0 <main+0x54>)
 800017c:	881a      	ldrh	r2, [r3, #0]
 800017e:	4b06      	ldr	r3, [pc, #24]	; (8000198 <main+0x4c>)
 8000180:	681b      	ldr	r3, [r3, #0]
 8000182:	641a      	str	r2, [r3, #64]	; 0x40
	  HAL_GPIO_TogglePin(USER_LED_GPIO_Port, USER_LED_Pin);
 8000184:	f44f 5100 	mov.w	r1, #8192	; 0x2000
 8000188:	4806      	ldr	r0, [pc, #24]	; (80001a4 <main+0x58>)
 800018a:	f000 fcf3 	bl	8000b74 <HAL_GPIO_TogglePin>
	  HAL_Delay(1000);
 800018e:	f44f 707a 	mov.w	r0, #1000	; 0x3e8
 8000192:	f000 fa4b 	bl	800062c <HAL_Delay>
	  __HAL_TIM_SET_COMPARE(&htim4,TIM_CHANNEL_3,pwm1);
 8000196:	e7eb      	b.n	8000170 <main+0x24>
 8000198:	20000028 	.word	0x20000028
 800019c:	20000070 	.word	0x20000070
 80001a0:	20000072 	.word	0x20000072
 80001a4:	40011000 	.word	0x40011000

080001a8 <SystemClock_Config>:
/**
  * @brief System Clock Configuration
  * @retval None
  */
void SystemClock_Config(void)
{
 80001a8:	b580      	push	{r7, lr}
 80001aa:	b090      	sub	sp, #64	; 0x40
 80001ac:	af00      	add	r7, sp, #0
  RCC_OscInitTypeDef RCC_OscInitStruct = {0};
 80001ae:	f107 0318 	add.w	r3, r7, #24
 80001b2:	2228      	movs	r2, #40	; 0x28
 80001b4:	2100      	movs	r1, #0
 80001b6:	4618      	mov	r0, r3
 80001b8:	f001 fcf4 	bl	8001ba4 <memset>
  RCC_ClkInitTypeDef RCC_ClkInitStruct = {0};
 80001bc:	1d3b      	adds	r3, r7, #4
 80001be:	2200      	movs	r2, #0
 80001c0:	601a      	str	r2, [r3, #0]
 80001c2:	605a      	str	r2, [r3, #4]
 80001c4:	609a      	str	r2, [r3, #8]
 80001c6:	60da      	str	r2, [r3, #12]
 80001c8:	611a      	str	r2, [r3, #16]

  /** Initializes the RCC Oscillators according to the specified parameters
  * in the RCC_OscInitTypeDef structure.
  */
  RCC_OscInitStruct.OscillatorType = RCC_OSCILLATORTYPE_HSE;
 80001ca:	2301      	movs	r3, #1
 80001cc:	61bb      	str	r3, [r7, #24]
  RCC_OscInitStruct.HSEState = RCC_HSE_ON;
 80001ce:	f44f 3380 	mov.w	r3, #65536	; 0x10000
 80001d2:	61fb      	str	r3, [r7, #28]
  RCC_OscInitStruct.HSEPredivValue = RCC_HSE_PREDIV_DIV1;
 80001d4:	2300      	movs	r3, #0
 80001d6:	623b      	str	r3, [r7, #32]
  RCC_OscInitStruct.HSIState = RCC_HSI_ON;
 80001d8:	2301      	movs	r3, #1
 80001da:	62bb      	str	r3, [r7, #40]	; 0x28
  RCC_OscInitStruct.PLL.PLLState = RCC_PLL_ON;
 80001dc:	2302      	movs	r3, #2
 80001de:	637b      	str	r3, [r7, #52]	; 0x34
  RCC_OscInitStruct.PLL.PLLSource = RCC_PLLSOURCE_HSE;
 80001e0:	f44f 3380 	mov.w	r3, #65536	; 0x10000
 80001e4:	63bb      	str	r3, [r7, #56]	; 0x38
  RCC_OscInitStruct.PLL.PLLMUL = RCC_PLL_MUL9;
 80001e6:	f44f 13e0 	mov.w	r3, #1835008	; 0x1c0000
 80001ea:	63fb      	str	r3, [r7, #60]	; 0x3c
  if (HAL_RCC_OscConfig(&RCC_OscInitStruct) != HAL_OK)
 80001ec:	f107 0318 	add.w	r3, r7, #24
 80001f0:	4618      	mov	r0, r3
 80001f2:	f000 fcd9 	bl	8000ba8 <HAL_RCC_OscConfig>
 80001f6:	4603      	mov	r3, r0
 80001f8:	2b00      	cmp	r3, #0
 80001fa:	d001      	beq.n	8000200 <SystemClock_Config+0x58>
  {
    Error_Handler();
 80001fc:	f000 f8d6 	bl	80003ac <Error_Handler>
  }

  /** Initializes the CPU, AHB and APB buses clocks
  */
  RCC_ClkInitStruct.ClockType = RCC_CLOCKTYPE_HCLK|RCC_CLOCKTYPE_SYSCLK
 8000200:	230f      	movs	r3, #15
 8000202:	607b      	str	r3, [r7, #4]
                              |RCC_CLOCKTYPE_PCLK1|RCC_CLOCKTYPE_PCLK2;
  RCC_ClkInitStruct.SYSCLKSource = RCC_SYSCLKSOURCE_PLLCLK;
 8000204:	2302      	movs	r3, #2
 8000206:	60bb      	str	r3, [r7, #8]
  RCC_ClkInitStruct.AHBCLKDivider = RCC_SYSCLK_DIV1;
 8000208:	2300      	movs	r3, #0
 800020a:	60fb      	str	r3, [r7, #12]
  RCC_ClkInitStruct.APB1CLKDivider = RCC_HCLK_DIV2;
 800020c:	f44f 6380 	mov.w	r3, #1024	; 0x400
 8000210:	613b      	str	r3, [r7, #16]
  RCC_ClkInitStruct.APB2CLKDivider = RCC_HCLK_DIV1;
 8000212:	2300      	movs	r3, #0
 8000214:	617b      	str	r3, [r7, #20]

  if (HAL_RCC_ClockConfig(&RCC_ClkInitStruct, FLASH_LATENCY_2) != HAL_OK)
 8000216:	1d3b      	adds	r3, r7, #4
 8000218:	2102      	movs	r1, #2
 800021a:	4618      	mov	r0, r3
 800021c:	f000 ff46 	bl	80010ac <HAL_RCC_ClockConfig>
 8000220:	4603      	mov	r3, r0
 8000222:	2b00      	cmp	r3, #0
 8000224:	d001      	beq.n	800022a <SystemClock_Config+0x82>
  {
    Error_Handler();
 8000226:	f000 f8c1 	bl	80003ac <Error_Handler>
  }
}
 800022a:	bf00      	nop
 800022c:	3740      	adds	r7, #64	; 0x40
 800022e:	46bd      	mov	sp, r7
 8000230:	bd80      	pop	{r7, pc}
	...

08000234 <MX_TIM4_Init>:
  * @brief TIM4 Initialization Function
  * @param None
  * @retval None
  */
static void MX_TIM4_Init(void)
{
 8000234:	b580      	push	{r7, lr}
 8000236:	b08a      	sub	sp, #40	; 0x28
 8000238:	af00      	add	r7, sp, #0

  /* USER CODE BEGIN TIM4_Init 0 */

  /* USER CODE END TIM4_Init 0 */

  TIM_MasterConfigTypeDef sMasterConfig = {0};
 800023a:	f107 0320 	add.w	r3, r7, #32
 800023e:	2200      	movs	r2, #0
 8000240:	601a      	str	r2, [r3, #0]
 8000242:	605a      	str	r2, [r3, #4]
  TIM_OC_InitTypeDef sConfigOC = {0};
 8000244:	1d3b      	adds	r3, r7, #4
 8000246:	2200      	movs	r2, #0
 8000248:	601a      	str	r2, [r3, #0]
 800024a:	605a      	str	r2, [r3, #4]
 800024c:	609a      	str	r2, [r3, #8]
 800024e:	60da      	str	r2, [r3, #12]
 8000250:	611a      	str	r2, [r3, #16]
 8000252:	615a      	str	r2, [r3, #20]
 8000254:	619a      	str	r2, [r3, #24]

  /* USER CODE BEGIN TIM4_Init 1 */

  /* USER CODE END TIM4_Init 1 */
  htim4.Instance = TIM4;
 8000256:	4b27      	ldr	r3, [pc, #156]	; (80002f4 <MX_TIM4_Init+0xc0>)
 8000258:	4a27      	ldr	r2, [pc, #156]	; (80002f8 <MX_TIM4_Init+0xc4>)
 800025a:	601a      	str	r2, [r3, #0]
  htim4.Init.Prescaler = 6;
 800025c:	4b25      	ldr	r3, [pc, #148]	; (80002f4 <MX_TIM4_Init+0xc0>)
 800025e:	2206      	movs	r2, #6
 8000260:	605a      	str	r2, [r3, #4]
  htim4.Init.CounterMode = TIM_COUNTERMODE_UP;
 8000262:	4b24      	ldr	r3, [pc, #144]	; (80002f4 <MX_TIM4_Init+0xc0>)
 8000264:	2200      	movs	r2, #0
 8000266:	609a      	str	r2, [r3, #8]
  htim4.Init.Period = 1000-1;
 8000268:	4b22      	ldr	r3, [pc, #136]	; (80002f4 <MX_TIM4_Init+0xc0>)
 800026a:	f240 32e7 	movw	r2, #999	; 0x3e7
 800026e:	60da      	str	r2, [r3, #12]
  htim4.Init.ClockDivision = TIM_CLOCKDIVISION_DIV1;
 8000270:	4b20      	ldr	r3, [pc, #128]	; (80002f4 <MX_TIM4_Init+0xc0>)
 8000272:	2200      	movs	r2, #0
 8000274:	611a      	str	r2, [r3, #16]
  htim4.Init.AutoReloadPreload = TIM_AUTORELOAD_PRELOAD_DISABLE;
 8000276:	4b1f      	ldr	r3, [pc, #124]	; (80002f4 <MX_TIM4_Init+0xc0>)
 8000278:	2200      	movs	r2, #0
 800027a:	619a      	str	r2, [r3, #24]
  if (HAL_TIM_PWM_Init(&htim4) != HAL_OK)
 800027c:	481d      	ldr	r0, [pc, #116]	; (80002f4 <MX_TIM4_Init+0xc0>)
 800027e:	f001 f871 	bl	8001364 <HAL_TIM_PWM_Init>
 8000282:	4603      	mov	r3, r0
 8000284:	2b00      	cmp	r3, #0
 8000286:	d001      	beq.n	800028c <MX_TIM4_Init+0x58>
  {
    Error_Handler();
 8000288:	f000 f890 	bl	80003ac <Error_Handler>
  }
  sMasterConfig.MasterOutputTrigger = TIM_TRGO_RESET;
 800028c:	2300      	movs	r3, #0
 800028e:	623b      	str	r3, [r7, #32]
  sMasterConfig.MasterSlaveMode = TIM_MASTERSLAVEMODE_DISABLE;
 8000290:	2300      	movs	r3, #0
 8000292:	627b      	str	r3, [r7, #36]	; 0x24
  if (HAL_TIMEx_MasterConfigSynchronization(&htim4, &sMasterConfig) != HAL_OK)
 8000294:	f107 0320 	add.w	r3, r7, #32
 8000298:	4619      	mov	r1, r3
 800029a:	4816      	ldr	r0, [pc, #88]	; (80002f4 <MX_TIM4_Init+0xc0>)
 800029c:	f001 fc24 	bl	8001ae8 <HAL_TIMEx_MasterConfigSynchronization>
 80002a0:	4603      	mov	r3, r0
 80002a2:	2b00      	cmp	r3, #0
 80002a4:	d001      	beq.n	80002aa <MX_TIM4_Init+0x76>
  {
    Error_Handler();
 80002a6:	f000 f881 	bl	80003ac <Error_Handler>
  }
  sConfigOC.OCMode = TIM_OCMODE_PWM1;
 80002aa:	2360      	movs	r3, #96	; 0x60
 80002ac:	607b      	str	r3, [r7, #4]
  sConfigOC.Pulse = 0;
 80002ae:	2300      	movs	r3, #0
 80002b0:	60bb      	str	r3, [r7, #8]
  sConfigOC.OCPolarity = TIM_OCPOLARITY_HIGH;
 80002b2:	2300      	movs	r3, #0
 80002b4:	60fb      	str	r3, [r7, #12]
  sConfigOC.OCFastMode = TIM_OCFAST_DISABLE;
 80002b6:	2300      	movs	r3, #0
 80002b8:	617b      	str	r3, [r7, #20]
  if (HAL_TIM_PWM_ConfigChannel(&htim4, &sConfigOC, TIM_CHANNEL_3) != HAL_OK)
 80002ba:	1d3b      	adds	r3, r7, #4
 80002bc:	2208      	movs	r2, #8
 80002be:	4619      	mov	r1, r3
 80002c0:	480c      	ldr	r0, [pc, #48]	; (80002f4 <MX_TIM4_Init+0xc0>)
 80002c2:	f001 f941 	bl	8001548 <HAL_TIM_PWM_ConfigChannel>
 80002c6:	4603      	mov	r3, r0
 80002c8:	2b00      	cmp	r3, #0
 80002ca:	d001      	beq.n	80002d0 <MX_TIM4_Init+0x9c>
  {
    Error_Handler();
 80002cc:	f000 f86e 	bl	80003ac <Error_Handler>
  }
  if (HAL_TIM_PWM_ConfigChannel(&htim4, &sConfigOC, TIM_CHANNEL_4) != HAL_OK)
 80002d0:	1d3b      	adds	r3, r7, #4
 80002d2:	220c      	movs	r2, #12
 80002d4:	4619      	mov	r1, r3
 80002d6:	4807      	ldr	r0, [pc, #28]	; (80002f4 <MX_TIM4_Init+0xc0>)
 80002d8:	f001 f936 	bl	8001548 <HAL_TIM_PWM_ConfigChannel>
 80002dc:	4603      	mov	r3, r0
 80002de:	2b00      	cmp	r3, #0
 80002e0:	d001      	beq.n	80002e6 <MX_TIM4_Init+0xb2>
  {
    Error_Handler();
 80002e2:	f000 f863 	bl	80003ac <Error_Handler>
  }
  /* USER CODE BEGIN TIM4_Init 2 */

  /* USER CODE END TIM4_Init 2 */
  HAL_TIM_MspPostInit(&htim4);
 80002e6:	4803      	ldr	r0, [pc, #12]	; (80002f4 <MX_TIM4_Init+0xc0>)
 80002e8:	f000 f8b6 	bl	8000458 <HAL_TIM_MspPostInit>

}
 80002ec:	bf00      	nop
 80002ee:	3728      	adds	r7, #40	; 0x28
 80002f0:	46bd      	mov	sp, r7
 80002f2:	bd80      	pop	{r7, pc}
 80002f4:	20000028 	.word	0x20000028
 80002f8:	40000800 	.word	0x40000800

080002fc <MX_GPIO_Init>:
  * @brief GPIO Initialization Function
  * @param None
  * @retval None
  */
static void MX_GPIO_Init(void)
{
 80002fc:	b580      	push	{r7, lr}
 80002fe:	b088      	sub	sp, #32
 8000300:	af00      	add	r7, sp, #0
  GPIO_InitTypeDef GPIO_InitStruct = {0};
 8000302:	f107 0310 	add.w	r3, r7, #16
 8000306:	2200      	movs	r2, #0
 8000308:	601a      	str	r2, [r3, #0]
 800030a:	605a      	str	r2, [r3, #4]
 800030c:	609a      	str	r2, [r3, #8]
 800030e:	60da      	str	r2, [r3, #12]
/* USER CODE BEGIN MX_GPIO_Init_1 */
/* USER CODE END MX_GPIO_Init_1 */

  /* GPIO Ports Clock Enable */
  __HAL_RCC_GPIOC_CLK_ENABLE();
 8000310:	4b24      	ldr	r3, [pc, #144]	; (80003a4 <MX_GPIO_Init+0xa8>)
 8000312:	699b      	ldr	r3, [r3, #24]
 8000314:	4a23      	ldr	r2, [pc, #140]	; (80003a4 <MX_GPIO_Init+0xa8>)
 8000316:	f043 0310 	orr.w	r3, r3, #16
 800031a:	6193      	str	r3, [r2, #24]
 800031c:	4b21      	ldr	r3, [pc, #132]	; (80003a4 <MX_GPIO_Init+0xa8>)
 800031e:	699b      	ldr	r3, [r3, #24]
 8000320:	f003 0310 	and.w	r3, r3, #16
 8000324:	60fb      	str	r3, [r7, #12]
 8000326:	68fb      	ldr	r3, [r7, #12]
  __HAL_RCC_GPIOD_CLK_ENABLE();
 8000328:	4b1e      	ldr	r3, [pc, #120]	; (80003a4 <MX_GPIO_Init+0xa8>)
 800032a:	699b      	ldr	r3, [r3, #24]
 800032c:	4a1d      	ldr	r2, [pc, #116]	; (80003a4 <MX_GPIO_Init+0xa8>)
 800032e:	f043 0320 	orr.w	r3, r3, #32
 8000332:	6193      	str	r3, [r2, #24]
 8000334:	4b1b      	ldr	r3, [pc, #108]	; (80003a4 <MX_GPIO_Init+0xa8>)
 8000336:	699b      	ldr	r3, [r3, #24]
 8000338:	f003 0320 	and.w	r3, r3, #32
 800033c:	60bb      	str	r3, [r7, #8]
 800033e:	68bb      	ldr	r3, [r7, #8]
  __HAL_RCC_GPIOA_CLK_ENABLE();
 8000340:	4b18      	ldr	r3, [pc, #96]	; (80003a4 <MX_GPIO_Init+0xa8>)
 8000342:	699b      	ldr	r3, [r3, #24]
 8000344:	4a17      	ldr	r2, [pc, #92]	; (80003a4 <MX_GPIO_Init+0xa8>)
 8000346:	f043 0304 	orr.w	r3, r3, #4
 800034a:	6193      	str	r3, [r2, #24]
 800034c:	4b15      	ldr	r3, [pc, #84]	; (80003a4 <MX_GPIO_Init+0xa8>)
 800034e:	699b      	ldr	r3, [r3, #24]
 8000350:	f003 0304 	and.w	r3, r3, #4
 8000354:	607b      	str	r3, [r7, #4]
 8000356:	687b      	ldr	r3, [r7, #4]
  __HAL_RCC_GPIOB_CLK_ENABLE();
 8000358:	4b12      	ldr	r3, [pc, #72]	; (80003a4 <MX_GPIO_Init+0xa8>)
 800035a:	699b      	ldr	r3, [r3, #24]
 800035c:	4a11      	ldr	r2, [pc, #68]	; (80003a4 <MX_GPIO_Init+0xa8>)
 800035e:	f043 0308 	orr.w	r3, r3, #8
 8000362:	6193      	str	r3, [r2, #24]
 8000364:	4b0f      	ldr	r3, [pc, #60]	; (80003a4 <MX_GPIO_Init+0xa8>)
 8000366:	699b      	ldr	r3, [r3, #24]
 8000368:	f003 0308 	and.w	r3, r3, #8
 800036c:	603b      	str	r3, [r7, #0]
 800036e:	683b      	ldr	r3, [r7, #0]

  /*Configure GPIO pin Output Level */
  HAL_GPIO_WritePin(USER_LED_GPIO_Port, USER_LED_Pin, GPIO_PIN_RESET);
 8000370:	2200      	movs	r2, #0
 8000372:	f44f 5100 	mov.w	r1, #8192	; 0x2000
 8000376:	480c      	ldr	r0, [pc, #48]	; (80003a8 <MX_GPIO_Init+0xac>)
 8000378:	f000 fbe4 	bl	8000b44 <HAL_GPIO_WritePin>

  /*Configure GPIO pin : USER_LED_Pin */
  GPIO_InitStruct.Pin = USER_LED_Pin;
 800037c:	f44f 5300 	mov.w	r3, #8192	; 0x2000
 8000380:	613b      	str	r3, [r7, #16]
  GPIO_InitStruct.Mode = GPIO_MODE_OUTPUT_PP;
 8000382:	2301      	movs	r3, #1
 8000384:	617b      	str	r3, [r7, #20]
  GPIO_InitStruct.Pull = GPIO_NOPULL;
 8000386:	2300      	movs	r3, #0
 8000388:	61bb      	str	r3, [r7, #24]
  GPIO_InitStruct.Speed = GPIO_SPEED_FREQ_LOW;
 800038a:	2302      	movs	r3, #2
 800038c:	61fb      	str	r3, [r7, #28]
  HAL_GPIO_Init(USER_LED_GPIO_Port, &GPIO_InitStruct);
 800038e:	f107 0310 	add.w	r3, r7, #16
 8000392:	4619      	mov	r1, r3
 8000394:	4804      	ldr	r0, [pc, #16]	; (80003a8 <MX_GPIO_Init+0xac>)
 8000396:	f000 fa51 	bl	800083c <HAL_GPIO_Init>

/* USER CODE BEGIN MX_GPIO_Init_2 */
/* USER CODE END MX_GPIO_Init_2 */
}
 800039a:	bf00      	nop
 800039c:	3720      	adds	r7, #32
 800039e:	46bd      	mov	sp, r7
 80003a0:	bd80      	pop	{r7, pc}
 80003a2:	bf00      	nop
 80003a4:	40021000 	.word	0x40021000
 80003a8:	40011000 	.word	0x40011000

080003ac <Error_Handler>:
/**
  * @brief  This function is executed in case of error occurrence.
  * @retval None
  */
void Error_Handler(void)
{
 80003ac:	b480      	push	{r7}
 80003ae:	af00      	add	r7, sp, #0
  \details Disables IRQ interrupts by setting the I-bit in the CPSR.
           Can only be executed in Privileged modes.
 */
__STATIC_FORCEINLINE void __disable_irq(void)
{
  __ASM volatile ("cpsid i" : : : "memory");
 80003b0:	b672      	cpsid	i
}
 80003b2:	bf00      	nop
  /* USER CODE BEGIN Error_Handler_Debug */
  /* User can add his own implementation to report the HAL error return state */
  __disable_irq();
  while (1)
 80003b4:	e7fe      	b.n	80003b4 <Error_Handler+0x8>
	...

080003b8 <HAL_MspInit>:
void HAL_TIM_MspPostInit(TIM_HandleTypeDef *htim);
                    /**
  * Initializes the Global MSP.
  */
void HAL_MspInit(void)
{
 80003b8:	b480      	push	{r7}
 80003ba:	b085      	sub	sp, #20
 80003bc:	af00      	add	r7, sp, #0
  /* USER CODE BEGIN MspInit 0 */

  /* USER CODE END MspInit 0 */

  __HAL_RCC_AFIO_CLK_ENABLE();
 80003be:	4b15      	ldr	r3, [pc, #84]	; (8000414 <HAL_MspInit+0x5c>)
 80003c0:	699b      	ldr	r3, [r3, #24]
 80003c2:	4a14      	ldr	r2, [pc, #80]	; (8000414 <HAL_MspInit+0x5c>)
 80003c4:	f043 0301 	orr.w	r3, r3, #1
 80003c8:	6193      	str	r3, [r2, #24]
 80003ca:	4b12      	ldr	r3, [pc, #72]	; (8000414 <HAL_MspInit+0x5c>)
 80003cc:	699b      	ldr	r3, [r3, #24]
 80003ce:	f003 0301 	and.w	r3, r3, #1
 80003d2:	60bb      	str	r3, [r7, #8]
 80003d4:	68bb      	ldr	r3, [r7, #8]
  __HAL_RCC_PWR_CLK_ENABLE();
 80003d6:	4b0f      	ldr	r3, [pc, #60]	; (8000414 <HAL_MspInit+0x5c>)
 80003d8:	69db      	ldr	r3, [r3, #28]
 80003da:	4a0e      	ldr	r2, [pc, #56]	; (8000414 <HAL_MspInit+0x5c>)
 80003dc:	f043 5380 	orr.w	r3, r3, #268435456	; 0x10000000
 80003e0:	61d3      	str	r3, [r2, #28]
 80003e2:	4b0c      	ldr	r3, [pc, #48]	; (8000414 <HAL_MspInit+0x5c>)
 80003e4:	69db      	ldr	r3, [r3, #28]
 80003e6:	f003 5380 	and.w	r3, r3, #268435456	; 0x10000000
 80003ea:	607b      	str	r3, [r7, #4]
 80003ec:	687b      	ldr	r3, [r7, #4]

  /* System interrupt init*/

  /** NOJTAG: JTAG-DP Disabled and SW-DP Enabled
  */
  __HAL_AFIO_REMAP_SWJ_NOJTAG();
 80003ee:	4b0a      	ldr	r3, [pc, #40]	; (8000418 <HAL_MspInit+0x60>)
 80003f0:	685b      	ldr	r3, [r3, #4]
 80003f2:	60fb      	str	r3, [r7, #12]
 80003f4:	68fb      	ldr	r3, [r7, #12]
 80003f6:	f023 63e0 	bic.w	r3, r3, #117440512	; 0x7000000
 80003fa:	60fb      	str	r3, [r7, #12]
 80003fc:	68fb      	ldr	r3, [r7, #12]
 80003fe:	f043 7300 	orr.w	r3, r3, #33554432	; 0x2000000
 8000402:	60fb      	str	r3, [r7, #12]
 8000404:	4a04      	ldr	r2, [pc, #16]	; (8000418 <HAL_MspInit+0x60>)
 8000406:	68fb      	ldr	r3, [r7, #12]
 8000408:	6053      	str	r3, [r2, #4]

  /* USER CODE BEGIN MspInit 1 */

  /* USER CODE END MspInit 1 */
}
 800040a:	bf00      	nop
 800040c:	3714      	adds	r7, #20
 800040e:	46bd      	mov	sp, r7
 8000410:	bc80      	pop	{r7}
 8000412:	4770      	bx	lr
 8000414:	40021000 	.word	0x40021000
 8000418:	40010000 	.word	0x40010000

0800041c <HAL_TIM_PWM_MspInit>:
* This function configures the hardware resources used in this example
* @param htim_pwm: TIM_PWM handle pointer
* @retval None
*/
void HAL_TIM_PWM_MspInit(TIM_HandleTypeDef* htim_pwm)
{
 800041c:	b480      	push	{r7}
 800041e:	b085      	sub	sp, #20
 8000420:	af00      	add	r7, sp, #0
 8000422:	6078      	str	r0, [r7, #4]
  if(htim_pwm->Instance==TIM4)
 8000424:	687b      	ldr	r3, [r7, #4]
 8000426:	681b      	ldr	r3, [r3, #0]
 8000428:	4a09      	ldr	r2, [pc, #36]	; (8000450 <HAL_TIM_PWM_MspInit+0x34>)
 800042a:	4293      	cmp	r3, r2
 800042c:	d10b      	bne.n	8000446 <HAL_TIM_PWM_MspInit+0x2a>
  {
  /* USER CODE BEGIN TIM4_MspInit 0 */

  /* USER CODE END TIM4_MspInit 0 */
    /* Peripheral clock enable */
    __HAL_RCC_TIM4_CLK_ENABLE();
 800042e:	4b09      	ldr	r3, [pc, #36]	; (8000454 <HAL_TIM_PWM_MspInit+0x38>)
 8000430:	69db      	ldr	r3, [r3, #28]
 8000432:	4a08      	ldr	r2, [pc, #32]	; (8000454 <HAL_TIM_PWM_MspInit+0x38>)
 8000434:	f043 0304 	orr.w	r3, r3, #4
 8000438:	61d3      	str	r3, [r2, #28]
 800043a:	4b06      	ldr	r3, [pc, #24]	; (8000454 <HAL_TIM_PWM_MspInit+0x38>)
 800043c:	69db      	ldr	r3, [r3, #28]
 800043e:	f003 0304 	and.w	r3, r3, #4
 8000442:	60fb      	str	r3, [r7, #12]
 8000444:	68fb      	ldr	r3, [r7, #12]
  /* USER CODE BEGIN TIM4_MspInit 1 */

  /* USER CODE END TIM4_MspInit 1 */
  }

}
 8000446:	bf00      	nop
 8000448:	3714      	adds	r7, #20
 800044a:	46bd      	mov	sp, r7
 800044c:	bc80      	pop	{r7}
 800044e:	4770      	bx	lr
 8000450:	40000800 	.word	0x40000800
 8000454:	40021000 	.word	0x40021000

08000458 <HAL_TIM_MspPostInit>:

void HAL_TIM_MspPostInit(TIM_HandleTypeDef* htim)
{
 8000458:	b580      	push	{r7, lr}
 800045a:	b088      	sub	sp, #32
 800045c:	af00      	add	r7, sp, #0
 800045e:	6078      	str	r0, [r7, #4]
  GPIO_InitTypeDef GPIO_InitStruct = {0};
 8000460:	f107 0310 	add.w	r3, r7, #16
 8000464:	2200      	movs	r2, #0
 8000466:	601a      	str	r2, [r3, #0]
 8000468:	605a      	str	r2, [r3, #4]
 800046a:	609a      	str	r2, [r3, #8]
 800046c:	60da      	str	r2, [r3, #12]
  if(htim->Instance==TIM4)
 800046e:	687b      	ldr	r3, [r7, #4]
 8000470:	681b      	ldr	r3, [r3, #0]
 8000472:	4a10      	ldr	r2, [pc, #64]	; (80004b4 <HAL_TIM_MspPostInit+0x5c>)
 8000474:	4293      	cmp	r3, r2
 8000476:	d118      	bne.n	80004aa <HAL_TIM_MspPostInit+0x52>
  {
  /* USER CODE BEGIN TIM4_MspPostInit 0 */

  /* USER CODE END TIM4_MspPostInit 0 */

    __HAL_RCC_GPIOB_CLK_ENABLE();
 8000478:	4b0f      	ldr	r3, [pc, #60]	; (80004b8 <HAL_TIM_MspPostInit+0x60>)
 800047a:	699b      	ldr	r3, [r3, #24]
 800047c:	4a0e      	ldr	r2, [pc, #56]	; (80004b8 <HAL_TIM_MspPostInit+0x60>)
 800047e:	f043 0308 	orr.w	r3, r3, #8
 8000482:	6193      	str	r3, [r2, #24]
 8000484:	4b0c      	ldr	r3, [pc, #48]	; (80004b8 <HAL_TIM_MspPostInit+0x60>)
 8000486:	699b      	ldr	r3, [r3, #24]
 8000488:	f003 0308 	and.w	r3, r3, #8
 800048c:	60fb      	str	r3, [r7, #12]
 800048e:	68fb      	ldr	r3, [r7, #12]
    /**TIM4 GPIO Configuration
    PB8     ------> TIM4_CH3
    PB9     ------> TIM4_CH4
    */
    GPIO_InitStruct.Pin = GPIO_PIN_8|GPIO_PIN_9;
 8000490:	f44f 7340 	mov.w	r3, #768	; 0x300
 8000494:	613b      	str	r3, [r7, #16]
    GPIO_InitStruct.Mode = GPIO_MODE_AF_PP;
 8000496:	2302      	movs	r3, #2
 8000498:	617b      	str	r3, [r7, #20]
    GPIO_InitStruct.Speed = GPIO_SPEED_FREQ_LOW;
 800049a:	2302      	movs	r3, #2
 800049c:	61fb      	str	r3, [r7, #28]
    HAL_GPIO_Init(GPIOB, &GPIO_InitStruct);
 800049e:	f107 0310 	add.w	r3, r7, #16
 80004a2:	4619      	mov	r1, r3
 80004a4:	4805      	ldr	r0, [pc, #20]	; (80004bc <HAL_TIM_MspPostInit+0x64>)
 80004a6:	f000 f9c9 	bl	800083c <HAL_GPIO_Init>
  /* USER CODE BEGIN TIM4_MspPostInit 1 */

  /* USER CODE END TIM4_MspPostInit 1 */
  }

}
 80004aa:	bf00      	nop
 80004ac:	3720      	adds	r7, #32
 80004ae:	46bd      	mov	sp, r7
 80004b0:	bd80      	pop	{r7, pc}
 80004b2:	bf00      	nop
 80004b4:	40000800 	.word	0x40000800
 80004b8:	40021000 	.word	0x40021000
 80004bc:	40010c00 	.word	0x40010c00

080004c0 <NMI_Handler>:
/******************************************************************************/
/**
  * @brief This function handles Non maskable interrupt.
  */
void NMI_Handler(void)
{
 80004c0:	b480      	push	{r7}
 80004c2:	af00      	add	r7, sp, #0
  /* USER CODE BEGIN NonMaskableInt_IRQn 0 */

  /* USER CODE END NonMaskableInt_IRQn 0 */
  /* USER CODE BEGIN NonMaskableInt_IRQn 1 */
  while (1)
 80004c4:	e7fe      	b.n	80004c4 <NMI_Handler+0x4>

080004c6 <HardFault_Handler>:

/**
  * @brief This function handles Hard fault interrupt.
  */
void HardFault_Handler(void)
{
 80004c6:	b480      	push	{r7}
 80004c8:	af00      	add	r7, sp, #0
  /* USER CODE BEGIN HardFault_IRQn 0 */

  /* USER CODE END HardFault_IRQn 0 */
  while (1)
 80004ca:	e7fe      	b.n	80004ca <HardFault_Handler+0x4>

080004cc <MemManage_Handler>:

/**
  * @brief This function handles Memory management fault.
  */
void MemManage_Handler(void)
{
 80004cc:	b480      	push	{r7}
 80004ce:	af00      	add	r7, sp, #0
  /* USER CODE BEGIN MemoryManagement_IRQn 0 */

  /* USER CODE END MemoryManagement_IRQn 0 */
  while (1)
 80004d0:	e7fe      	b.n	80004d0 <MemManage_Handler+0x4>

080004d2 <BusFault_Handler>:

/**
  * @brief This function handles Prefetch fault, memory access fault.
  */
void BusFault_Handler(void)
{
 80004d2:	b480      	push	{r7}
 80004d4:	af00      	add	r7, sp, #0
  /* USER CODE BEGIN BusFault_IRQn 0 */

  /* USER CODE END BusFault_IRQn 0 */
  while (1)
 80004d6:	e7fe      	b.n	80004d6 <BusFault_Handler+0x4>

080004d8 <UsageFault_Handler>:

/**
  * @brief This function handles Undefined instruction or illegal state.
  */
void UsageFault_Handler(void)
{
 80004d8:	b480      	push	{r7}
 80004da:	af00      	add	r7, sp, #0
  /* USER CODE BEGIN UsageFault_IRQn 0 */

  /* USER CODE END UsageFault_IRQn 0 */
  while (1)
 80004dc:	e7fe      	b.n	80004dc <UsageFault_Handler+0x4>

080004de <SVC_Handler>:

/**
  * @brief This function handles System service call via SWI instruction.
  */
void SVC_Handler(void)
{
 80004de:	b480      	push	{r7}
 80004e0:	af00      	add	r7, sp, #0

  /* USER CODE END SVCall_IRQn 0 */
  /* USER CODE BEGIN SVCall_IRQn 1 */

  /* USER CODE END SVCall_IRQn 1 */
}
 80004e2:	bf00      	nop
 80004e4:	46bd      	mov	sp, r7
 80004e6:	bc80      	pop	{r7}
 80004e8:	4770      	bx	lr

080004ea <DebugMon_Handler>:

/**
  * @brief This function handles Debug monitor.
  */
void DebugMon_Handler(void)
{
 80004ea:	b480      	push	{r7}
 80004ec:	af00      	add	r7, sp, #0

  /* USER CODE END DebugMonitor_IRQn 0 */
  /* USER CODE BEGIN DebugMonitor_IRQn 1 */

  /* USER CODE END DebugMonitor_IRQn 1 */
}
 80004ee:	bf00      	nop
 80004f0:	46bd      	mov	sp, r7
 80004f2:	bc80      	pop	{r7}
 80004f4:	4770      	bx	lr

080004f6 <PendSV_Handler>:

/**
  * @brief This function handles Pendable request for system service.
  */
void PendSV_Handler(void)
{
 80004f6:	b480      	push	{r7}
 80004f8:	af00      	add	r7, sp, #0

  /* USER CODE END PendSV_IRQn 0 */
  /* USER CODE BEGIN PendSV_IRQn 1 */

  /* USER CODE END PendSV_IRQn 1 */
}
 80004fa:	bf00      	nop
 80004fc:	46bd      	mov	sp, r7
 80004fe:	bc80      	pop	{r7}
 8000500:	4770      	bx	lr

08000502 <SysTick_Handler>:

/**
  * @brief This function handles System tick timer.
  */
void SysTick_Handler(void)
{
 8000502:	b580      	push	{r7, lr}
 8000504:	af00      	add	r7, sp, #0
  /* USER CODE BEGIN SysTick_IRQn 0 */

  /* USER CODE END SysTick_IRQn 0 */
  HAL_IncTick();
 8000506:	f000 f875 	bl	80005f4 <HAL_IncTick>
  /* USER CODE BEGIN SysTick_IRQn 1 */

  /* USER CODE END SysTick_IRQn 1 */
}
 800050a:	bf00      	nop
 800050c:	bd80      	pop	{r7, pc}

0800050e <SystemInit>:
  * @note   This function should be used only after reset.
  * @param  None
  * @retval None
  */
void SystemInit (void)
{
 800050e:	b480      	push	{r7}
 8000510:	af00      	add	r7, sp, #0

  /* Configure the Vector Table location -------------------------------------*/
#if defined(USER_VECT_TAB_ADDRESS)
  SCB->VTOR = VECT_TAB_BASE_ADDRESS | VECT_TAB_OFFSET; /* Vector Table Relocation in Internal SRAM. */
#endif /* USER_VECT_TAB_ADDRESS */
}
 8000512:	bf00      	nop
 8000514:	46bd      	mov	sp, r7
 8000516:	bc80      	pop	{r7}
 8000518:	4770      	bx	lr
	...

0800051c <Reset_Handler>:
  .weak Reset_Handler
  .type Reset_Handler, %function
Reset_Handler:

/* Call the clock system initialization function.*/
    bl  SystemInit
 800051c:	f7ff fff7 	bl	800050e <SystemInit>

/* Copy the data segment initializers from flash to SRAM */
  ldr r0, =_sdata
 8000520:	480b      	ldr	r0, [pc, #44]	; (8000550 <LoopFillZerobss+0xe>)
  ldr r1, =_edata
 8000522:	490c      	ldr	r1, [pc, #48]	; (8000554 <LoopFillZerobss+0x12>)
  ldr r2, =_sidata
 8000524:	4a0c      	ldr	r2, [pc, #48]	; (8000558 <LoopFillZerobss+0x16>)
  movs r3, #0
 8000526:	2300      	movs	r3, #0
  b LoopCopyDataInit
 8000528:	e002      	b.n	8000530 <LoopCopyDataInit>

0800052a <CopyDataInit>:

CopyDataInit:
  ldr r4, [r2, r3]
 800052a:	58d4      	ldr	r4, [r2, r3]
  str r4, [r0, r3]
 800052c:	50c4      	str	r4, [r0, r3]
  adds r3, r3, #4
 800052e:	3304      	adds	r3, #4

08000530 <LoopCopyDataInit>:

LoopCopyDataInit:
  adds r4, r0, r3
 8000530:	18c4      	adds	r4, r0, r3
  cmp r4, r1
 8000532:	428c      	cmp	r4, r1
  bcc CopyDataInit
 8000534:	d3f9      	bcc.n	800052a <CopyDataInit>
  
/* Zero fill the bss segment. */
  ldr r2, =_sbss
 8000536:	4a09      	ldr	r2, [pc, #36]	; (800055c <LoopFillZerobss+0x1a>)
  ldr r4, =_ebss
 8000538:	4c09      	ldr	r4, [pc, #36]	; (8000560 <LoopFillZerobss+0x1e>)
  movs r3, #0
 800053a:	2300      	movs	r3, #0
  b LoopFillZerobss
 800053c:	e001      	b.n	8000542 <LoopFillZerobss>

0800053e <FillZerobss>:

FillZerobss:
  str  r3, [r2]
 800053e:	6013      	str	r3, [r2, #0]
  adds r2, r2, #4
 8000540:	3204      	adds	r2, #4

08000542 <LoopFillZerobss>:

LoopFillZerobss:
  cmp r2, r4
 8000542:	42a2      	cmp	r2, r4
  bcc FillZerobss
 8000544:	d3fb      	bcc.n	800053e <FillZerobss>

/* Call static constructors */
    bl __libc_init_array
 8000546:	f001 fb35 	bl	8001bb4 <__libc_init_array>
/* Call the application's entry point.*/
  bl main
 800054a:	f7ff fdff 	bl	800014c <main>
  bx lr
 800054e:	4770      	bx	lr
  ldr r0, =_sdata
 8000550:	20000000 	.word	0x20000000
  ldr r1, =_edata
 8000554:	2000000c 	.word	0x2000000c
  ldr r2, =_sidata
 8000558:	08001c40 	.word	0x08001c40
  ldr r2, =_sbss
 800055c:	2000000c 	.word	0x2000000c
  ldr r4, =_ebss
 8000560:	20000078 	.word	0x20000078

08000564 <ADC1_2_IRQHandler>:
 * @retval : None
*/
    .section .text.Default_Handler,"ax",%progbits
Default_Handler:
Infinite_Loop:
  b Infinite_Loop
 8000564:	e7fe      	b.n	8000564 <ADC1_2_IRQHandler>
	...

08000568 <HAL_Init>:
  *         need to ensure that the SysTick time base is always set to 1 millisecond
  *         to have correct HAL operation.
  * @retval HAL status
  */
HAL_StatusTypeDef HAL_Init(void)
{
 8000568:	b580      	push	{r7, lr}
 800056a:	af00      	add	r7, sp, #0
    defined(STM32F102x6) || defined(STM32F102xB) || \
    defined(STM32F103x6) || defined(STM32F103xB) || defined(STM32F103xE) || defined(STM32F103xG) || \
    defined(STM32F105xC) || defined(STM32F107xC)

  /* Prefetch buffer is not available on value line devices */
  __HAL_FLASH_PREFETCH_BUFFER_ENABLE();
 800056c:	4b08      	ldr	r3, [pc, #32]	; (8000590 <HAL_Init+0x28>)
 800056e:	681b      	ldr	r3, [r3, #0]
 8000570:	4a07      	ldr	r2, [pc, #28]	; (8000590 <HAL_Init+0x28>)
 8000572:	f043 0310 	orr.w	r3, r3, #16
 8000576:	6013      	str	r3, [r2, #0]
#endif
#endif /* PREFETCH_ENABLE */

  /* Set Interrupt Group Priority */
  HAL_NVIC_SetPriorityGrouping(NVIC_PRIORITYGROUP_4);
 8000578:	2003      	movs	r0, #3
 800057a:	f000 f92b 	bl	80007d4 <HAL_NVIC_SetPriorityGrouping>

  /* Use systick as time base source and configure 1ms tick (default clock after Reset is HSI) */
  HAL_InitTick(TICK_INT_PRIORITY);
 800057e:	200f      	movs	r0, #15
 8000580:	f000 f808 	bl	8000594 <HAL_InitTick>

  /* Init the low level hardware */
  HAL_MspInit();
 8000584:	f7ff ff18 	bl	80003b8 <HAL_MspInit>

  /* Return function status */
  return HAL_OK;
 8000588:	2300      	movs	r3, #0
}
 800058a:	4618      	mov	r0, r3
 800058c:	bd80      	pop	{r7, pc}
 800058e:	bf00      	nop
 8000590:	40022000 	.word	0x40022000

08000594 <HAL_InitTick>:
  *       implementation  in user file.
  * @param TickPriority Tick interrupt priority.
  * @retval HAL status
  */
__weak HAL_StatusTypeDef HAL_InitTick(uint32_t TickPriority)
{
 8000594:	b580      	push	{r7, lr}
 8000596:	b082      	sub	sp, #8
 8000598:	af00      	add	r7, sp, #0
 800059a:	6078      	str	r0, [r7, #4]
  /* Configure the SysTick to have interrupt in 1ms time basis*/
  if (HAL_SYSTICK_Config(SystemCoreClock / (1000U / uwTickFreq)) > 0U)
 800059c:	4b12      	ldr	r3, [pc, #72]	; (80005e8 <HAL_InitTick+0x54>)
 800059e:	681a      	ldr	r2, [r3, #0]
 80005a0:	4b12      	ldr	r3, [pc, #72]	; (80005ec <HAL_InitTick+0x58>)
 80005a2:	781b      	ldrb	r3, [r3, #0]
 80005a4:	4619      	mov	r1, r3
 80005a6:	f44f 737a 	mov.w	r3, #1000	; 0x3e8
 80005aa:	fbb3 f3f1 	udiv	r3, r3, r1
 80005ae:	fbb2 f3f3 	udiv	r3, r2, r3
 80005b2:	4618      	mov	r0, r3
 80005b4:	f000 f935 	bl	8000822 <HAL_SYSTICK_Config>
 80005b8:	4603      	mov	r3, r0
 80005ba:	2b00      	cmp	r3, #0
 80005bc:	d001      	beq.n	80005c2 <HAL_InitTick+0x2e>
  {
    return HAL_ERROR;
 80005be:	2301      	movs	r3, #1
 80005c0:	e00e      	b.n	80005e0 <HAL_InitTick+0x4c>
  }

  /* Configure the SysTick IRQ priority */
  if (TickPriority < (1UL << __NVIC_PRIO_BITS))
 80005c2:	687b      	ldr	r3, [r7, #4]
 80005c4:	2b0f      	cmp	r3, #15
 80005c6:	d80a      	bhi.n	80005de <HAL_InitTick+0x4a>
  {
    HAL_NVIC_SetPriority(SysTick_IRQn, TickPriority, 0U);
 80005c8:	2200      	movs	r2, #0
 80005ca:	6879      	ldr	r1, [r7, #4]
 80005cc:	f04f 30ff 	mov.w	r0, #4294967295
 80005d0:	f000 f90b 	bl	80007ea <HAL_NVIC_SetPriority>
    uwTickPrio = TickPriority;
 80005d4:	4a06      	ldr	r2, [pc, #24]	; (80005f0 <HAL_InitTick+0x5c>)
 80005d6:	687b      	ldr	r3, [r7, #4]
 80005d8:	6013      	str	r3, [r2, #0]
  {
    return HAL_ERROR;
  }

  /* Return function status */
  return HAL_OK;
 80005da:	2300      	movs	r3, #0
 80005dc:	e000      	b.n	80005e0 <HAL_InitTick+0x4c>
    return HAL_ERROR;
 80005de:	2301      	movs	r3, #1
}
 80005e0:	4618      	mov	r0, r3
 80005e2:	3708      	adds	r7, #8
 80005e4:	46bd      	mov	sp, r7
 80005e6:	bd80      	pop	{r7, pc}
 80005e8:	20000000 	.word	0x20000000
 80005ec:	20000008 	.word	0x20000008
 80005f0:	20000004 	.word	0x20000004

080005f4 <HAL_IncTick>:
  * @note This function is declared as __weak to be overwritten in case of other
  *      implementations in user file.
  * @retval None
  */
__weak void HAL_IncTick(void)
{
 80005f4:	b480      	push	{r7}
 80005f6:	af00      	add	r7, sp, #0
  uwTick += uwTickFreq;
 80005f8:	4b05      	ldr	r3, [pc, #20]	; (8000610 <HAL_IncTick+0x1c>)
 80005fa:	781b      	ldrb	r3, [r3, #0]
 80005fc:	461a      	mov	r2, r3
 80005fe:	4b05      	ldr	r3, [pc, #20]	; (8000614 <HAL_IncTick+0x20>)
 8000600:	681b      	ldr	r3, [r3, #0]
 8000602:	4413      	add	r3, r2
 8000604:	4a03      	ldr	r2, [pc, #12]	; (8000614 <HAL_IncTick+0x20>)
 8000606:	6013      	str	r3, [r2, #0]
}
 8000608:	bf00      	nop
 800060a:	46bd      	mov	sp, r7
 800060c:	bc80      	pop	{r7}
 800060e:	4770      	bx	lr
 8000610:	20000008 	.word	0x20000008
 8000614:	20000074 	.word	0x20000074

08000618 <HAL_GetTick>:
  * @note  This function is declared as __weak to be overwritten in case of other
  *       implementations in user file.
  * @retval tick value
  */
__weak uint32_t HAL_GetTick(void)
{
 8000618:	b480      	push	{r7}
 800061a:	af00      	add	r7, sp, #0
  return uwTick;
 800061c:	4b02      	ldr	r3, [pc, #8]	; (8000628 <HAL_GetTick+0x10>)
 800061e:	681b      	ldr	r3, [r3, #0]
}
 8000620:	4618      	mov	r0, r3
 8000622:	46bd      	mov	sp, r7
 8000624:	bc80      	pop	{r7}
 8000626:	4770      	bx	lr
 8000628:	20000074 	.word	0x20000074

0800062c <HAL_Delay>:
  *       implementations in user file.
  * @param Delay specifies the delay time length, in milliseconds.
  * @retval None
  */
__weak void HAL_Delay(uint32_t Delay)
{
 800062c:	b580      	push	{r7, lr}
 800062e:	b084      	sub	sp, #16
 8000630:	af00      	add	r7, sp, #0
 8000632:	6078      	str	r0, [r7, #4]
  uint32_t tickstart = HAL_GetTick();
 8000634:	f7ff fff0 	bl	8000618 <HAL_GetTick>
 8000638:	60b8      	str	r0, [r7, #8]
  uint32_t wait = Delay;
 800063a:	687b      	ldr	r3, [r7, #4]
 800063c:	60fb      	str	r3, [r7, #12]

  /* Add a freq to guarantee minimum wait */
  if (wait < HAL_MAX_DELAY)
 800063e:	68fb      	ldr	r3, [r7, #12]
 8000640:	f1b3 3fff 	cmp.w	r3, #4294967295
 8000644:	d005      	beq.n	8000652 <HAL_Delay+0x26>
  {
    wait += (uint32_t)(uwTickFreq);
 8000646:	4b0a      	ldr	r3, [pc, #40]	; (8000670 <HAL_Delay+0x44>)
 8000648:	781b      	ldrb	r3, [r3, #0]
 800064a:	461a      	mov	r2, r3
 800064c:	68fb      	ldr	r3, [r7, #12]
 800064e:	4413      	add	r3, r2
 8000650:	60fb      	str	r3, [r7, #12]
  }

  while ((HAL_GetTick() - tickstart) < wait)
 8000652:	bf00      	nop
 8000654:	f7ff ffe0 	bl	8000618 <HAL_GetTick>
 8000658:	4602      	mov	r2, r0
 800065a:	68bb      	ldr	r3, [r7, #8]
 800065c:	1ad3      	subs	r3, r2, r3
 800065e:	68fa      	ldr	r2, [r7, #12]
 8000660:	429a      	cmp	r2, r3
 8000662:	d8f7      	bhi.n	8000654 <HAL_Delay+0x28>
  {
  }
}
 8000664:	bf00      	nop
 8000666:	bf00      	nop
 8000668:	3710      	adds	r7, #16
 800066a:	46bd      	mov	sp, r7
 800066c:	bd80      	pop	{r7, pc}
 800066e:	bf00      	nop
 8000670:	20000008 	.word	0x20000008

08000674 <__NVIC_SetPriorityGrouping>:
           In case of a conflict between priority grouping and available
           priority bits (__NVIC_PRIO_BITS), the smallest possible priority group is set.
  \param [in]      PriorityGroup  Priority grouping field.
 */
__STATIC_INLINE void __NVIC_SetPriorityGrouping(uint32_t PriorityGroup)
{
 8000674:	b480      	push	{r7}
 8000676:	b085      	sub	sp, #20
 8000678:	af00      	add	r7, sp, #0
 800067a:	6078      	str	r0, [r7, #4]
  uint32_t reg_value;
  uint32_t PriorityGroupTmp = (PriorityGroup & (uint32_t)0x07UL);             /* only values 0..7 are used          */
 800067c:	687b      	ldr	r3, [r7, #4]
 800067e:	f003 0307 	and.w	r3, r3, #7
 8000682:	60fb      	str	r3, [r7, #12]

  reg_value  =  SCB->AIRCR;                                                   /* read old register configuration    */
 8000684:	4b0c      	ldr	r3, [pc, #48]	; (80006b8 <__NVIC_SetPriorityGrouping+0x44>)
 8000686:	68db      	ldr	r3, [r3, #12]
 8000688:	60bb      	str	r3, [r7, #8]
  reg_value &= ~((uint32_t)(SCB_AIRCR_VECTKEY_Msk | SCB_AIRCR_PRIGROUP_Msk)); /* clear bits to change               */
 800068a:	68ba      	ldr	r2, [r7, #8]
 800068c:	f64f 03ff 	movw	r3, #63743	; 0xf8ff
 8000690:	4013      	ands	r3, r2
 8000692:	60bb      	str	r3, [r7, #8]
  reg_value  =  (reg_value                                   |
                ((uint32_t)0x5FAUL << SCB_AIRCR_VECTKEY_Pos) |
                (PriorityGroupTmp << SCB_AIRCR_PRIGROUP_Pos) );               /* Insert write key and priority group */
 8000694:	68fb      	ldr	r3, [r7, #12]
 8000696:	021a      	lsls	r2, r3, #8
                ((uint32_t)0x5FAUL << SCB_AIRCR_VECTKEY_Pos) |
 8000698:	68bb      	ldr	r3, [r7, #8]
 800069a:	4313      	orrs	r3, r2
  reg_value  =  (reg_value                                   |
 800069c:	f043 63bf 	orr.w	r3, r3, #100139008	; 0x5f80000
 80006a0:	f443 3300 	orr.w	r3, r3, #131072	; 0x20000
 80006a4:	60bb      	str	r3, [r7, #8]
  SCB->AIRCR =  reg_value;
 80006a6:	4a04      	ldr	r2, [pc, #16]	; (80006b8 <__NVIC_SetPriorityGrouping+0x44>)
 80006a8:	68bb      	ldr	r3, [r7, #8]
 80006aa:	60d3      	str	r3, [r2, #12]
}
 80006ac:	bf00      	nop
 80006ae:	3714      	adds	r7, #20
 80006b0:	46bd      	mov	sp, r7
 80006b2:	bc80      	pop	{r7}
 80006b4:	4770      	bx	lr
 80006b6:	bf00      	nop
 80006b8:	e000ed00 	.word	0xe000ed00

080006bc <__NVIC_GetPriorityGrouping>:
  \brief   Get Priority Grouping
  \details Reads the priority grouping field from the NVIC Interrupt Controller.
  \return                Priority grouping field (SCB->AIRCR [10:8] PRIGROUP field).
 */
__STATIC_INLINE uint32_t __NVIC_GetPriorityGrouping(void)
{
 80006bc:	b480      	push	{r7}
 80006be:	af00      	add	r7, sp, #0
  return ((uint32_t)((SCB->AIRCR & SCB_AIRCR_PRIGROUP_Msk) >> SCB_AIRCR_PRIGROUP_Pos));
 80006c0:	4b04      	ldr	r3, [pc, #16]	; (80006d4 <__NVIC_GetPriorityGrouping+0x18>)
 80006c2:	68db      	ldr	r3, [r3, #12]
 80006c4:	0a1b      	lsrs	r3, r3, #8
 80006c6:	f003 0307 	and.w	r3, r3, #7
}
 80006ca:	4618      	mov	r0, r3
 80006cc:	46bd      	mov	sp, r7
 80006ce:	bc80      	pop	{r7}
 80006d0:	4770      	bx	lr
 80006d2:	bf00      	nop
 80006d4:	e000ed00 	.word	0xe000ed00

080006d8 <__NVIC_SetPriority>:
  \param [in]      IRQn  Interrupt number.
  \param [in]  priority  Priority to set.
  \note    The priority cannot be set for every processor exception.
 */
__STATIC_INLINE void __NVIC_SetPriority(IRQn_Type IRQn, uint32_t priority)
{
 80006d8:	b480      	push	{r7}
 80006da:	b083      	sub	sp, #12
 80006dc:	af00      	add	r7, sp, #0
 80006de:	4603      	mov	r3, r0
 80006e0:	6039      	str	r1, [r7, #0]
 80006e2:	71fb      	strb	r3, [r7, #7]
  if ((int32_t)(IRQn) >= 0)
 80006e4:	f997 3007 	ldrsb.w	r3, [r7, #7]
 80006e8:	2b00      	cmp	r3, #0
 80006ea:	db0a      	blt.n	8000702 <__NVIC_SetPriority+0x2a>
  {
    NVIC->IP[((uint32_t)IRQn)]               = (uint8_t)((priority << (8U - __NVIC_PRIO_BITS)) & (uint32_t)0xFFUL);
 80006ec:	683b      	ldr	r3, [r7, #0]
 80006ee:	b2da      	uxtb	r2, r3
 80006f0:	490c      	ldr	r1, [pc, #48]	; (8000724 <__NVIC_SetPriority+0x4c>)
 80006f2:	f997 3007 	ldrsb.w	r3, [r7, #7]
 80006f6:	0112      	lsls	r2, r2, #4
 80006f8:	b2d2      	uxtb	r2, r2
 80006fa:	440b      	add	r3, r1
 80006fc:	f883 2300 	strb.w	r2, [r3, #768]	; 0x300
  }
  else
  {
    SCB->SHP[(((uint32_t)IRQn) & 0xFUL)-4UL] = (uint8_t)((priority << (8U - __NVIC_PRIO_BITS)) & (uint32_t)0xFFUL);
  }
}
 8000700:	e00a      	b.n	8000718 <__NVIC_SetPriority+0x40>
    SCB->SHP[(((uint32_t)IRQn) & 0xFUL)-4UL] = (uint8_t)((priority << (8U - __NVIC_PRIO_BITS)) & (uint32_t)0xFFUL);
 8000702:	683b      	ldr	r3, [r7, #0]
 8000704:	b2da      	uxtb	r2, r3
 8000706:	4908      	ldr	r1, [pc, #32]	; (8000728 <__NVIC_SetPriority+0x50>)
 8000708:	79fb      	ldrb	r3, [r7, #7]
 800070a:	f003 030f 	and.w	r3, r3, #15
 800070e:	3b04      	subs	r3, #4
 8000710:	0112      	lsls	r2, r2, #4
 8000712:	b2d2      	uxtb	r2, r2
 8000714:	440b      	add	r3, r1
 8000716:	761a      	strb	r2, [r3, #24]
}
 8000718:	bf00      	nop
 800071a:	370c      	adds	r7, #12
 800071c:	46bd      	mov	sp, r7
 800071e:	bc80      	pop	{r7}
 8000720:	4770      	bx	lr
 8000722:	bf00      	nop
 8000724:	e000e100 	.word	0xe000e100
 8000728:	e000ed00 	.word	0xe000ed00

0800072c <NVIC_EncodePriority>:
  \param [in]   PreemptPriority  Preemptive priority value (starting from 0).
  \param [in]       SubPriority  Subpriority value (starting from 0).
  \return                        Encoded priority. Value can be used in the function \ref NVIC_SetPriority().
 */
__STATIC_INLINE uint32_t NVIC_EncodePriority (uint32_t PriorityGroup, uint32_t PreemptPriority, uint32_t SubPriority)
{
 800072c:	b480      	push	{r7}
 800072e:	b089      	sub	sp, #36	; 0x24
 8000730:	af00      	add	r7, sp, #0
 8000732:	60f8      	str	r0, [r7, #12]
 8000734:	60b9      	str	r1, [r7, #8]
 8000736:	607a      	str	r2, [r7, #4]
  uint32_t PriorityGroupTmp = (PriorityGroup & (uint32_t)0x07UL);   /* only values 0..7 are used          */
 8000738:	68fb      	ldr	r3, [r7, #12]
 800073a:	f003 0307 	and.w	r3, r3, #7
 800073e:	61fb      	str	r3, [r7, #28]
  uint32_t PreemptPriorityBits;
  uint32_t SubPriorityBits;

  PreemptPriorityBits = ((7UL - PriorityGroupTmp) > (uint32_t)(__NVIC_PRIO_BITS)) ? (uint32_t)(__NVIC_PRIO_BITS) : (uint32_t)(7UL - PriorityGroupTmp);
 8000740:	69fb      	ldr	r3, [r7, #28]
 8000742:	f1c3 0307 	rsb	r3, r3, #7
 8000746:	2b04      	cmp	r3, #4
 8000748:	bf28      	it	cs
 800074a:	2304      	movcs	r3, #4
 800074c:	61bb      	str	r3, [r7, #24]
  SubPriorityBits     = ((PriorityGroupTmp + (uint32_t)(__NVIC_PRIO_BITS)) < (uint32_t)7UL) ? (uint32_t)0UL : (uint32_t)((PriorityGroupTmp - 7UL) + (uint32_t)(__NVIC_PRIO_BITS));
 800074e:	69fb      	ldr	r3, [r7, #28]
 8000750:	3304      	adds	r3, #4
 8000752:	2b06      	cmp	r3, #6
 8000754:	d902      	bls.n	800075c <NVIC_EncodePriority+0x30>
 8000756:	69fb      	ldr	r3, [r7, #28]
 8000758:	3b03      	subs	r3, #3
 800075a:	e000      	b.n	800075e <NVIC_EncodePriority+0x32>
 800075c:	2300      	movs	r3, #0
 800075e:	617b      	str	r3, [r7, #20]

  return (
           ((PreemptPriority & (uint32_t)((1UL << (PreemptPriorityBits)) - 1UL)) << SubPriorityBits) |
 8000760:	f04f 32ff 	mov.w	r2, #4294967295
 8000764:	69bb      	ldr	r3, [r7, #24]
 8000766:	fa02 f303 	lsl.w	r3, r2, r3
 800076a:	43da      	mvns	r2, r3
 800076c:	68bb      	ldr	r3, [r7, #8]
 800076e:	401a      	ands	r2, r3
 8000770:	697b      	ldr	r3, [r7, #20]
 8000772:	409a      	lsls	r2, r3
           ((SubPriority     & (uint32_t)((1UL << (SubPriorityBits    )) - 1UL)))
 8000774:	f04f 31ff 	mov.w	r1, #4294967295
 8000778:	697b      	ldr	r3, [r7, #20]
 800077a:	fa01 f303 	lsl.w	r3, r1, r3
 800077e:	43d9      	mvns	r1, r3
 8000780:	687b      	ldr	r3, [r7, #4]
 8000782:	400b      	ands	r3, r1
           ((PreemptPriority & (uint32_t)((1UL << (PreemptPriorityBits)) - 1UL)) << SubPriorityBits) |
 8000784:	4313      	orrs	r3, r2
         );
}
 8000786:	4618      	mov	r0, r3
 8000788:	3724      	adds	r7, #36	; 0x24
 800078a:	46bd      	mov	sp, r7
 800078c:	bc80      	pop	{r7}
 800078e:	4770      	bx	lr

08000790 <SysTick_Config>:
  \note    When the variable <b>__Vendor_SysTickConfig</b> is set to 1, then the
           function <b>SysTick_Config</b> is not included. In this case, the file <b><i>device</i>.h</b>
           must contain a vendor-specific implementation of this function.
 */
__STATIC_INLINE uint32_t SysTick_Config(uint32_t ticks)
{
 8000790:	b580      	push	{r7, lr}
 8000792:	b082      	sub	sp, #8
 8000794:	af00      	add	r7, sp, #0
 8000796:	6078      	str	r0, [r7, #4]
  if ((ticks - 1UL) > SysTick_LOAD_RELOAD_Msk)
 8000798:	687b      	ldr	r3, [r7, #4]
 800079a:	3b01      	subs	r3, #1
 800079c:	f1b3 7f80 	cmp.w	r3, #16777216	; 0x1000000
 80007a0:	d301      	bcc.n	80007a6 <SysTick_Config+0x16>
  {
    return (1UL);                                                   /* Reload value impossible */
 80007a2:	2301      	movs	r3, #1
 80007a4:	e00f      	b.n	80007c6 <SysTick_Config+0x36>
  }

  SysTick->LOAD  = (uint32_t)(ticks - 1UL);                         /* set reload register */
 80007a6:	4a0a      	ldr	r2, [pc, #40]	; (80007d0 <SysTick_Config+0x40>)
 80007a8:	687b      	ldr	r3, [r7, #4]
 80007aa:	3b01      	subs	r3, #1
 80007ac:	6053      	str	r3, [r2, #4]
  NVIC_SetPriority (SysTick_IRQn, (1UL << __NVIC_PRIO_BITS) - 1UL); /* set Priority for Systick Interrupt */
 80007ae:	210f      	movs	r1, #15
 80007b0:	f04f 30ff 	mov.w	r0, #4294967295
 80007b4:	f7ff ff90 	bl	80006d8 <__NVIC_SetPriority>
  SysTick->VAL   = 0UL;                                             /* Load the SysTick Counter Value */
 80007b8:	4b05      	ldr	r3, [pc, #20]	; (80007d0 <SysTick_Config+0x40>)
 80007ba:	2200      	movs	r2, #0
 80007bc:	609a      	str	r2, [r3, #8]
  SysTick->CTRL  = SysTick_CTRL_CLKSOURCE_Msk |
 80007be:	4b04      	ldr	r3, [pc, #16]	; (80007d0 <SysTick_Config+0x40>)
 80007c0:	2207      	movs	r2, #7
 80007c2:	601a      	str	r2, [r3, #0]
                   SysTick_CTRL_TICKINT_Msk   |
                   SysTick_CTRL_ENABLE_Msk;                         /* Enable SysTick IRQ and SysTick Timer */
  return (0UL);                                                     /* Function successful */
 80007c4:	2300      	movs	r3, #0
}
 80007c6:	4618      	mov	r0, r3
 80007c8:	3708      	adds	r7, #8
 80007ca:	46bd      	mov	sp, r7
 80007cc:	bd80      	pop	{r7, pc}
 80007ce:	bf00      	nop
 80007d0:	e000e010 	.word	0xe000e010

080007d4 <HAL_NVIC_SetPriorityGrouping>:
  * @note   When the NVIC_PriorityGroup_0 is selected, IRQ preemption is no more possible. 
  *         The pending IRQ priority will be managed only by the subpriority. 
  * @retval None
  */
void HAL_NVIC_SetPriorityGrouping(uint32_t PriorityGroup)
{
 80007d4:	b580      	push	{r7, lr}
 80007d6:	b082      	sub	sp, #8
 80007d8:	af00      	add	r7, sp, #0
 80007da:	6078      	str	r0, [r7, #4]
  /* Check the parameters */
  assert_param(IS_NVIC_PRIORITY_GROUP(PriorityGroup));
  
  /* Set the PRIGROUP[10:8] bits according to the PriorityGroup parameter value */
  NVIC_SetPriorityGrouping(PriorityGroup);
 80007dc:	6878      	ldr	r0, [r7, #4]
 80007de:	f7ff ff49 	bl	8000674 <__NVIC_SetPriorityGrouping>
}
 80007e2:	bf00      	nop
 80007e4:	3708      	adds	r7, #8
 80007e6:	46bd      	mov	sp, r7
 80007e8:	bd80      	pop	{r7, pc}

080007ea <HAL_NVIC_SetPriority>:
  *         This parameter can be a value between 0 and 15
  *         A lower priority value indicates a higher priority.          
  * @retval None
  */
void HAL_NVIC_SetPriority(IRQn_Type IRQn, uint32_t PreemptPriority, uint32_t SubPriority)
{ 
 80007ea:	b580      	push	{r7, lr}
 80007ec:	b086      	sub	sp, #24
 80007ee:	af00      	add	r7, sp, #0
 80007f0:	4603      	mov	r3, r0
 80007f2:	60b9      	str	r1, [r7, #8]
 80007f4:	607a      	str	r2, [r7, #4]
 80007f6:	73fb      	strb	r3, [r7, #15]
  uint32_t prioritygroup = 0x00U;
 80007f8:	2300      	movs	r3, #0
 80007fa:	617b      	str	r3, [r7, #20]
  
  /* Check the parameters */
  assert_param(IS_NVIC_SUB_PRIORITY(SubPriority));
  assert_param(IS_NVIC_PREEMPTION_PRIORITY(PreemptPriority));
  
  prioritygroup = NVIC_GetPriorityGrouping();
 80007fc:	f7ff ff5e 	bl	80006bc <__NVIC_GetPriorityGrouping>
 8000800:	6178      	str	r0, [r7, #20]
  
  NVIC_SetPriority(IRQn, NVIC_EncodePriority(prioritygroup, PreemptPriority, SubPriority));
 8000802:	687a      	ldr	r2, [r7, #4]
 8000804:	68b9      	ldr	r1, [r7, #8]
 8000806:	6978      	ldr	r0, [r7, #20]
 8000808:	f7ff ff90 	bl	800072c <NVIC_EncodePriority>
 800080c:	4602      	mov	r2, r0
 800080e:	f997 300f 	ldrsb.w	r3, [r7, #15]
 8000812:	4611      	mov	r1, r2
 8000814:	4618      	mov	r0, r3
 8000816:	f7ff ff5f 	bl	80006d8 <__NVIC_SetPriority>
}
 800081a:	bf00      	nop
 800081c:	3718      	adds	r7, #24
 800081e:	46bd      	mov	sp, r7
 8000820:	bd80      	pop	{r7, pc}

08000822 <HAL_SYSTICK_Config>:
  * @param  TicksNumb: Specifies the ticks Number of ticks between two interrupts.
  * @retval status:  - 0  Function succeeded.
  *                  - 1  Function failed.
  */
uint32_t HAL_SYSTICK_Config(uint32_t TicksNumb)
{
 8000822:	b580      	push	{r7, lr}
 8000824:	b082      	sub	sp, #8
 8000826:	af00      	add	r7, sp, #0
 8000828:	6078      	str	r0, [r7, #4]
   return SysTick_Config(TicksNumb);
 800082a:	6878      	ldr	r0, [r7, #4]
 800082c:	f7ff ffb0 	bl	8000790 <SysTick_Config>
 8000830:	4603      	mov	r3, r0
}
 8000832:	4618      	mov	r0, r3
 8000834:	3708      	adds	r7, #8
 8000836:	46bd      	mov	sp, r7
 8000838:	bd80      	pop	{r7, pc}
	...

0800083c <HAL_GPIO_Init>:
  * @param  GPIO_Init: pointer to a GPIO_InitTypeDef structure that contains
  *         the configuration information for the specified GPIO peripheral.
  * @retval None
  */
void HAL_GPIO_Init(GPIO_TypeDef  *GPIOx, GPIO_InitTypeDef *GPIO_Init)
{
 800083c:	b480      	push	{r7}
 800083e:	b08b      	sub	sp, #44	; 0x2c
 8000840:	af00      	add	r7, sp, #0
 8000842:	6078      	str	r0, [r7, #4]
 8000844:	6039      	str	r1, [r7, #0]
  uint32_t position = 0x00u;
 8000846:	2300      	movs	r3, #0
 8000848:	627b      	str	r3, [r7, #36]	; 0x24
  uint32_t ioposition;
  uint32_t iocurrent;
  uint32_t temp;
  uint32_t config = 0x00u;
 800084a:	2300      	movs	r3, #0
 800084c:	623b      	str	r3, [r7, #32]
  assert_param(IS_GPIO_ALL_INSTANCE(GPIOx));
  assert_param(IS_GPIO_PIN(GPIO_Init->Pin));
  assert_param(IS_GPIO_MODE(GPIO_Init->Mode));

  /* Configure the port pins */
  while (((GPIO_Init->Pin) >> position) != 0x00u)
 800084e:	e169      	b.n	8000b24 <HAL_GPIO_Init+0x2e8>
  {
    /* Get the IO position */
    ioposition = (0x01uL << position);
 8000850:	2201      	movs	r2, #1
 8000852:	6a7b      	ldr	r3, [r7, #36]	; 0x24
 8000854:	fa02 f303 	lsl.w	r3, r2, r3
 8000858:	61fb      	str	r3, [r7, #28]

    /* Get the current IO position */
    iocurrent = (uint32_t)(GPIO_Init->Pin) & ioposition;
 800085a:	683b      	ldr	r3, [r7, #0]
 800085c:	681b      	ldr	r3, [r3, #0]
 800085e:	69fa      	ldr	r2, [r7, #28]
 8000860:	4013      	ands	r3, r2
 8000862:	61bb      	str	r3, [r7, #24]

    if (iocurrent == ioposition)
 8000864:	69ba      	ldr	r2, [r7, #24]
 8000866:	69fb      	ldr	r3, [r7, #28]
 8000868:	429a      	cmp	r2, r3
 800086a:	f040 8158 	bne.w	8000b1e <HAL_GPIO_Init+0x2e2>
    {
      /* Check the Alternate function parameters */
      assert_param(IS_GPIO_AF_INSTANCE(GPIOx));

      /* Based on the required mode, filling config variable with MODEy[1:0] and CNFy[3:2] corresponding bits */
      switch (GPIO_Init->Mode)
 800086e:	683b      	ldr	r3, [r7, #0]
 8000870:	685b      	ldr	r3, [r3, #4]
 8000872:	4a9a      	ldr	r2, [pc, #616]	; (8000adc <HAL_GPIO_Init+0x2a0>)
 8000874:	4293      	cmp	r3, r2
 8000876:	d05e      	beq.n	8000936 <HAL_GPIO_Init+0xfa>
 8000878:	4a98      	ldr	r2, [pc, #608]	; (8000adc <HAL_GPIO_Init+0x2a0>)
 800087a:	4293      	cmp	r3, r2
 800087c:	d875      	bhi.n	800096a <HAL_GPIO_Init+0x12e>
 800087e:	4a98      	ldr	r2, [pc, #608]	; (8000ae0 <HAL_GPIO_Init+0x2a4>)
 8000880:	4293      	cmp	r3, r2
 8000882:	d058      	beq.n	8000936 <HAL_GPIO_Init+0xfa>
 8000884:	4a96      	ldr	r2, [pc, #600]	; (8000ae0 <HAL_GPIO_Init+0x2a4>)
 8000886:	4293      	cmp	r3, r2
 8000888:	d86f      	bhi.n	800096a <HAL_GPIO_Init+0x12e>
 800088a:	4a96      	ldr	r2, [pc, #600]	; (8000ae4 <HAL_GPIO_Init+0x2a8>)
 800088c:	4293      	cmp	r3, r2
 800088e:	d052      	beq.n	8000936 <HAL_GPIO_Init+0xfa>
 8000890:	4a94      	ldr	r2, [pc, #592]	; (8000ae4 <HAL_GPIO_Init+0x2a8>)
 8000892:	4293      	cmp	r3, r2
 8000894:	d869      	bhi.n	800096a <HAL_GPIO_Init+0x12e>
 8000896:	4a94      	ldr	r2, [pc, #592]	; (8000ae8 <HAL_GPIO_Init+0x2ac>)
 8000898:	4293      	cmp	r3, r2
 800089a:	d04c      	beq.n	8000936 <HAL_GPIO_Init+0xfa>
 800089c:	4a92      	ldr	r2, [pc, #584]	; (8000ae8 <HAL_GPIO_Init+0x2ac>)
 800089e:	4293      	cmp	r3, r2
 80008a0:	d863      	bhi.n	800096a <HAL_GPIO_Init+0x12e>
 80008a2:	4a92      	ldr	r2, [pc, #584]	; (8000aec <HAL_GPIO_Init+0x2b0>)
 80008a4:	4293      	cmp	r3, r2
 80008a6:	d046      	beq.n	8000936 <HAL_GPIO_Init+0xfa>
 80008a8:	4a90      	ldr	r2, [pc, #576]	; (8000aec <HAL_GPIO_Init+0x2b0>)
 80008aa:	4293      	cmp	r3, r2
 80008ac:	d85d      	bhi.n	800096a <HAL_GPIO_Init+0x12e>
 80008ae:	2b12      	cmp	r3, #18
 80008b0:	d82a      	bhi.n	8000908 <HAL_GPIO_Init+0xcc>
 80008b2:	2b12      	cmp	r3, #18
 80008b4:	d859      	bhi.n	800096a <HAL_GPIO_Init+0x12e>
 80008b6:	a201      	add	r2, pc, #4	; (adr r2, 80008bc <HAL_GPIO_Init+0x80>)
 80008b8:	f852 f023 	ldr.w	pc, [r2, r3, lsl #2]
 80008bc:	08000937 	.word	0x08000937
 80008c0:	08000911 	.word	0x08000911
 80008c4:	08000923 	.word	0x08000923
 80008c8:	08000965 	.word	0x08000965
 80008cc:	0800096b 	.word	0x0800096b
 80008d0:	0800096b 	.word	0x0800096b
 80008d4:	0800096b 	.word	0x0800096b
 80008d8:	0800096b 	.word	0x0800096b
 80008dc:	0800096b 	.word	0x0800096b
 80008e0:	0800096b 	.word	0x0800096b
 80008e4:	0800096b 	.word	0x0800096b
 80008e8:	0800096b 	.word	0x0800096b
 80008ec:	0800096b 	.word	0x0800096b
 80008f0:	0800096b 	.word	0x0800096b
 80008f4:	0800096b 	.word	0x0800096b
 80008f8:	0800096b 	.word	0x0800096b
 80008fc:	0800096b 	.word	0x0800096b
 8000900:	08000919 	.word	0x08000919
 8000904:	0800092d 	.word	0x0800092d
 8000908:	4a79      	ldr	r2, [pc, #484]	; (8000af0 <HAL_GPIO_Init+0x2b4>)
 800090a:	4293      	cmp	r3, r2
 800090c:	d013      	beq.n	8000936 <HAL_GPIO_Init+0xfa>
          config = GPIO_CR_MODE_INPUT + GPIO_CR_CNF_ANALOG;
          break;

        /* Parameters are checked with assert_param */
        default:
          break;
 800090e:	e02c      	b.n	800096a <HAL_GPIO_Init+0x12e>
          config = GPIO_Init->Speed + GPIO_CR_CNF_GP_OUTPUT_PP;
 8000910:	683b      	ldr	r3, [r7, #0]
 8000912:	68db      	ldr	r3, [r3, #12]
 8000914:	623b      	str	r3, [r7, #32]
          break;
 8000916:	e029      	b.n	800096c <HAL_GPIO_Init+0x130>
          config = GPIO_Init->Speed + GPIO_CR_CNF_GP_OUTPUT_OD;
 8000918:	683b      	ldr	r3, [r7, #0]
 800091a:	68db      	ldr	r3, [r3, #12]
 800091c:	3304      	adds	r3, #4
 800091e:	623b      	str	r3, [r7, #32]
          break;
 8000920:	e024      	b.n	800096c <HAL_GPIO_Init+0x130>
          config = GPIO_Init->Speed + GPIO_CR_CNF_AF_OUTPUT_PP;
 8000922:	683b      	ldr	r3, [r7, #0]
 8000924:	68db      	ldr	r3, [r3, #12]
 8000926:	3308      	adds	r3, #8
 8000928:	623b      	str	r3, [r7, #32]
          break;
 800092a:	e01f      	b.n	800096c <HAL_GPIO_Init+0x130>
          config = GPIO_Init->Speed + GPIO_CR_CNF_AF_OUTPUT_OD;
 800092c:	683b      	ldr	r3, [r7, #0]
 800092e:	68db      	ldr	r3, [r3, #12]
 8000930:	330c      	adds	r3, #12
 8000932:	623b      	str	r3, [r7, #32]
          break;
 8000934:	e01a      	b.n	800096c <HAL_GPIO_Init+0x130>
          if (GPIO_Init->Pull == GPIO_NOPULL)
 8000936:	683b      	ldr	r3, [r7, #0]
 8000938:	689b      	ldr	r3, [r3, #8]
 800093a:	2b00      	cmp	r3, #0
 800093c:	d102      	bne.n	8000944 <HAL_GPIO_Init+0x108>
            config = GPIO_CR_MODE_INPUT + GPIO_CR_CNF_INPUT_FLOATING;
 800093e:	2304      	movs	r3, #4
 8000940:	623b      	str	r3, [r7, #32]
          break;
 8000942:	e013      	b.n	800096c <HAL_GPIO_Init+0x130>
          else if (GPIO_Init->Pull == GPIO_PULLUP)
 8000944:	683b      	ldr	r3, [r7, #0]
 8000946:	689b      	ldr	r3, [r3, #8]
 8000948:	2b01      	cmp	r3, #1
 800094a:	d105      	bne.n	8000958 <HAL_GPIO_Init+0x11c>
            config = GPIO_CR_MODE_INPUT + GPIO_CR_CNF_INPUT_PU_PD;
 800094c:	2308      	movs	r3, #8
 800094e:	623b      	str	r3, [r7, #32]
            GPIOx->BSRR = ioposition;
 8000950:	687b      	ldr	r3, [r7, #4]
 8000952:	69fa      	ldr	r2, [r7, #28]
 8000954:	611a      	str	r2, [r3, #16]
          break;
 8000956:	e009      	b.n	800096c <HAL_GPIO_Init+0x130>
            config = GPIO_CR_MODE_INPUT + GPIO_CR_CNF_INPUT_PU_PD;
 8000958:	2308      	movs	r3, #8
 800095a:	623b      	str	r3, [r7, #32]
            GPIOx->BRR = ioposition;
 800095c:	687b      	ldr	r3, [r7, #4]
 800095e:	69fa      	ldr	r2, [r7, #28]
 8000960:	615a      	str	r2, [r3, #20]
          break;
 8000962:	e003      	b.n	800096c <HAL_GPIO_Init+0x130>
          config = GPIO_CR_MODE_INPUT + GPIO_CR_CNF_ANALOG;
 8000964:	2300      	movs	r3, #0
 8000966:	623b      	str	r3, [r7, #32]
          break;
 8000968:	e000      	b.n	800096c <HAL_GPIO_Init+0x130>
          break;
 800096a:	bf00      	nop
      }

      /* Check if the current bit belongs to first half or last half of the pin count number
       in order to address CRH or CRL register*/
      configregister = (iocurrent < GPIO_PIN_8) ? &GPIOx->CRL     : &GPIOx->CRH;
 800096c:	69bb      	ldr	r3, [r7, #24]
 800096e:	2bff      	cmp	r3, #255	; 0xff
 8000970:	d801      	bhi.n	8000976 <HAL_GPIO_Init+0x13a>
 8000972:	687b      	ldr	r3, [r7, #4]
 8000974:	e001      	b.n	800097a <HAL_GPIO_Init+0x13e>
 8000976:	687b      	ldr	r3, [r7, #4]
 8000978:	3304      	adds	r3, #4
 800097a:	617b      	str	r3, [r7, #20]
      registeroffset = (iocurrent < GPIO_PIN_8) ? (position << 2u) : ((position - 8u) << 2u);
 800097c:	69bb      	ldr	r3, [r7, #24]
 800097e:	2bff      	cmp	r3, #255	; 0xff
 8000980:	d802      	bhi.n	8000988 <HAL_GPIO_Init+0x14c>
 8000982:	6a7b      	ldr	r3, [r7, #36]	; 0x24
 8000984:	009b      	lsls	r3, r3, #2
 8000986:	e002      	b.n	800098e <HAL_GPIO_Init+0x152>
 8000988:	6a7b      	ldr	r3, [r7, #36]	; 0x24
 800098a:	3b08      	subs	r3, #8
 800098c:	009b      	lsls	r3, r3, #2
 800098e:	613b      	str	r3, [r7, #16]

      /* Apply the new configuration of the pin to the register */
      MODIFY_REG((*configregister), ((GPIO_CRL_MODE0 | GPIO_CRL_CNF0) << registeroffset), (config << registeroffset));
 8000990:	697b      	ldr	r3, [r7, #20]
 8000992:	681a      	ldr	r2, [r3, #0]
 8000994:	210f      	movs	r1, #15
 8000996:	693b      	ldr	r3, [r7, #16]
 8000998:	fa01 f303 	lsl.w	r3, r1, r3
 800099c:	43db      	mvns	r3, r3
 800099e:	401a      	ands	r2, r3
 80009a0:	6a39      	ldr	r1, [r7, #32]
 80009a2:	693b      	ldr	r3, [r7, #16]
 80009a4:	fa01 f303 	lsl.w	r3, r1, r3
 80009a8:	431a      	orrs	r2, r3
 80009aa:	697b      	ldr	r3, [r7, #20]
 80009ac:	601a      	str	r2, [r3, #0]

      /*--------------------- EXTI Mode Configuration ------------------------*/
      /* Configure the External Interrupt or event for the current IO */
      if ((GPIO_Init->Mode & EXTI_MODE) == EXTI_MODE)
 80009ae:	683b      	ldr	r3, [r7, #0]
 80009b0:	685b      	ldr	r3, [r3, #4]
 80009b2:	f003 5380 	and.w	r3, r3, #268435456	; 0x10000000
 80009b6:	2b00      	cmp	r3, #0
 80009b8:	f000 80b1 	beq.w	8000b1e <HAL_GPIO_Init+0x2e2>
      {
        /* Enable AFIO Clock */
        __HAL_RCC_AFIO_CLK_ENABLE();
 80009bc:	4b4d      	ldr	r3, [pc, #308]	; (8000af4 <HAL_GPIO_Init+0x2b8>)
 80009be:	699b      	ldr	r3, [r3, #24]
 80009c0:	4a4c      	ldr	r2, [pc, #304]	; (8000af4 <HAL_GPIO_Init+0x2b8>)
 80009c2:	f043 0301 	orr.w	r3, r3, #1
 80009c6:	6193      	str	r3, [r2, #24]
 80009c8:	4b4a      	ldr	r3, [pc, #296]	; (8000af4 <HAL_GPIO_Init+0x2b8>)
 80009ca:	699b      	ldr	r3, [r3, #24]
 80009cc:	f003 0301 	and.w	r3, r3, #1
 80009d0:	60bb      	str	r3, [r7, #8]
 80009d2:	68bb      	ldr	r3, [r7, #8]
        temp = AFIO->EXTICR[position >> 2u];
 80009d4:	4a48      	ldr	r2, [pc, #288]	; (8000af8 <HAL_GPIO_Init+0x2bc>)
 80009d6:	6a7b      	ldr	r3, [r7, #36]	; 0x24
 80009d8:	089b      	lsrs	r3, r3, #2
 80009da:	3302      	adds	r3, #2
 80009dc:	f852 3023 	ldr.w	r3, [r2, r3, lsl #2]
 80009e0:	60fb      	str	r3, [r7, #12]
        CLEAR_BIT(temp, (0x0Fu) << (4u * (position & 0x03u)));
 80009e2:	6a7b      	ldr	r3, [r7, #36]	; 0x24
 80009e4:	f003 0303 	and.w	r3, r3, #3
 80009e8:	009b      	lsls	r3, r3, #2
 80009ea:	220f      	movs	r2, #15
 80009ec:	fa02 f303 	lsl.w	r3, r2, r3
 80009f0:	43db      	mvns	r3, r3
 80009f2:	68fa      	ldr	r2, [r7, #12]
 80009f4:	4013      	ands	r3, r2
 80009f6:	60fb      	str	r3, [r7, #12]
        SET_BIT(temp, (GPIO_GET_INDEX(GPIOx)) << (4u * (position & 0x03u)));
 80009f8:	687b      	ldr	r3, [r7, #4]
 80009fa:	4a40      	ldr	r2, [pc, #256]	; (8000afc <HAL_GPIO_Init+0x2c0>)
 80009fc:	4293      	cmp	r3, r2
 80009fe:	d013      	beq.n	8000a28 <HAL_GPIO_Init+0x1ec>
 8000a00:	687b      	ldr	r3, [r7, #4]
 8000a02:	4a3f      	ldr	r2, [pc, #252]	; (8000b00 <HAL_GPIO_Init+0x2c4>)
 8000a04:	4293      	cmp	r3, r2
 8000a06:	d00d      	beq.n	8000a24 <HAL_GPIO_Init+0x1e8>
 8000a08:	687b      	ldr	r3, [r7, #4]
 8000a0a:	4a3e      	ldr	r2, [pc, #248]	; (8000b04 <HAL_GPIO_Init+0x2c8>)
 8000a0c:	4293      	cmp	r3, r2
 8000a0e:	d007      	beq.n	8000a20 <HAL_GPIO_Init+0x1e4>
 8000a10:	687b      	ldr	r3, [r7, #4]
 8000a12:	4a3d      	ldr	r2, [pc, #244]	; (8000b08 <HAL_GPIO_Init+0x2cc>)
 8000a14:	4293      	cmp	r3, r2
 8000a16:	d101      	bne.n	8000a1c <HAL_GPIO_Init+0x1e0>
 8000a18:	2303      	movs	r3, #3
 8000a1a:	e006      	b.n	8000a2a <HAL_GPIO_Init+0x1ee>
 8000a1c:	2304      	movs	r3, #4
 8000a1e:	e004      	b.n	8000a2a <HAL_GPIO_Init+0x1ee>
 8000a20:	2302      	movs	r3, #2
 8000a22:	e002      	b.n	8000a2a <HAL_GPIO_Init+0x1ee>
 8000a24:	2301      	movs	r3, #1
 8000a26:	e000      	b.n	8000a2a <HAL_GPIO_Init+0x1ee>
 8000a28:	2300      	movs	r3, #0
 8000a2a:	6a7a      	ldr	r2, [r7, #36]	; 0x24
 8000a2c:	f002 0203 	and.w	r2, r2, #3
 8000a30:	0092      	lsls	r2, r2, #2
 8000a32:	4093      	lsls	r3, r2
 8000a34:	68fa      	ldr	r2, [r7, #12]
 8000a36:	4313      	orrs	r3, r2
 8000a38:	60fb      	str	r3, [r7, #12]
        AFIO->EXTICR[position >> 2u] = temp;
 8000a3a:	492f      	ldr	r1, [pc, #188]	; (8000af8 <HAL_GPIO_Init+0x2bc>)
 8000a3c:	6a7b      	ldr	r3, [r7, #36]	; 0x24
 8000a3e:	089b      	lsrs	r3, r3, #2
 8000a40:	3302      	adds	r3, #2
 8000a42:	68fa      	ldr	r2, [r7, #12]
 8000a44:	f841 2023 	str.w	r2, [r1, r3, lsl #2]


        /* Enable or disable the rising trigger */
        if ((GPIO_Init->Mode & RISING_EDGE) == RISING_EDGE)
 8000a48:	683b      	ldr	r3, [r7, #0]
 8000a4a:	685b      	ldr	r3, [r3, #4]
 8000a4c:	f403 1380 	and.w	r3, r3, #1048576	; 0x100000
 8000a50:	2b00      	cmp	r3, #0
 8000a52:	d006      	beq.n	8000a62 <HAL_GPIO_Init+0x226>
        {
          SET_BIT(EXTI->RTSR, iocurrent);
 8000a54:	4b2d      	ldr	r3, [pc, #180]	; (8000b0c <HAL_GPIO_Init+0x2d0>)
 8000a56:	689a      	ldr	r2, [r3, #8]
 8000a58:	492c      	ldr	r1, [pc, #176]	; (8000b0c <HAL_GPIO_Init+0x2d0>)
 8000a5a:	69bb      	ldr	r3, [r7, #24]
 8000a5c:	4313      	orrs	r3, r2
 8000a5e:	608b      	str	r3, [r1, #8]
 8000a60:	e006      	b.n	8000a70 <HAL_GPIO_Init+0x234>
        }
        else
        {
          CLEAR_BIT(EXTI->RTSR, iocurrent);
 8000a62:	4b2a      	ldr	r3, [pc, #168]	; (8000b0c <HAL_GPIO_Init+0x2d0>)
 8000a64:	689a      	ldr	r2, [r3, #8]
 8000a66:	69bb      	ldr	r3, [r7, #24]
 8000a68:	43db      	mvns	r3, r3
 8000a6a:	4928      	ldr	r1, [pc, #160]	; (8000b0c <HAL_GPIO_Init+0x2d0>)
 8000a6c:	4013      	ands	r3, r2
 8000a6e:	608b      	str	r3, [r1, #8]
        }

        /* Enable or disable the falling trigger */
        if ((GPIO_Init->Mode & FALLING_EDGE) == FALLING_EDGE)
 8000a70:	683b      	ldr	r3, [r7, #0]
 8000a72:	685b      	ldr	r3, [r3, #4]
 8000a74:	f403 1300 	and.w	r3, r3, #2097152	; 0x200000
 8000a78:	2b00      	cmp	r3, #0
 8000a7a:	d006      	beq.n	8000a8a <HAL_GPIO_Init+0x24e>
        {
          SET_BIT(EXTI->FTSR, iocurrent);
 8000a7c:	4b23      	ldr	r3, [pc, #140]	; (8000b0c <HAL_GPIO_Init+0x2d0>)
 8000a7e:	68da      	ldr	r2, [r3, #12]
 8000a80:	4922      	ldr	r1, [pc, #136]	; (8000b0c <HAL_GPIO_Init+0x2d0>)
 8000a82:	69bb      	ldr	r3, [r7, #24]
 8000a84:	4313      	orrs	r3, r2
 8000a86:	60cb      	str	r3, [r1, #12]
 8000a88:	e006      	b.n	8000a98 <HAL_GPIO_Init+0x25c>
        }
        else
        {
          CLEAR_BIT(EXTI->FTSR, iocurrent);
 8000a8a:	4b20      	ldr	r3, [pc, #128]	; (8000b0c <HAL_GPIO_Init+0x2d0>)
 8000a8c:	68da      	ldr	r2, [r3, #12]
 8000a8e:	69bb      	ldr	r3, [r7, #24]
 8000a90:	43db      	mvns	r3, r3
 8000a92:	491e      	ldr	r1, [pc, #120]	; (8000b0c <HAL_GPIO_Init+0x2d0>)
 8000a94:	4013      	ands	r3, r2
 8000a96:	60cb      	str	r3, [r1, #12]
        }

        /* Configure the event mask */
        if ((GPIO_Init->Mode & GPIO_MODE_EVT) == GPIO_MODE_EVT)
 8000a98:	683b      	ldr	r3, [r7, #0]
 8000a9a:	685b      	ldr	r3, [r3, #4]
 8000a9c:	f403 3300 	and.w	r3, r3, #131072	; 0x20000
 8000aa0:	2b00      	cmp	r3, #0
 8000aa2:	d006      	beq.n	8000ab2 <HAL_GPIO_Init+0x276>
        {
          SET_BIT(EXTI->EMR, iocurrent);
 8000aa4:	4b19      	ldr	r3, [pc, #100]	; (8000b0c <HAL_GPIO_Init+0x2d0>)
 8000aa6:	685a      	ldr	r2, [r3, #4]
 8000aa8:	4918      	ldr	r1, [pc, #96]	; (8000b0c <HAL_GPIO_Init+0x2d0>)
 8000aaa:	69bb      	ldr	r3, [r7, #24]
 8000aac:	4313      	orrs	r3, r2
 8000aae:	604b      	str	r3, [r1, #4]
 8000ab0:	e006      	b.n	8000ac0 <HAL_GPIO_Init+0x284>
        }
        else
        {
          CLEAR_BIT(EXTI->EMR, iocurrent);
 8000ab2:	4b16      	ldr	r3, [pc, #88]	; (8000b0c <HAL_GPIO_Init+0x2d0>)
 8000ab4:	685a      	ldr	r2, [r3, #4]
 8000ab6:	69bb      	ldr	r3, [r7, #24]
 8000ab8:	43db      	mvns	r3, r3
 8000aba:	4914      	ldr	r1, [pc, #80]	; (8000b0c <HAL_GPIO_Init+0x2d0>)
 8000abc:	4013      	ands	r3, r2
 8000abe:	604b      	str	r3, [r1, #4]
        }

        /* Configure the interrupt mask */
        if ((GPIO_Init->Mode & GPIO_MODE_IT) == GPIO_MODE_IT)
 8000ac0:	683b      	ldr	r3, [r7, #0]
 8000ac2:	685b      	ldr	r3, [r3, #4]
 8000ac4:	f403 3380 	and.w	r3, r3, #65536	; 0x10000
 8000ac8:	2b00      	cmp	r3, #0
 8000aca:	d021      	beq.n	8000b10 <HAL_GPIO_Init+0x2d4>
        {
          SET_BIT(EXTI->IMR, iocurrent);
 8000acc:	4b0f      	ldr	r3, [pc, #60]	; (8000b0c <HAL_GPIO_Init+0x2d0>)
 8000ace:	681a      	ldr	r2, [r3, #0]
 8000ad0:	490e      	ldr	r1, [pc, #56]	; (8000b0c <HAL_GPIO_Init+0x2d0>)
 8000ad2:	69bb      	ldr	r3, [r7, #24]
 8000ad4:	4313      	orrs	r3, r2
 8000ad6:	600b      	str	r3, [r1, #0]
 8000ad8:	e021      	b.n	8000b1e <HAL_GPIO_Init+0x2e2>
 8000ada:	bf00      	nop
 8000adc:	10320000 	.word	0x10320000
 8000ae0:	10310000 	.word	0x10310000
 8000ae4:	10220000 	.word	0x10220000
 8000ae8:	10210000 	.word	0x10210000
 8000aec:	10120000 	.word	0x10120000
 8000af0:	10110000 	.word	0x10110000
 8000af4:	40021000 	.word	0x40021000
 8000af8:	40010000 	.word	0x40010000
 8000afc:	40010800 	.word	0x40010800
 8000b00:	40010c00 	.word	0x40010c00
 8000b04:	40011000 	.word	0x40011000
 8000b08:	40011400 	.word	0x40011400
 8000b0c:	40010400 	.word	0x40010400
        }
        else
        {
          CLEAR_BIT(EXTI->IMR, iocurrent);
 8000b10:	4b0b      	ldr	r3, [pc, #44]	; (8000b40 <HAL_GPIO_Init+0x304>)
 8000b12:	681a      	ldr	r2, [r3, #0]
 8000b14:	69bb      	ldr	r3, [r7, #24]
 8000b16:	43db      	mvns	r3, r3
 8000b18:	4909      	ldr	r1, [pc, #36]	; (8000b40 <HAL_GPIO_Init+0x304>)
 8000b1a:	4013      	ands	r3, r2
 8000b1c:	600b      	str	r3, [r1, #0]
        }
      }
    }

	position++;
 8000b1e:	6a7b      	ldr	r3, [r7, #36]	; 0x24
 8000b20:	3301      	adds	r3, #1
 8000b22:	627b      	str	r3, [r7, #36]	; 0x24
  while (((GPIO_Init->Pin) >> position) != 0x00u)
 8000b24:	683b      	ldr	r3, [r7, #0]
 8000b26:	681a      	ldr	r2, [r3, #0]
 8000b28:	6a7b      	ldr	r3, [r7, #36]	; 0x24
 8000b2a:	fa22 f303 	lsr.w	r3, r2, r3
 8000b2e:	2b00      	cmp	r3, #0
 8000b30:	f47f ae8e 	bne.w	8000850 <HAL_GPIO_Init+0x14>
  }
}
 8000b34:	bf00      	nop
 8000b36:	bf00      	nop
 8000b38:	372c      	adds	r7, #44	; 0x2c
 8000b3a:	46bd      	mov	sp, r7
 8000b3c:	bc80      	pop	{r7}
 8000b3e:	4770      	bx	lr
 8000b40:	40010400 	.word	0x40010400

08000b44 <HAL_GPIO_WritePin>:
  *            @arg GPIO_PIN_RESET: to clear the port pin
  *            @arg GPIO_PIN_SET: to set the port pin
  * @retval None
  */
void HAL_GPIO_WritePin(GPIO_TypeDef *GPIOx, uint16_t GPIO_Pin, GPIO_PinState PinState)
{
 8000b44:	b480      	push	{r7}
 8000b46:	b083      	sub	sp, #12
 8000b48:	af00      	add	r7, sp, #0
 8000b4a:	6078      	str	r0, [r7, #4]
 8000b4c:	460b      	mov	r3, r1
 8000b4e:	807b      	strh	r3, [r7, #2]
 8000b50:	4613      	mov	r3, r2
 8000b52:	707b      	strb	r3, [r7, #1]
  /* Check the parameters */
  assert_param(IS_GPIO_PIN(GPIO_Pin));
  assert_param(IS_GPIO_PIN_ACTION(PinState));

  if (PinState != GPIO_PIN_RESET)
 8000b54:	787b      	ldrb	r3, [r7, #1]
 8000b56:	2b00      	cmp	r3, #0
 8000b58:	d003      	beq.n	8000b62 <HAL_GPIO_WritePin+0x1e>
  {
    GPIOx->BSRR = GPIO_Pin;
 8000b5a:	887a      	ldrh	r2, [r7, #2]
 8000b5c:	687b      	ldr	r3, [r7, #4]
 8000b5e:	611a      	str	r2, [r3, #16]
  }
  else
  {
    GPIOx->BSRR = (uint32_t)GPIO_Pin << 16u;
  }
}
 8000b60:	e003      	b.n	8000b6a <HAL_GPIO_WritePin+0x26>
    GPIOx->BSRR = (uint32_t)GPIO_Pin << 16u;
 8000b62:	887b      	ldrh	r3, [r7, #2]
 8000b64:	041a      	lsls	r2, r3, #16
 8000b66:	687b      	ldr	r3, [r7, #4]
 8000b68:	611a      	str	r2, [r3, #16]
}
 8000b6a:	bf00      	nop
 8000b6c:	370c      	adds	r7, #12
 8000b6e:	46bd      	mov	sp, r7
 8000b70:	bc80      	pop	{r7}
 8000b72:	4770      	bx	lr

08000b74 <HAL_GPIO_TogglePin>:
  * @param  GPIOx: where x can be (A..G depending on device used) to select the GPIO peripheral
  * @param  GPIO_Pin: Specifies the pins to be toggled.
  * @retval None
  */
void HAL_GPIO_TogglePin(GPIO_TypeDef *GPIOx, uint16_t GPIO_Pin)
{
 8000b74:	b480      	push	{r7}
 8000b76:	b085      	sub	sp, #20
 8000b78:	af00      	add	r7, sp, #0
 8000b7a:	6078      	str	r0, [r7, #4]
 8000b7c:	460b      	mov	r3, r1
 8000b7e:	807b      	strh	r3, [r7, #2]

  /* Check the parameters */
  assert_param(IS_GPIO_PIN(GPIO_Pin));

  /* get current Output Data Register value */
  odr = GPIOx->ODR;
 8000b80:	687b      	ldr	r3, [r7, #4]
 8000b82:	68db      	ldr	r3, [r3, #12]
 8000b84:	60fb      	str	r3, [r7, #12]

  /* Set selected pins that were at low level, and reset ones that were high */
  GPIOx->BSRR = ((odr & GPIO_Pin) << GPIO_NUMBER) | (~odr & GPIO_Pin);
 8000b86:	887a      	ldrh	r2, [r7, #2]
 8000b88:	68fb      	ldr	r3, [r7, #12]
 8000b8a:	4013      	ands	r3, r2
 8000b8c:	041a      	lsls	r2, r3, #16
 8000b8e:	68fb      	ldr	r3, [r7, #12]
 8000b90:	43d9      	mvns	r1, r3
 8000b92:	887b      	ldrh	r3, [r7, #2]
 8000b94:	400b      	ands	r3, r1
 8000b96:	431a      	orrs	r2, r3
 8000b98:	687b      	ldr	r3, [r7, #4]
 8000b9a:	611a      	str	r2, [r3, #16]
}
 8000b9c:	bf00      	nop
 8000b9e:	3714      	adds	r7, #20
 8000ba0:	46bd      	mov	sp, r7
 8000ba2:	bc80      	pop	{r7}
 8000ba4:	4770      	bx	lr
	...

08000ba8 <HAL_RCC_OscConfig>:
  *         supported by this macro. User should request a transition to HSE Off
  *         first and then HSE On or HSE Bypass.
  * @retval HAL status
  */
HAL_StatusTypeDef HAL_RCC_OscConfig(RCC_OscInitTypeDef  *RCC_OscInitStruct)
{
 8000ba8:	b580      	push	{r7, lr}
 8000baa:	b086      	sub	sp, #24
 8000bac:	af00      	add	r7, sp, #0
 8000bae:	6078      	str	r0, [r7, #4]
  uint32_t tickstart;
  uint32_t pll_config;

  /* Check Null pointer */
  if (RCC_OscInitStruct == NULL)
 8000bb0:	687b      	ldr	r3, [r7, #4]
 8000bb2:	2b00      	cmp	r3, #0
 8000bb4:	d101      	bne.n	8000bba <HAL_RCC_OscConfig+0x12>
  {
    return HAL_ERROR;
 8000bb6:	2301      	movs	r3, #1
 8000bb8:	e272      	b.n	80010a0 <HAL_RCC_OscConfig+0x4f8>

  /* Check the parameters */
  assert_param(IS_RCC_OSCILLATORTYPE(RCC_OscInitStruct->OscillatorType));

  /*------------------------------- HSE Configuration ------------------------*/
  if (((RCC_OscInitStruct->OscillatorType) & RCC_OSCILLATORTYPE_HSE) == RCC_OSCILLATORTYPE_HSE)
 8000bba:	687b      	ldr	r3, [r7, #4]
 8000bbc:	681b      	ldr	r3, [r3, #0]
 8000bbe:	f003 0301 	and.w	r3, r3, #1
 8000bc2:	2b00      	cmp	r3, #0
 8000bc4:	f000 8087 	beq.w	8000cd6 <HAL_RCC_OscConfig+0x12e>
  {
    /* Check the parameters */
    assert_param(IS_RCC_HSE(RCC_OscInitStruct->HSEState));

    /* When the HSE is used as system clock or clock source for PLL in these cases it is not allowed to be disabled */
    if ((__HAL_RCC_GET_SYSCLK_SOURCE() == RCC_SYSCLKSOURCE_STATUS_HSE)
 8000bc8:	4b92      	ldr	r3, [pc, #584]	; (8000e14 <HAL_RCC_OscConfig+0x26c>)
 8000bca:	685b      	ldr	r3, [r3, #4]
 8000bcc:	f003 030c 	and.w	r3, r3, #12
 8000bd0:	2b04      	cmp	r3, #4
 8000bd2:	d00c      	beq.n	8000bee <HAL_RCC_OscConfig+0x46>
        || ((__HAL_RCC_GET_SYSCLK_SOURCE() == RCC_SYSCLKSOURCE_STATUS_PLLCLK) && (__HAL_RCC_GET_PLL_OSCSOURCE() == RCC_PLLSOURCE_HSE)))
 8000bd4:	4b8f      	ldr	r3, [pc, #572]	; (8000e14 <HAL_RCC_OscConfig+0x26c>)
 8000bd6:	685b      	ldr	r3, [r3, #4]
 8000bd8:	f003 030c 	and.w	r3, r3, #12
 8000bdc:	2b08      	cmp	r3, #8
 8000bde:	d112      	bne.n	8000c06 <HAL_RCC_OscConfig+0x5e>
 8000be0:	4b8c      	ldr	r3, [pc, #560]	; (8000e14 <HAL_RCC_OscConfig+0x26c>)
 8000be2:	685b      	ldr	r3, [r3, #4]
 8000be4:	f403 3380 	and.w	r3, r3, #65536	; 0x10000
 8000be8:	f5b3 3f80 	cmp.w	r3, #65536	; 0x10000
 8000bec:	d10b      	bne.n	8000c06 <HAL_RCC_OscConfig+0x5e>
    {
      if ((__HAL_RCC_GET_FLAG(RCC_FLAG_HSERDY) != RESET) && (RCC_OscInitStruct->HSEState == RCC_HSE_OFF))
 8000bee:	4b89      	ldr	r3, [pc, #548]	; (8000e14 <HAL_RCC_OscConfig+0x26c>)
 8000bf0:	681b      	ldr	r3, [r3, #0]
 8000bf2:	f403 3300 	and.w	r3, r3, #131072	; 0x20000
 8000bf6:	2b00      	cmp	r3, #0
 8000bf8:	d06c      	beq.n	8000cd4 <HAL_RCC_OscConfig+0x12c>
 8000bfa:	687b      	ldr	r3, [r7, #4]
 8000bfc:	685b      	ldr	r3, [r3, #4]
 8000bfe:	2b00      	cmp	r3, #0
 8000c00:	d168      	bne.n	8000cd4 <HAL_RCC_OscConfig+0x12c>
      {
        return HAL_ERROR;
 8000c02:	2301      	movs	r3, #1
 8000c04:	e24c      	b.n	80010a0 <HAL_RCC_OscConfig+0x4f8>
      }
    }
    else
    {
      /* Set the new HSE configuration ---------------------------------------*/
      __HAL_RCC_HSE_CONFIG(RCC_OscInitStruct->HSEState);
 8000c06:	687b      	ldr	r3, [r7, #4]
 8000c08:	685b      	ldr	r3, [r3, #4]
 8000c0a:	f5b3 3f80 	cmp.w	r3, #65536	; 0x10000
 8000c0e:	d106      	bne.n	8000c1e <HAL_RCC_OscConfig+0x76>
 8000c10:	4b80      	ldr	r3, [pc, #512]	; (8000e14 <HAL_RCC_OscConfig+0x26c>)
 8000c12:	681b      	ldr	r3, [r3, #0]
 8000c14:	4a7f      	ldr	r2, [pc, #508]	; (8000e14 <HAL_RCC_OscConfig+0x26c>)
 8000c16:	f443 3380 	orr.w	r3, r3, #65536	; 0x10000
 8000c1a:	6013      	str	r3, [r2, #0]
 8000c1c:	e02e      	b.n	8000c7c <HAL_RCC_OscConfig+0xd4>
 8000c1e:	687b      	ldr	r3, [r7, #4]
 8000c20:	685b      	ldr	r3, [r3, #4]
 8000c22:	2b00      	cmp	r3, #0
 8000c24:	d10c      	bne.n	8000c40 <HAL_RCC_OscConfig+0x98>
 8000c26:	4b7b      	ldr	r3, [pc, #492]	; (8000e14 <HAL_RCC_OscConfig+0x26c>)
 8000c28:	681b      	ldr	r3, [r3, #0]
 8000c2a:	4a7a      	ldr	r2, [pc, #488]	; (8000e14 <HAL_RCC_OscConfig+0x26c>)
 8000c2c:	f423 3380 	bic.w	r3, r3, #65536	; 0x10000
 8000c30:	6013      	str	r3, [r2, #0]
 8000c32:	4b78      	ldr	r3, [pc, #480]	; (8000e14 <HAL_RCC_OscConfig+0x26c>)
 8000c34:	681b      	ldr	r3, [r3, #0]
 8000c36:	4a77      	ldr	r2, [pc, #476]	; (8000e14 <HAL_RCC_OscConfig+0x26c>)
 8000c38:	f423 2380 	bic.w	r3, r3, #262144	; 0x40000
 8000c3c:	6013      	str	r3, [r2, #0]
 8000c3e:	e01d      	b.n	8000c7c <HAL_RCC_OscConfig+0xd4>
 8000c40:	687b      	ldr	r3, [r7, #4]
 8000c42:	685b      	ldr	r3, [r3, #4]
 8000c44:	f5b3 2fa0 	cmp.w	r3, #327680	; 0x50000
 8000c48:	d10c      	bne.n	8000c64 <HAL_RCC_OscConfig+0xbc>
 8000c4a:	4b72      	ldr	r3, [pc, #456]	; (8000e14 <HAL_RCC_OscConfig+0x26c>)
 8000c4c:	681b      	ldr	r3, [r3, #0]
 8000c4e:	4a71      	ldr	r2, [pc, #452]	; (8000e14 <HAL_RCC_OscConfig+0x26c>)
 8000c50:	f443 2380 	orr.w	r3, r3, #262144	; 0x40000
 8000c54:	6013      	str	r3, [r2, #0]
 8000c56:	4b6f      	ldr	r3, [pc, #444]	; (8000e14 <HAL_RCC_OscConfig+0x26c>)
 8000c58:	681b      	ldr	r3, [r3, #0]
 8000c5a:	4a6e      	ldr	r2, [pc, #440]	; (8000e14 <HAL_RCC_OscConfig+0x26c>)
 8000c5c:	f443 3380 	orr.w	r3, r3, #65536	; 0x10000
 8000c60:	6013      	str	r3, [r2, #0]
 8000c62:	e00b      	b.n	8000c7c <HAL_RCC_OscConfig+0xd4>
 8000c64:	4b6b      	ldr	r3, [pc, #428]	; (8000e14 <HAL_RCC_OscConfig+0x26c>)
 8000c66:	681b      	ldr	r3, [r3, #0]
 8000c68:	4a6a      	ldr	r2, [pc, #424]	; (8000e14 <HAL_RCC_OscConfig+0x26c>)
 8000c6a:	f423 3380 	bic.w	r3, r3, #65536	; 0x10000
 8000c6e:	6013      	str	r3, [r2, #0]
 8000c70:	4b68      	ldr	r3, [pc, #416]	; (8000e14 <HAL_RCC_OscConfig+0x26c>)
 8000c72:	681b      	ldr	r3, [r3, #0]
 8000c74:	4a67      	ldr	r2, [pc, #412]	; (8000e14 <HAL_RCC_OscConfig+0x26c>)
 8000c76:	f423 2380 	bic.w	r3, r3, #262144	; 0x40000
 8000c7a:	6013      	str	r3, [r2, #0]


      /* Check the HSE State */
      if (RCC_OscInitStruct->HSEState != RCC_HSE_OFF)
 8000c7c:	687b      	ldr	r3, [r7, #4]
 8000c7e:	685b      	ldr	r3, [r3, #4]
 8000c80:	2b00      	cmp	r3, #0
 8000c82:	d013      	beq.n	8000cac <HAL_RCC_OscConfig+0x104>
      {
        /* Get Start Tick */
        tickstart = HAL_GetTick();
 8000c84:	f7ff fcc8 	bl	8000618 <HAL_GetTick>
 8000c88:	6138      	str	r0, [r7, #16]

        /* Wait till HSE is ready */
        while (__HAL_RCC_GET_FLAG(RCC_FLAG_HSERDY) == RESET)
 8000c8a:	e008      	b.n	8000c9e <HAL_RCC_OscConfig+0xf6>
        {
          if ((HAL_GetTick() - tickstart) > HSE_TIMEOUT_VALUE)
 8000c8c:	f7ff fcc4 	bl	8000618 <HAL_GetTick>
 8000c90:	4602      	mov	r2, r0
 8000c92:	693b      	ldr	r3, [r7, #16]
 8000c94:	1ad3      	subs	r3, r2, r3
 8000c96:	2b64      	cmp	r3, #100	; 0x64
 8000c98:	d901      	bls.n	8000c9e <HAL_RCC_OscConfig+0xf6>
          {
            return HAL_TIMEOUT;
 8000c9a:	2303      	movs	r3, #3
 8000c9c:	e200      	b.n	80010a0 <HAL_RCC_OscConfig+0x4f8>
        while (__HAL_RCC_GET_FLAG(RCC_FLAG_HSERDY) == RESET)
 8000c9e:	4b5d      	ldr	r3, [pc, #372]	; (8000e14 <HAL_RCC_OscConfig+0x26c>)
 8000ca0:	681b      	ldr	r3, [r3, #0]
 8000ca2:	f403 3300 	and.w	r3, r3, #131072	; 0x20000
 8000ca6:	2b00      	cmp	r3, #0
 8000ca8:	d0f0      	beq.n	8000c8c <HAL_RCC_OscConfig+0xe4>
 8000caa:	e014      	b.n	8000cd6 <HAL_RCC_OscConfig+0x12e>
        }
      }
      else
      {
        /* Get Start Tick */
        tickstart = HAL_GetTick();
 8000cac:	f7ff fcb4 	bl	8000618 <HAL_GetTick>
 8000cb0:	6138      	str	r0, [r7, #16]

        /* Wait till HSE is disabled */
        while (__HAL_RCC_GET_FLAG(RCC_FLAG_HSERDY) != RESET)
 8000cb2:	e008      	b.n	8000cc6 <HAL_RCC_OscConfig+0x11e>
        {
          if ((HAL_GetTick() - tickstart) > HSE_TIMEOUT_VALUE)
 8000cb4:	f7ff fcb0 	bl	8000618 <HAL_GetTick>
 8000cb8:	4602      	mov	r2, r0
 8000cba:	693b      	ldr	r3, [r7, #16]
 8000cbc:	1ad3      	subs	r3, r2, r3
 8000cbe:	2b64      	cmp	r3, #100	; 0x64
 8000cc0:	d901      	bls.n	8000cc6 <HAL_RCC_OscConfig+0x11e>
          {
            return HAL_TIMEOUT;
 8000cc2:	2303      	movs	r3, #3
 8000cc4:	e1ec      	b.n	80010a0 <HAL_RCC_OscConfig+0x4f8>
        while (__HAL_RCC_GET_FLAG(RCC_FLAG_HSERDY) != RESET)
 8000cc6:	4b53      	ldr	r3, [pc, #332]	; (8000e14 <HAL_RCC_OscConfig+0x26c>)
 8000cc8:	681b      	ldr	r3, [r3, #0]
 8000cca:	f403 3300 	and.w	r3, r3, #131072	; 0x20000
 8000cce:	2b00      	cmp	r3, #0
 8000cd0:	d1f0      	bne.n	8000cb4 <HAL_RCC_OscConfig+0x10c>
 8000cd2:	e000      	b.n	8000cd6 <HAL_RCC_OscConfig+0x12e>
      if ((__HAL_RCC_GET_FLAG(RCC_FLAG_HSERDY) != RESET) && (RCC_OscInitStruct->HSEState == RCC_HSE_OFF))
 8000cd4:	bf00      	nop
        }
      }
    }
  }
  /*----------------------------- HSI Configuration --------------------------*/
  if (((RCC_OscInitStruct->OscillatorType) & RCC_OSCILLATORTYPE_HSI) == RCC_OSCILLATORTYPE_HSI)
 8000cd6:	687b      	ldr	r3, [r7, #4]
 8000cd8:	681b      	ldr	r3, [r3, #0]
 8000cda:	f003 0302 	and.w	r3, r3, #2
 8000cde:	2b00      	cmp	r3, #0
 8000ce0:	d063      	beq.n	8000daa <HAL_RCC_OscConfig+0x202>
    /* Check the parameters */
    assert_param(IS_RCC_HSI(RCC_OscInitStruct->HSIState));
    assert_param(IS_RCC_CALIBRATION_VALUE(RCC_OscInitStruct->HSICalibrationValue));

    /* Check if HSI is used as system clock or as PLL source when PLL is selected as system clock */
    if ((__HAL_RCC_GET_SYSCLK_SOURCE() == RCC_SYSCLKSOURCE_STATUS_HSI)
 8000ce2:	4b4c      	ldr	r3, [pc, #304]	; (8000e14 <HAL_RCC_OscConfig+0x26c>)
 8000ce4:	685b      	ldr	r3, [r3, #4]
 8000ce6:	f003 030c 	and.w	r3, r3, #12
 8000cea:	2b00      	cmp	r3, #0
 8000cec:	d00b      	beq.n	8000d06 <HAL_RCC_OscConfig+0x15e>
        || ((__HAL_RCC_GET_SYSCLK_SOURCE() == RCC_SYSCLKSOURCE_STATUS_PLLCLK) && (__HAL_RCC_GET_PLL_OSCSOURCE() == RCC_PLLSOURCE_HSI_DIV2)))
 8000cee:	4b49      	ldr	r3, [pc, #292]	; (8000e14 <HAL_RCC_OscConfig+0x26c>)
 8000cf0:	685b      	ldr	r3, [r3, #4]
 8000cf2:	f003 030c 	and.w	r3, r3, #12
 8000cf6:	2b08      	cmp	r3, #8
 8000cf8:	d11c      	bne.n	8000d34 <HAL_RCC_OscConfig+0x18c>
 8000cfa:	4b46      	ldr	r3, [pc, #280]	; (8000e14 <HAL_RCC_OscConfig+0x26c>)
 8000cfc:	685b      	ldr	r3, [r3, #4]
 8000cfe:	f403 3380 	and.w	r3, r3, #65536	; 0x10000
 8000d02:	2b00      	cmp	r3, #0
 8000d04:	d116      	bne.n	8000d34 <HAL_RCC_OscConfig+0x18c>
    {
      /* When HSI is used as system clock it will not disabled */
      if ((__HAL_RCC_GET_FLAG(RCC_FLAG_HSIRDY) != RESET) && (RCC_OscInitStruct->HSIState != RCC_HSI_ON))
 8000d06:	4b43      	ldr	r3, [pc, #268]	; (8000e14 <HAL_RCC_OscConfig+0x26c>)
 8000d08:	681b      	ldr	r3, [r3, #0]
 8000d0a:	f003 0302 	and.w	r3, r3, #2
 8000d0e:	2b00      	cmp	r3, #0
 8000d10:	d005      	beq.n	8000d1e <HAL_RCC_OscConfig+0x176>
 8000d12:	687b      	ldr	r3, [r7, #4]
 8000d14:	691b      	ldr	r3, [r3, #16]
 8000d16:	2b01      	cmp	r3, #1
 8000d18:	d001      	beq.n	8000d1e <HAL_RCC_OscConfig+0x176>
      {
        return HAL_ERROR;
 8000d1a:	2301      	movs	r3, #1
 8000d1c:	e1c0      	b.n	80010a0 <HAL_RCC_OscConfig+0x4f8>
      }
      /* Otherwise, just the calibration is allowed */
      else
      {
        /* Adjusts the Internal High Speed oscillator (HSI) calibration value.*/
        __HAL_RCC_HSI_CALIBRATIONVALUE_ADJUST(RCC_OscInitStruct->HSICalibrationValue);
 8000d1e:	4b3d      	ldr	r3, [pc, #244]	; (8000e14 <HAL_RCC_OscConfig+0x26c>)
 8000d20:	681b      	ldr	r3, [r3, #0]
 8000d22:	f023 02f8 	bic.w	r2, r3, #248	; 0xf8
 8000d26:	687b      	ldr	r3, [r7, #4]
 8000d28:	695b      	ldr	r3, [r3, #20]
 8000d2a:	00db      	lsls	r3, r3, #3
 8000d2c:	4939      	ldr	r1, [pc, #228]	; (8000e14 <HAL_RCC_OscConfig+0x26c>)
 8000d2e:	4313      	orrs	r3, r2
 8000d30:	600b      	str	r3, [r1, #0]
      if ((__HAL_RCC_GET_FLAG(RCC_FLAG_HSIRDY) != RESET) && (RCC_OscInitStruct->HSIState != RCC_HSI_ON))
 8000d32:	e03a      	b.n	8000daa <HAL_RCC_OscConfig+0x202>
      }
    }
    else
    {
      /* Check the HSI State */
      if (RCC_OscInitStruct->HSIState != RCC_HSI_OFF)
 8000d34:	687b      	ldr	r3, [r7, #4]
 8000d36:	691b      	ldr	r3, [r3, #16]
 8000d38:	2b00      	cmp	r3, #0
 8000d3a:	d020      	beq.n	8000d7e <HAL_RCC_OscConfig+0x1d6>
      {
        /* Enable the Internal High Speed oscillator (HSI). */
        __HAL_RCC_HSI_ENABLE();
 8000d3c:	4b36      	ldr	r3, [pc, #216]	; (8000e18 <HAL_RCC_OscConfig+0x270>)
 8000d3e:	2201      	movs	r2, #1
 8000d40:	601a      	str	r2, [r3, #0]

        /* Get Start Tick */
        tickstart = HAL_GetTick();
 8000d42:	f7ff fc69 	bl	8000618 <HAL_GetTick>
 8000d46:	6138      	str	r0, [r7, #16]

        /* Wait till HSI is ready */
        while (__HAL_RCC_GET_FLAG(RCC_FLAG_HSIRDY) == RESET)
 8000d48:	e008      	b.n	8000d5c <HAL_RCC_OscConfig+0x1b4>
        {
          if ((HAL_GetTick() - tickstart) > HSI_TIMEOUT_VALUE)
 8000d4a:	f7ff fc65 	bl	8000618 <HAL_GetTick>
 8000d4e:	4602      	mov	r2, r0
 8000d50:	693b      	ldr	r3, [r7, #16]
 8000d52:	1ad3      	subs	r3, r2, r3
 8000d54:	2b02      	cmp	r3, #2
 8000d56:	d901      	bls.n	8000d5c <HAL_RCC_OscConfig+0x1b4>
          {
            return HAL_TIMEOUT;
 8000d58:	2303      	movs	r3, #3
 8000d5a:	e1a1      	b.n	80010a0 <HAL_RCC_OscConfig+0x4f8>
        while (__HAL_RCC_GET_FLAG(RCC_FLAG_HSIRDY) == RESET)
 8000d5c:	4b2d      	ldr	r3, [pc, #180]	; (8000e14 <HAL_RCC_OscConfig+0x26c>)
 8000d5e:	681b      	ldr	r3, [r3, #0]
 8000d60:	f003 0302 	and.w	r3, r3, #2
 8000d64:	2b00      	cmp	r3, #0
 8000d66:	d0f0      	beq.n	8000d4a <HAL_RCC_OscConfig+0x1a2>
          }
        }

        /* Adjusts the Internal High Speed oscillator (HSI) calibration value.*/
        __HAL_RCC_HSI_CALIBRATIONVALUE_ADJUST(RCC_OscInitStruct->HSICalibrationValue);
 8000d68:	4b2a      	ldr	r3, [pc, #168]	; (8000e14 <HAL_RCC_OscConfig+0x26c>)
 8000d6a:	681b      	ldr	r3, [r3, #0]
 8000d6c:	f023 02f8 	bic.w	r2, r3, #248	; 0xf8
 8000d70:	687b      	ldr	r3, [r7, #4]
 8000d72:	695b      	ldr	r3, [r3, #20]
 8000d74:	00db      	lsls	r3, r3, #3
 8000d76:	4927      	ldr	r1, [pc, #156]	; (8000e14 <HAL_RCC_OscConfig+0x26c>)
 8000d78:	4313      	orrs	r3, r2
 8000d7a:	600b      	str	r3, [r1, #0]
 8000d7c:	e015      	b.n	8000daa <HAL_RCC_OscConfig+0x202>
      }
      else
      {
        /* Disable the Internal High Speed oscillator (HSI). */
        __HAL_RCC_HSI_DISABLE();
 8000d7e:	4b26      	ldr	r3, [pc, #152]	; (8000e18 <HAL_RCC_OscConfig+0x270>)
 8000d80:	2200      	movs	r2, #0
 8000d82:	601a      	str	r2, [r3, #0]

        /* Get Start Tick */
        tickstart = HAL_GetTick();
 8000d84:	f7ff fc48 	bl	8000618 <HAL_GetTick>
 8000d88:	6138      	str	r0, [r7, #16]

        /* Wait till HSI is disabled */
        while (__HAL_RCC_GET_FLAG(RCC_FLAG_HSIRDY) != RESET)
 8000d8a:	e008      	b.n	8000d9e <HAL_RCC_OscConfig+0x1f6>
        {
          if ((HAL_GetTick() - tickstart) > HSI_TIMEOUT_VALUE)
 8000d8c:	f7ff fc44 	bl	8000618 <HAL_GetTick>
 8000d90:	4602      	mov	r2, r0
 8000d92:	693b      	ldr	r3, [r7, #16]
 8000d94:	1ad3      	subs	r3, r2, r3
 8000d96:	2b02      	cmp	r3, #2
 8000d98:	d901      	bls.n	8000d9e <HAL_RCC_OscConfig+0x1f6>
          {
            return HAL_TIMEOUT;
 8000d9a:	2303      	movs	r3, #3
 8000d9c:	e180      	b.n	80010a0 <HAL_RCC_OscConfig+0x4f8>
        while (__HAL_RCC_GET_FLAG(RCC_FLAG_HSIRDY) != RESET)
 8000d9e:	4b1d      	ldr	r3, [pc, #116]	; (8000e14 <HAL_RCC_OscConfig+0x26c>)
 8000da0:	681b      	ldr	r3, [r3, #0]
 8000da2:	f003 0302 	and.w	r3, r3, #2
 8000da6:	2b00      	cmp	r3, #0
 8000da8:	d1f0      	bne.n	8000d8c <HAL_RCC_OscConfig+0x1e4>
        }
      }
    }
  }
  /*------------------------------ LSI Configuration -------------------------*/
  if (((RCC_OscInitStruct->OscillatorType) & RCC_OSCILLATORTYPE_LSI) == RCC_OSCILLATORTYPE_LSI)
 8000daa:	687b      	ldr	r3, [r7, #4]
 8000dac:	681b      	ldr	r3, [r3, #0]
 8000dae:	f003 0308 	and.w	r3, r3, #8
 8000db2:	2b00      	cmp	r3, #0
 8000db4:	d03a      	beq.n	8000e2c <HAL_RCC_OscConfig+0x284>
  {
    /* Check the parameters */
    assert_param(IS_RCC_LSI(RCC_OscInitStruct->LSIState));

    /* Check the LSI State */
    if (RCC_OscInitStruct->LSIState != RCC_LSI_OFF)
 8000db6:	687b      	ldr	r3, [r7, #4]
 8000db8:	699b      	ldr	r3, [r3, #24]
 8000dba:	2b00      	cmp	r3, #0
 8000dbc:	d019      	beq.n	8000df2 <HAL_RCC_OscConfig+0x24a>
    {
      /* Enable the Internal Low Speed oscillator (LSI). */
      __HAL_RCC_LSI_ENABLE();
 8000dbe:	4b17      	ldr	r3, [pc, #92]	; (8000e1c <HAL_RCC_OscConfig+0x274>)
 8000dc0:	2201      	movs	r2, #1
 8000dc2:	601a      	str	r2, [r3, #0]

      /* Get Start Tick */
      tickstart = HAL_GetTick();
 8000dc4:	f7ff fc28 	bl	8000618 <HAL_GetTick>
 8000dc8:	6138      	str	r0, [r7, #16]

      /* Wait till LSI is ready */
      while (__HAL_RCC_GET_FLAG(RCC_FLAG_LSIRDY) == RESET)
 8000dca:	e008      	b.n	8000dde <HAL_RCC_OscConfig+0x236>
      {
        if ((HAL_GetTick() - tickstart) > LSI_TIMEOUT_VALUE)
 8000dcc:	f7ff fc24 	bl	8000618 <HAL_GetTick>
 8000dd0:	4602      	mov	r2, r0
 8000dd2:	693b      	ldr	r3, [r7, #16]
 8000dd4:	1ad3      	subs	r3, r2, r3
 8000dd6:	2b02      	cmp	r3, #2
 8000dd8:	d901      	bls.n	8000dde <HAL_RCC_OscConfig+0x236>
        {
          return HAL_TIMEOUT;
 8000dda:	2303      	movs	r3, #3
 8000ddc:	e160      	b.n	80010a0 <HAL_RCC_OscConfig+0x4f8>
      while (__HAL_RCC_GET_FLAG(RCC_FLAG_LSIRDY) == RESET)
 8000dde:	4b0d      	ldr	r3, [pc, #52]	; (8000e14 <HAL_RCC_OscConfig+0x26c>)
 8000de0:	6a5b      	ldr	r3, [r3, #36]	; 0x24
 8000de2:	f003 0302 	and.w	r3, r3, #2
 8000de6:	2b00      	cmp	r3, #0
 8000de8:	d0f0      	beq.n	8000dcc <HAL_RCC_OscConfig+0x224>
        }
      }
      /*  To have a fully stabilized clock in the specified range, a software delay of 1ms
          should be added.*/
      RCC_Delay(1);
 8000dea:	2001      	movs	r0, #1
 8000dec:	f000 fa9c 	bl	8001328 <RCC_Delay>
 8000df0:	e01c      	b.n	8000e2c <HAL_RCC_OscConfig+0x284>
    }
    else
    {
      /* Disable the Internal Low Speed oscillator (LSI). */
      __HAL_RCC_LSI_DISABLE();
 8000df2:	4b0a      	ldr	r3, [pc, #40]	; (8000e1c <HAL_RCC_OscConfig+0x274>)
 8000df4:	2200      	movs	r2, #0
 8000df6:	601a      	str	r2, [r3, #0]

      /* Get Start Tick */
      tickstart = HAL_GetTick();
 8000df8:	f7ff fc0e 	bl	8000618 <HAL_GetTick>
 8000dfc:	6138      	str	r0, [r7, #16]

      /* Wait till LSI is disabled */
      while (__HAL_RCC_GET_FLAG(RCC_FLAG_LSIRDY) != RESET)
 8000dfe:	e00f      	b.n	8000e20 <HAL_RCC_OscConfig+0x278>
      {
        if ((HAL_GetTick() - tickstart) > LSI_TIMEOUT_VALUE)
 8000e00:	f7ff fc0a 	bl	8000618 <HAL_GetTick>
 8000e04:	4602      	mov	r2, r0
 8000e06:	693b      	ldr	r3, [r7, #16]
 8000e08:	1ad3      	subs	r3, r2, r3
 8000e0a:	2b02      	cmp	r3, #2
 8000e0c:	d908      	bls.n	8000e20 <HAL_RCC_OscConfig+0x278>
        {
          return HAL_TIMEOUT;
 8000e0e:	2303      	movs	r3, #3
 8000e10:	e146      	b.n	80010a0 <HAL_RCC_OscConfig+0x4f8>
 8000e12:	bf00      	nop
 8000e14:	40021000 	.word	0x40021000
 8000e18:	42420000 	.word	0x42420000
 8000e1c:	42420480 	.word	0x42420480
      while (__HAL_RCC_GET_FLAG(RCC_FLAG_LSIRDY) != RESET)
 8000e20:	4b92      	ldr	r3, [pc, #584]	; (800106c <HAL_RCC_OscConfig+0x4c4>)
 8000e22:	6a5b      	ldr	r3, [r3, #36]	; 0x24
 8000e24:	f003 0302 	and.w	r3, r3, #2
 8000e28:	2b00      	cmp	r3, #0
 8000e2a:	d1e9      	bne.n	8000e00 <HAL_RCC_OscConfig+0x258>
        }
      }
    }
  }
  /*------------------------------ LSE Configuration -------------------------*/
  if (((RCC_OscInitStruct->OscillatorType) & RCC_OSCILLATORTYPE_LSE) == RCC_OSCILLATORTYPE_LSE)
 8000e2c:	687b      	ldr	r3, [r7, #4]
 8000e2e:	681b      	ldr	r3, [r3, #0]
 8000e30:	f003 0304 	and.w	r3, r3, #4
 8000e34:	2b00      	cmp	r3, #0
 8000e36:	f000 80a6 	beq.w	8000f86 <HAL_RCC_OscConfig+0x3de>
  {
    FlagStatus       pwrclkchanged = RESET;
 8000e3a:	2300      	movs	r3, #0
 8000e3c:	75fb      	strb	r3, [r7, #23]
    /* Check the parameters */
    assert_param(IS_RCC_LSE(RCC_OscInitStruct->LSEState));

    /* Update LSE configuration in Backup Domain control register    */
    /* Requires to enable write access to Backup Domain of necessary */
    if (__HAL_RCC_PWR_IS_CLK_DISABLED())
 8000e3e:	4b8b      	ldr	r3, [pc, #556]	; (800106c <HAL_RCC_OscConfig+0x4c4>)
 8000e40:	69db      	ldr	r3, [r3, #28]
 8000e42:	f003 5380 	and.w	r3, r3, #268435456	; 0x10000000
 8000e46:	2b00      	cmp	r3, #0
 8000e48:	d10d      	bne.n	8000e66 <HAL_RCC_OscConfig+0x2be>
    {
      __HAL_RCC_PWR_CLK_ENABLE();
 8000e4a:	4b88      	ldr	r3, [pc, #544]	; (800106c <HAL_RCC_OscConfig+0x4c4>)
 8000e4c:	69db      	ldr	r3, [r3, #28]
 8000e4e:	4a87      	ldr	r2, [pc, #540]	; (800106c <HAL_RCC_OscConfig+0x4c4>)
 8000e50:	f043 5380 	orr.w	r3, r3, #268435456	; 0x10000000
 8000e54:	61d3      	str	r3, [r2, #28]
 8000e56:	4b85      	ldr	r3, [pc, #532]	; (800106c <HAL_RCC_OscConfig+0x4c4>)
 8000e58:	69db      	ldr	r3, [r3, #28]
 8000e5a:	f003 5380 	and.w	r3, r3, #268435456	; 0x10000000
 8000e5e:	60bb      	str	r3, [r7, #8]
 8000e60:	68bb      	ldr	r3, [r7, #8]
      pwrclkchanged = SET;
 8000e62:	2301      	movs	r3, #1
 8000e64:	75fb      	strb	r3, [r7, #23]
    }

    if (HAL_IS_BIT_CLR(PWR->CR, PWR_CR_DBP))
 8000e66:	4b82      	ldr	r3, [pc, #520]	; (8001070 <HAL_RCC_OscConfig+0x4c8>)
 8000e68:	681b      	ldr	r3, [r3, #0]
 8000e6a:	f403 7380 	and.w	r3, r3, #256	; 0x100
 8000e6e:	2b00      	cmp	r3, #0
 8000e70:	d118      	bne.n	8000ea4 <HAL_RCC_OscConfig+0x2fc>
    {
      /* Enable write access to Backup domain */
      SET_BIT(PWR->CR, PWR_CR_DBP);
 8000e72:	4b7f      	ldr	r3, [pc, #508]	; (8001070 <HAL_RCC_OscConfig+0x4c8>)
 8000e74:	681b      	ldr	r3, [r3, #0]
 8000e76:	4a7e      	ldr	r2, [pc, #504]	; (8001070 <HAL_RCC_OscConfig+0x4c8>)
 8000e78:	f443 7380 	orr.w	r3, r3, #256	; 0x100
 8000e7c:	6013      	str	r3, [r2, #0]

      /* Wait for Backup domain Write protection disable */
      tickstart = HAL_GetTick();
 8000e7e:	f7ff fbcb 	bl	8000618 <HAL_GetTick>
 8000e82:	6138      	str	r0, [r7, #16]

      while (HAL_IS_BIT_CLR(PWR->CR, PWR_CR_DBP))
 8000e84:	e008      	b.n	8000e98 <HAL_RCC_OscConfig+0x2f0>
      {
        if ((HAL_GetTick() - tickstart) > RCC_DBP_TIMEOUT_VALUE)
 8000e86:	f7ff fbc7 	bl	8000618 <HAL_GetTick>
 8000e8a:	4602      	mov	r2, r0
 8000e8c:	693b      	ldr	r3, [r7, #16]
 8000e8e:	1ad3      	subs	r3, r2, r3
 8000e90:	2b64      	cmp	r3, #100	; 0x64
 8000e92:	d901      	bls.n	8000e98 <HAL_RCC_OscConfig+0x2f0>
        {
          return HAL_TIMEOUT;
 8000e94:	2303      	movs	r3, #3
 8000e96:	e103      	b.n	80010a0 <HAL_RCC_OscConfig+0x4f8>
      while (HAL_IS_BIT_CLR(PWR->CR, PWR_CR_DBP))
 8000e98:	4b75      	ldr	r3, [pc, #468]	; (8001070 <HAL_RCC_OscConfig+0x4c8>)
 8000e9a:	681b      	ldr	r3, [r3, #0]
 8000e9c:	f403 7380 	and.w	r3, r3, #256	; 0x100
 8000ea0:	2b00      	cmp	r3, #0
 8000ea2:	d0f0      	beq.n	8000e86 <HAL_RCC_OscConfig+0x2de>
        }
      }
    }

    /* Set the new LSE configuration -----------------------------------------*/
    __HAL_RCC_LSE_CONFIG(RCC_OscInitStruct->LSEState);
 8000ea4:	687b      	ldr	r3, [r7, #4]
 8000ea6:	68db      	ldr	r3, [r3, #12]
 8000ea8:	2b01      	cmp	r3, #1
 8000eaa:	d106      	bne.n	8000eba <HAL_RCC_OscConfig+0x312>
 8000eac:	4b6f      	ldr	r3, [pc, #444]	; (800106c <HAL_RCC_OscConfig+0x4c4>)
 8000eae:	6a1b      	ldr	r3, [r3, #32]
 8000eb0:	4a6e      	ldr	r2, [pc, #440]	; (800106c <HAL_RCC_OscConfig+0x4c4>)
 8000eb2:	f043 0301 	orr.w	r3, r3, #1
 8000eb6:	6213      	str	r3, [r2, #32]
 8000eb8:	e02d      	b.n	8000f16 <HAL_RCC_OscConfig+0x36e>
 8000eba:	687b      	ldr	r3, [r7, #4]
 8000ebc:	68db      	ldr	r3, [r3, #12]
 8000ebe:	2b00      	cmp	r3, #0
 8000ec0:	d10c      	bne.n	8000edc <HAL_RCC_OscConfig+0x334>
 8000ec2:	4b6a      	ldr	r3, [pc, #424]	; (800106c <HAL_RCC_OscConfig+0x4c4>)
 8000ec4:	6a1b      	ldr	r3, [r3, #32]
 8000ec6:	4a69      	ldr	r2, [pc, #420]	; (800106c <HAL_RCC_OscConfig+0x4c4>)
 8000ec8:	f023 0301 	bic.w	r3, r3, #1
 8000ecc:	6213      	str	r3, [r2, #32]
 8000ece:	4b67      	ldr	r3, [pc, #412]	; (800106c <HAL_RCC_OscConfig+0x4c4>)
 8000ed0:	6a1b      	ldr	r3, [r3, #32]
 8000ed2:	4a66      	ldr	r2, [pc, #408]	; (800106c <HAL_RCC_OscConfig+0x4c4>)
 8000ed4:	f023 0304 	bic.w	r3, r3, #4
 8000ed8:	6213      	str	r3, [r2, #32]
 8000eda:	e01c      	b.n	8000f16 <HAL_RCC_OscConfig+0x36e>
 8000edc:	687b      	ldr	r3, [r7, #4]
 8000ede:	68db      	ldr	r3, [r3, #12]
 8000ee0:	2b05      	cmp	r3, #5
 8000ee2:	d10c      	bne.n	8000efe <HAL_RCC_OscConfig+0x356>
 8000ee4:	4b61      	ldr	r3, [pc, #388]	; (800106c <HAL_RCC_OscConfig+0x4c4>)
 8000ee6:	6a1b      	ldr	r3, [r3, #32]
 8000ee8:	4a60      	ldr	r2, [pc, #384]	; (800106c <HAL_RCC_OscConfig+0x4c4>)
 8000eea:	f043 0304 	orr.w	r3, r3, #4
 8000eee:	6213      	str	r3, [r2, #32]
 8000ef0:	4b5e      	ldr	r3, [pc, #376]	; (800106c <HAL_RCC_OscConfig+0x4c4>)
 8000ef2:	6a1b      	ldr	r3, [r3, #32]
 8000ef4:	4a5d      	ldr	r2, [pc, #372]	; (800106c <HAL_RCC_OscConfig+0x4c4>)
 8000ef6:	f043 0301 	orr.w	r3, r3, #1
 8000efa:	6213      	str	r3, [r2, #32]
 8000efc:	e00b      	b.n	8000f16 <HAL_RCC_OscConfig+0x36e>
 8000efe:	4b5b      	ldr	r3, [pc, #364]	; (800106c <HAL_RCC_OscConfig+0x4c4>)
 8000f00:	6a1b      	ldr	r3, [r3, #32]
 8000f02:	4a5a      	ldr	r2, [pc, #360]	; (800106c <HAL_RCC_OscConfig+0x4c4>)
 8000f04:	f023 0301 	bic.w	r3, r3, #1
 8000f08:	6213      	str	r3, [r2, #32]
 8000f0a:	4b58      	ldr	r3, [pc, #352]	; (800106c <HAL_RCC_OscConfig+0x4c4>)
 8000f0c:	6a1b      	ldr	r3, [r3, #32]
 8000f0e:	4a57      	ldr	r2, [pc, #348]	; (800106c <HAL_RCC_OscConfig+0x4c4>)
 8000f10:	f023 0304 	bic.w	r3, r3, #4
 8000f14:	6213      	str	r3, [r2, #32]
    /* Check the LSE State */
    if (RCC_OscInitStruct->LSEState != RCC_LSE_OFF)
 8000f16:	687b      	ldr	r3, [r7, #4]
 8000f18:	68db      	ldr	r3, [r3, #12]
 8000f1a:	2b00      	cmp	r3, #0
 8000f1c:	d015      	beq.n	8000f4a <HAL_RCC_OscConfig+0x3a2>
    {
      /* Get Start Tick */
      tickstart = HAL_GetTick();
 8000f1e:	f7ff fb7b 	bl	8000618 <HAL_GetTick>
 8000f22:	6138      	str	r0, [r7, #16]

      /* Wait till LSE is ready */
      while (__HAL_RCC_GET_FLAG(RCC_FLAG_LSERDY) == RESET)
 8000f24:	e00a      	b.n	8000f3c <HAL_RCC_OscConfig+0x394>
      {
        if ((HAL_GetTick() - tickstart) > RCC_LSE_TIMEOUT_VALUE)
 8000f26:	f7ff fb77 	bl	8000618 <HAL_GetTick>
 8000f2a:	4602      	mov	r2, r0
 8000f2c:	693b      	ldr	r3, [r7, #16]
 8000f2e:	1ad3      	subs	r3, r2, r3
 8000f30:	f241 3288 	movw	r2, #5000	; 0x1388
 8000f34:	4293      	cmp	r3, r2
 8000f36:	d901      	bls.n	8000f3c <HAL_RCC_OscConfig+0x394>
        {
          return HAL_TIMEOUT;
 8000f38:	2303      	movs	r3, #3
 8000f3a:	e0b1      	b.n	80010a0 <HAL_RCC_OscConfig+0x4f8>
      while (__HAL_RCC_GET_FLAG(RCC_FLAG_LSERDY) == RESET)
 8000f3c:	4b4b      	ldr	r3, [pc, #300]	; (800106c <HAL_RCC_OscConfig+0x4c4>)
 8000f3e:	6a1b      	ldr	r3, [r3, #32]
 8000f40:	f003 0302 	and.w	r3, r3, #2
 8000f44:	2b00      	cmp	r3, #0
 8000f46:	d0ee      	beq.n	8000f26 <HAL_RCC_OscConfig+0x37e>
 8000f48:	e014      	b.n	8000f74 <HAL_RCC_OscConfig+0x3cc>
      }
    }
    else
    {
      /* Get Start Tick */
      tickstart = HAL_GetTick();
 8000f4a:	f7ff fb65 	bl	8000618 <HAL_GetTick>
 8000f4e:	6138      	str	r0, [r7, #16]

      /* Wait till LSE is disabled */
      while (__HAL_RCC_GET_FLAG(RCC_FLAG_LSERDY) != RESET)
 8000f50:	e00a      	b.n	8000f68 <HAL_RCC_OscConfig+0x3c0>
      {
        if ((HAL_GetTick() - tickstart) > RCC_LSE_TIMEOUT_VALUE)
 8000f52:	f7ff fb61 	bl	8000618 <HAL_GetTick>
 8000f56:	4602      	mov	r2, r0
 8000f58:	693b      	ldr	r3, [r7, #16]
 8000f5a:	1ad3      	subs	r3, r2, r3
 8000f5c:	f241 3288 	movw	r2, #5000	; 0x1388
 8000f60:	4293      	cmp	r3, r2
 8000f62:	d901      	bls.n	8000f68 <HAL_RCC_OscConfig+0x3c0>
        {
          return HAL_TIMEOUT;
 8000f64:	2303      	movs	r3, #3
 8000f66:	e09b      	b.n	80010a0 <HAL_RCC_OscConfig+0x4f8>
      while (__HAL_RCC_GET_FLAG(RCC_FLAG_LSERDY) != RESET)
 8000f68:	4b40      	ldr	r3, [pc, #256]	; (800106c <HAL_RCC_OscConfig+0x4c4>)
 8000f6a:	6a1b      	ldr	r3, [r3, #32]
 8000f6c:	f003 0302 	and.w	r3, r3, #2
 8000f70:	2b00      	cmp	r3, #0
 8000f72:	d1ee      	bne.n	8000f52 <HAL_RCC_OscConfig+0x3aa>
        }
      }
    }

    /* Require to disable power clock if necessary */
    if (pwrclkchanged == SET)
 8000f74:	7dfb      	ldrb	r3, [r7, #23]
 8000f76:	2b01      	cmp	r3, #1
 8000f78:	d105      	bne.n	8000f86 <HAL_RCC_OscConfig+0x3de>
    {
      __HAL_RCC_PWR_CLK_DISABLE();
 8000f7a:	4b3c      	ldr	r3, [pc, #240]	; (800106c <HAL_RCC_OscConfig+0x4c4>)
 8000f7c:	69db      	ldr	r3, [r3, #28]
 8000f7e:	4a3b      	ldr	r2, [pc, #236]	; (800106c <HAL_RCC_OscConfig+0x4c4>)
 8000f80:	f023 5380 	bic.w	r3, r3, #268435456	; 0x10000000
 8000f84:	61d3      	str	r3, [r2, #28]

#endif /* RCC_CR_PLL2ON */
  /*-------------------------------- PLL Configuration -----------------------*/
  /* Check the parameters */
  assert_param(IS_RCC_PLL(RCC_OscInitStruct->PLL.PLLState));
  if ((RCC_OscInitStruct->PLL.PLLState) != RCC_PLL_NONE)
 8000f86:	687b      	ldr	r3, [r7, #4]
 8000f88:	69db      	ldr	r3, [r3, #28]
 8000f8a:	2b00      	cmp	r3, #0
 8000f8c:	f000 8087 	beq.w	800109e <HAL_RCC_OscConfig+0x4f6>
  {
    /* Check if the PLL is used as system clock or not */
    if (__HAL_RCC_GET_SYSCLK_SOURCE() != RCC_SYSCLKSOURCE_STATUS_PLLCLK)
 8000f90:	4b36      	ldr	r3, [pc, #216]	; (800106c <HAL_RCC_OscConfig+0x4c4>)
 8000f92:	685b      	ldr	r3, [r3, #4]
 8000f94:	f003 030c 	and.w	r3, r3, #12
 8000f98:	2b08      	cmp	r3, #8
 8000f9a:	d061      	beq.n	8001060 <HAL_RCC_OscConfig+0x4b8>
    {
      if ((RCC_OscInitStruct->PLL.PLLState) == RCC_PLL_ON)
 8000f9c:	687b      	ldr	r3, [r7, #4]
 8000f9e:	69db      	ldr	r3, [r3, #28]
 8000fa0:	2b02      	cmp	r3, #2
 8000fa2:	d146      	bne.n	8001032 <HAL_RCC_OscConfig+0x48a>
        /* Check the parameters */
        assert_param(IS_RCC_PLLSOURCE(RCC_OscInitStruct->PLL.PLLSource));
        assert_param(IS_RCC_PLL_MUL(RCC_OscInitStruct->PLL.PLLMUL));

        /* Disable the main PLL. */
        __HAL_RCC_PLL_DISABLE();
 8000fa4:	4b33      	ldr	r3, [pc, #204]	; (8001074 <HAL_RCC_OscConfig+0x4cc>)
 8000fa6:	2200      	movs	r2, #0
 8000fa8:	601a      	str	r2, [r3, #0]

        /* Get Start Tick */
        tickstart = HAL_GetTick();
 8000faa:	f7ff fb35 	bl	8000618 <HAL_GetTick>
 8000fae:	6138      	str	r0, [r7, #16]

        /* Wait till PLL is disabled */
        while (__HAL_RCC_GET_FLAG(RCC_FLAG_PLLRDY)  != RESET)
 8000fb0:	e008      	b.n	8000fc4 <HAL_RCC_OscConfig+0x41c>
        {
          if ((HAL_GetTick() - tickstart) > PLL_TIMEOUT_VALUE)
 8000fb2:	f7ff fb31 	bl	8000618 <HAL_GetTick>
 8000fb6:	4602      	mov	r2, r0
 8000fb8:	693b      	ldr	r3, [r7, #16]
 8000fba:	1ad3      	subs	r3, r2, r3
 8000fbc:	2b02      	cmp	r3, #2
 8000fbe:	d901      	bls.n	8000fc4 <HAL_RCC_OscConfig+0x41c>
          {
            return HAL_TIMEOUT;
 8000fc0:	2303      	movs	r3, #3
 8000fc2:	e06d      	b.n	80010a0 <HAL_RCC_OscConfig+0x4f8>
        while (__HAL_RCC_GET_FLAG(RCC_FLAG_PLLRDY)  != RESET)
 8000fc4:	4b29      	ldr	r3, [pc, #164]	; (800106c <HAL_RCC_OscConfig+0x4c4>)
 8000fc6:	681b      	ldr	r3, [r3, #0]
 8000fc8:	f003 7300 	and.w	r3, r3, #33554432	; 0x2000000
 8000fcc:	2b00      	cmp	r3, #0
 8000fce:	d1f0      	bne.n	8000fb2 <HAL_RCC_OscConfig+0x40a>
          }
        }

        /* Configure the HSE prediv factor --------------------------------*/
        /* It can be written only when the PLL is disabled. Not used in PLL source is different than HSE */
        if (RCC_OscInitStruct->PLL.PLLSource == RCC_PLLSOURCE_HSE)
 8000fd0:	687b      	ldr	r3, [r7, #4]
 8000fd2:	6a1b      	ldr	r3, [r3, #32]
 8000fd4:	f5b3 3f80 	cmp.w	r3, #65536	; 0x10000
 8000fd8:	d108      	bne.n	8000fec <HAL_RCC_OscConfig+0x444>
          /* Set PREDIV1 source */
          SET_BIT(RCC->CFGR2, RCC_OscInitStruct->Prediv1Source);
#endif /* RCC_CFGR2_PREDIV1SRC */

          /* Set PREDIV1 Value */
          __HAL_RCC_HSE_PREDIV_CONFIG(RCC_OscInitStruct->HSEPredivValue);
 8000fda:	4b24      	ldr	r3, [pc, #144]	; (800106c <HAL_RCC_OscConfig+0x4c4>)
 8000fdc:	685b      	ldr	r3, [r3, #4]
 8000fde:	f423 3200 	bic.w	r2, r3, #131072	; 0x20000
 8000fe2:	687b      	ldr	r3, [r7, #4]
 8000fe4:	689b      	ldr	r3, [r3, #8]
 8000fe6:	4921      	ldr	r1, [pc, #132]	; (800106c <HAL_RCC_OscConfig+0x4c4>)
 8000fe8:	4313      	orrs	r3, r2
 8000fea:	604b      	str	r3, [r1, #4]
        }

        /* Configure the main PLL clock source and multiplication factors. */
        __HAL_RCC_PLL_CONFIG(RCC_OscInitStruct->PLL.PLLSource,
 8000fec:	4b1f      	ldr	r3, [pc, #124]	; (800106c <HAL_RCC_OscConfig+0x4c4>)
 8000fee:	685b      	ldr	r3, [r3, #4]
 8000ff0:	f423 1274 	bic.w	r2, r3, #3997696	; 0x3d0000
 8000ff4:	687b      	ldr	r3, [r7, #4]
 8000ff6:	6a19      	ldr	r1, [r3, #32]
 8000ff8:	687b      	ldr	r3, [r7, #4]
 8000ffa:	6a5b      	ldr	r3, [r3, #36]	; 0x24
 8000ffc:	430b      	orrs	r3, r1
 8000ffe:	491b      	ldr	r1, [pc, #108]	; (800106c <HAL_RCC_OscConfig+0x4c4>)
 8001000:	4313      	orrs	r3, r2
 8001002:	604b      	str	r3, [r1, #4]
                             RCC_OscInitStruct->PLL.PLLMUL);
        /* Enable the main PLL. */
        __HAL_RCC_PLL_ENABLE();
 8001004:	4b1b      	ldr	r3, [pc, #108]	; (8001074 <HAL_RCC_OscConfig+0x4cc>)
 8001006:	2201      	movs	r2, #1
 8001008:	601a      	str	r2, [r3, #0]

        /* Get Start Tick */
        tickstart = HAL_GetTick();
 800100a:	f7ff fb05 	bl	8000618 <HAL_GetTick>
 800100e:	6138      	str	r0, [r7, #16]

        /* Wait till PLL is ready */
        while (__HAL_RCC_GET_FLAG(RCC_FLAG_PLLRDY)  == RESET)
 8001010:	e008      	b.n	8001024 <HAL_RCC_OscConfig+0x47c>
        {
          if ((HAL_GetTick() - tickstart) > PLL_TIMEOUT_VALUE)
 8001012:	f7ff fb01 	bl	8000618 <HAL_GetTick>
 8001016:	4602      	mov	r2, r0
 8001018:	693b      	ldr	r3, [r7, #16]
 800101a:	1ad3      	subs	r3, r2, r3
 800101c:	2b02      	cmp	r3, #2
 800101e:	d901      	bls.n	8001024 <HAL_RCC_OscConfig+0x47c>
          {
            return HAL_TIMEOUT;
 8001020:	2303      	movs	r3, #3
 8001022:	e03d      	b.n	80010a0 <HAL_RCC_OscConfig+0x4f8>
        while (__HAL_RCC_GET_FLAG(RCC_FLAG_PLLRDY)  == RESET)
 8001024:	4b11      	ldr	r3, [pc, #68]	; (800106c <HAL_RCC_OscConfig+0x4c4>)
 8001026:	681b      	ldr	r3, [r3, #0]
 8001028:	f003 7300 	and.w	r3, r3, #33554432	; 0x2000000
 800102c:	2b00      	cmp	r3, #0
 800102e:	d0f0      	beq.n	8001012 <HAL_RCC_OscConfig+0x46a>
 8001030:	e035      	b.n	800109e <HAL_RCC_OscConfig+0x4f6>
        }
      }
      else
      {
        /* Disable the main PLL. */
        __HAL_RCC_PLL_DISABLE();
 8001032:	4b10      	ldr	r3, [pc, #64]	; (8001074 <HAL_RCC_OscConfig+0x4cc>)
 8001034:	2200      	movs	r2, #0
 8001036:	601a      	str	r2, [r3, #0]

        /* Get Start Tick */
        tickstart = HAL_GetTick();
 8001038:	f7ff faee 	bl	8000618 <HAL_GetTick>
 800103c:	6138      	str	r0, [r7, #16]

        /* Wait till PLL is disabled */
        while (__HAL_RCC_GET_FLAG(RCC_FLAG_PLLRDY)  != RESET)
 800103e:	e008      	b.n	8001052 <HAL_RCC_OscConfig+0x4aa>
        {
          if ((HAL_GetTick() - tickstart) > PLL_TIMEOUT_VALUE)
 8001040:	f7ff faea 	bl	8000618 <HAL_GetTick>
 8001044:	4602      	mov	r2, r0
 8001046:	693b      	ldr	r3, [r7, #16]
 8001048:	1ad3      	subs	r3, r2, r3
 800104a:	2b02      	cmp	r3, #2
 800104c:	d901      	bls.n	8001052 <HAL_RCC_OscConfig+0x4aa>
          {
            return HAL_TIMEOUT;
 800104e:	2303      	movs	r3, #3
 8001050:	e026      	b.n	80010a0 <HAL_RCC_OscConfig+0x4f8>
        while (__HAL_RCC_GET_FLAG(RCC_FLAG_PLLRDY)  != RESET)
 8001052:	4b06      	ldr	r3, [pc, #24]	; (800106c <HAL_RCC_OscConfig+0x4c4>)
 8001054:	681b      	ldr	r3, [r3, #0]
 8001056:	f003 7300 	and.w	r3, r3, #33554432	; 0x2000000
 800105a:	2b00      	cmp	r3, #0
 800105c:	d1f0      	bne.n	8001040 <HAL_RCC_OscConfig+0x498>
 800105e:	e01e      	b.n	800109e <HAL_RCC_OscConfig+0x4f6>
      }
    }
    else
    {
      /* Check if there is a request to disable the PLL used as System clock source */
      if ((RCC_OscInitStruct->PLL.PLLState) == RCC_PLL_OFF)
 8001060:	687b      	ldr	r3, [r7, #4]
 8001062:	69db      	ldr	r3, [r3, #28]
 8001064:	2b01      	cmp	r3, #1
 8001066:	d107      	bne.n	8001078 <HAL_RCC_OscConfig+0x4d0>
      {
        return HAL_ERROR;
 8001068:	2301      	movs	r3, #1
 800106a:	e019      	b.n	80010a0 <HAL_RCC_OscConfig+0x4f8>
 800106c:	40021000 	.word	0x40021000
 8001070:	40007000 	.word	0x40007000
 8001074:	42420060 	.word	0x42420060
      }
      else
      {
        /* Do not return HAL_ERROR if request repeats the current configuration */
        pll_config = RCC->CFGR;
 8001078:	4b0b      	ldr	r3, [pc, #44]	; (80010a8 <HAL_RCC_OscConfig+0x500>)
 800107a:	685b      	ldr	r3, [r3, #4]
 800107c:	60fb      	str	r3, [r7, #12]
        if ((READ_BIT(pll_config, RCC_CFGR_PLLSRC) != RCC_OscInitStruct->PLL.PLLSource) ||
 800107e:	68fb      	ldr	r3, [r7, #12]
 8001080:	f403 3280 	and.w	r2, r3, #65536	; 0x10000
 8001084:	687b      	ldr	r3, [r7, #4]
 8001086:	6a1b      	ldr	r3, [r3, #32]
 8001088:	429a      	cmp	r2, r3
 800108a:	d106      	bne.n	800109a <HAL_RCC_OscConfig+0x4f2>
            (READ_BIT(pll_config, RCC_CFGR_PLLMULL) != RCC_OscInitStruct->PLL.PLLMUL))
 800108c:	68fb      	ldr	r3, [r7, #12]
 800108e:	f403 1270 	and.w	r2, r3, #3932160	; 0x3c0000
 8001092:	687b      	ldr	r3, [r7, #4]
 8001094:	6a5b      	ldr	r3, [r3, #36]	; 0x24
        if ((READ_BIT(pll_config, RCC_CFGR_PLLSRC) != RCC_OscInitStruct->PLL.PLLSource) ||
 8001096:	429a      	cmp	r2, r3
 8001098:	d001      	beq.n	800109e <HAL_RCC_OscConfig+0x4f6>
        {
          return HAL_ERROR;
 800109a:	2301      	movs	r3, #1
 800109c:	e000      	b.n	80010a0 <HAL_RCC_OscConfig+0x4f8>
        }
      }
    }
  }

  return HAL_OK;
 800109e:	2300      	movs	r3, #0
}
 80010a0:	4618      	mov	r0, r3
 80010a2:	3718      	adds	r7, #24
 80010a4:	46bd      	mov	sp, r7
 80010a6:	bd80      	pop	{r7, pc}
 80010a8:	40021000 	.word	0x40021000

080010ac <HAL_RCC_ClockConfig>:
  *         You can use @ref HAL_RCC_GetClockConfig() function to know which clock is
  *         currently used as system clock source.
  * @retval HAL status
  */
HAL_StatusTypeDef HAL_RCC_ClockConfig(RCC_ClkInitTypeDef  *RCC_ClkInitStruct, uint32_t FLatency)
{
 80010ac:	b580      	push	{r7, lr}
 80010ae:	b084      	sub	sp, #16
 80010b0:	af00      	add	r7, sp, #0
 80010b2:	6078      	str	r0, [r7, #4]
 80010b4:	6039      	str	r1, [r7, #0]
  uint32_t tickstart;

  /* Check Null pointer */
  if (RCC_ClkInitStruct == NULL)
 80010b6:	687b      	ldr	r3, [r7, #4]
 80010b8:	2b00      	cmp	r3, #0
 80010ba:	d101      	bne.n	80010c0 <HAL_RCC_ClockConfig+0x14>
  {
    return HAL_ERROR;
 80010bc:	2301      	movs	r3, #1
 80010be:	e0d0      	b.n	8001262 <HAL_RCC_ClockConfig+0x1b6>
  must be correctly programmed according to the frequency of the CPU clock
    (HCLK) of the device. */

#if defined(FLASH_ACR_LATENCY)
  /* Increasing the number of wait states because of higher CPU frequency */
  if (FLatency > __HAL_FLASH_GET_LATENCY())
 80010c0:	4b6a      	ldr	r3, [pc, #424]	; (800126c <HAL_RCC_ClockConfig+0x1c0>)
 80010c2:	681b      	ldr	r3, [r3, #0]
 80010c4:	f003 0307 	and.w	r3, r3, #7
 80010c8:	683a      	ldr	r2, [r7, #0]
 80010ca:	429a      	cmp	r2, r3
 80010cc:	d910      	bls.n	80010f0 <HAL_RCC_ClockConfig+0x44>
  {
    /* Program the new number of wait states to the LATENCY bits in the FLASH_ACR register */
    __HAL_FLASH_SET_LATENCY(FLatency);
 80010ce:	4b67      	ldr	r3, [pc, #412]	; (800126c <HAL_RCC_ClockConfig+0x1c0>)
 80010d0:	681b      	ldr	r3, [r3, #0]
 80010d2:	f023 0207 	bic.w	r2, r3, #7
 80010d6:	4965      	ldr	r1, [pc, #404]	; (800126c <HAL_RCC_ClockConfig+0x1c0>)
 80010d8:	683b      	ldr	r3, [r7, #0]
 80010da:	4313      	orrs	r3, r2
 80010dc:	600b      	str	r3, [r1, #0]

    /* Check that the new number of wait states is taken into account to access the Flash
    memory by reading the FLASH_ACR register */
    if (__HAL_FLASH_GET_LATENCY() != FLatency)
 80010de:	4b63      	ldr	r3, [pc, #396]	; (800126c <HAL_RCC_ClockConfig+0x1c0>)
 80010e0:	681b      	ldr	r3, [r3, #0]
 80010e2:	f003 0307 	and.w	r3, r3, #7
 80010e6:	683a      	ldr	r2, [r7, #0]
 80010e8:	429a      	cmp	r2, r3
 80010ea:	d001      	beq.n	80010f0 <HAL_RCC_ClockConfig+0x44>
  {
    return HAL_ERROR;
 80010ec:	2301      	movs	r3, #1
 80010ee:	e0b8      	b.n	8001262 <HAL_RCC_ClockConfig+0x1b6>
  }
}

#endif /* FLASH_ACR_LATENCY */
/*-------------------------- HCLK Configuration --------------------------*/
if (((RCC_ClkInitStruct->ClockType) & RCC_CLOCKTYPE_HCLK) == RCC_CLOCKTYPE_HCLK)
 80010f0:	687b      	ldr	r3, [r7, #4]
 80010f2:	681b      	ldr	r3, [r3, #0]
 80010f4:	f003 0302 	and.w	r3, r3, #2
 80010f8:	2b00      	cmp	r3, #0
 80010fa:	d020      	beq.n	800113e <HAL_RCC_ClockConfig+0x92>
  {
    /* Set the highest APBx dividers in order to ensure that we do not go through
    a non-spec phase whatever we decrease or increase HCLK. */
    if (((RCC_ClkInitStruct->ClockType) & RCC_CLOCKTYPE_PCLK1) == RCC_CLOCKTYPE_PCLK1)
 80010fc:	687b      	ldr	r3, [r7, #4]
 80010fe:	681b      	ldr	r3, [r3, #0]
 8001100:	f003 0304 	and.w	r3, r3, #4
 8001104:	2b00      	cmp	r3, #0
 8001106:	d005      	beq.n	8001114 <HAL_RCC_ClockConfig+0x68>
    {
      MODIFY_REG(RCC->CFGR, RCC_CFGR_PPRE1, RCC_HCLK_DIV16);
 8001108:	4b59      	ldr	r3, [pc, #356]	; (8001270 <HAL_RCC_ClockConfig+0x1c4>)
 800110a:	685b      	ldr	r3, [r3, #4]
 800110c:	4a58      	ldr	r2, [pc, #352]	; (8001270 <HAL_RCC_ClockConfig+0x1c4>)
 800110e:	f443 63e0 	orr.w	r3, r3, #1792	; 0x700
 8001112:	6053      	str	r3, [r2, #4]
    }

    if (((RCC_ClkInitStruct->ClockType) & RCC_CLOCKTYPE_PCLK2) == RCC_CLOCKTYPE_PCLK2)
 8001114:	687b      	ldr	r3, [r7, #4]
 8001116:	681b      	ldr	r3, [r3, #0]
 8001118:	f003 0308 	and.w	r3, r3, #8
 800111c:	2b00      	cmp	r3, #0
 800111e:	d005      	beq.n	800112c <HAL_RCC_ClockConfig+0x80>
    {
      MODIFY_REG(RCC->CFGR, RCC_CFGR_PPRE2, (RCC_HCLK_DIV16 << 3));
 8001120:	4b53      	ldr	r3, [pc, #332]	; (8001270 <HAL_RCC_ClockConfig+0x1c4>)
 8001122:	685b      	ldr	r3, [r3, #4]
 8001124:	4a52      	ldr	r2, [pc, #328]	; (8001270 <HAL_RCC_ClockConfig+0x1c4>)
 8001126:	f443 5360 	orr.w	r3, r3, #14336	; 0x3800
 800112a:	6053      	str	r3, [r2, #4]
    }

    /* Set the new HCLK clock divider */
    assert_param(IS_RCC_HCLK(RCC_ClkInitStruct->AHBCLKDivider));
    MODIFY_REG(RCC->CFGR, RCC_CFGR_HPRE, RCC_ClkInitStruct->AHBCLKDivider);
 800112c:	4b50      	ldr	r3, [pc, #320]	; (8001270 <HAL_RCC_ClockConfig+0x1c4>)
 800112e:	685b      	ldr	r3, [r3, #4]
 8001130:	f023 02f0 	bic.w	r2, r3, #240	; 0xf0
 8001134:	687b      	ldr	r3, [r7, #4]
 8001136:	689b      	ldr	r3, [r3, #8]
 8001138:	494d      	ldr	r1, [pc, #308]	; (8001270 <HAL_RCC_ClockConfig+0x1c4>)
 800113a:	4313      	orrs	r3, r2
 800113c:	604b      	str	r3, [r1, #4]
  }

  /*------------------------- SYSCLK Configuration ---------------------------*/
  if (((RCC_ClkInitStruct->ClockType) & RCC_CLOCKTYPE_SYSCLK) == RCC_CLOCKTYPE_SYSCLK)
 800113e:	687b      	ldr	r3, [r7, #4]
 8001140:	681b      	ldr	r3, [r3, #0]
 8001142:	f003 0301 	and.w	r3, r3, #1
 8001146:	2b00      	cmp	r3, #0
 8001148:	d040      	beq.n	80011cc <HAL_RCC_ClockConfig+0x120>
  {
    assert_param(IS_RCC_SYSCLKSOURCE(RCC_ClkInitStruct->SYSCLKSource));

    /* HSE is selected as System Clock Source */
    if (RCC_ClkInitStruct->SYSCLKSource == RCC_SYSCLKSOURCE_HSE)
 800114a:	687b      	ldr	r3, [r7, #4]
 800114c:	685b      	ldr	r3, [r3, #4]
 800114e:	2b01      	cmp	r3, #1
 8001150:	d107      	bne.n	8001162 <HAL_RCC_ClockConfig+0xb6>
    {
      /* Check the HSE ready flag */
      if (__HAL_RCC_GET_FLAG(RCC_FLAG_HSERDY) == RESET)
 8001152:	4b47      	ldr	r3, [pc, #284]	; (8001270 <HAL_RCC_ClockConfig+0x1c4>)
 8001154:	681b      	ldr	r3, [r3, #0]
 8001156:	f403 3300 	and.w	r3, r3, #131072	; 0x20000
 800115a:	2b00      	cmp	r3, #0
 800115c:	d115      	bne.n	800118a <HAL_RCC_ClockConfig+0xde>
      {
        return HAL_ERROR;
 800115e:	2301      	movs	r3, #1
 8001160:	e07f      	b.n	8001262 <HAL_RCC_ClockConfig+0x1b6>
      }
    }
    /* PLL is selected as System Clock Source */
    else if (RCC_ClkInitStruct->SYSCLKSource == RCC_SYSCLKSOURCE_PLLCLK)
 8001162:	687b      	ldr	r3, [r7, #4]
 8001164:	685b      	ldr	r3, [r3, #4]
 8001166:	2b02      	cmp	r3, #2
 8001168:	d107      	bne.n	800117a <HAL_RCC_ClockConfig+0xce>
    {
      /* Check the PLL ready flag */
      if (__HAL_RCC_GET_FLAG(RCC_FLAG_PLLRDY) == RESET)
 800116a:	4b41      	ldr	r3, [pc, #260]	; (8001270 <HAL_RCC_ClockConfig+0x1c4>)
 800116c:	681b      	ldr	r3, [r3, #0]
 800116e:	f003 7300 	and.w	r3, r3, #33554432	; 0x2000000
 8001172:	2b00      	cmp	r3, #0
 8001174:	d109      	bne.n	800118a <HAL_RCC_ClockConfig+0xde>
      {
        return HAL_ERROR;
 8001176:	2301      	movs	r3, #1
 8001178:	e073      	b.n	8001262 <HAL_RCC_ClockConfig+0x1b6>
    }
    /* HSI is selected as System Clock Source */
    else
    {
      /* Check the HSI ready flag */
      if (__HAL_RCC_GET_FLAG(RCC_FLAG_HSIRDY) == RESET)
 800117a:	4b3d      	ldr	r3, [pc, #244]	; (8001270 <HAL_RCC_ClockConfig+0x1c4>)
 800117c:	681b      	ldr	r3, [r3, #0]
 800117e:	f003 0302 	and.w	r3, r3, #2
 8001182:	2b00      	cmp	r3, #0
 8001184:	d101      	bne.n	800118a <HAL_RCC_ClockConfig+0xde>
      {
        return HAL_ERROR;
 8001186:	2301      	movs	r3, #1
 8001188:	e06b      	b.n	8001262 <HAL_RCC_ClockConfig+0x1b6>
      }
    }
    __HAL_RCC_SYSCLK_CONFIG(RCC_ClkInitStruct->SYSCLKSource);
 800118a:	4b39      	ldr	r3, [pc, #228]	; (8001270 <HAL_RCC_ClockConfig+0x1c4>)
 800118c:	685b      	ldr	r3, [r3, #4]
 800118e:	f023 0203 	bic.w	r2, r3, #3
 8001192:	687b      	ldr	r3, [r7, #4]
 8001194:	685b      	ldr	r3, [r3, #4]
 8001196:	4936      	ldr	r1, [pc, #216]	; (8001270 <HAL_RCC_ClockConfig+0x1c4>)
 8001198:	4313      	orrs	r3, r2
 800119a:	604b      	str	r3, [r1, #4]

    /* Get Start Tick */
    tickstart = HAL_GetTick();
 800119c:	f7ff fa3c 	bl	8000618 <HAL_GetTick>
 80011a0:	60f8      	str	r0, [r7, #12]

    while (__HAL_RCC_GET_SYSCLK_SOURCE() != (RCC_ClkInitStruct->SYSCLKSource << RCC_CFGR_SWS_Pos))
 80011a2:	e00a      	b.n	80011ba <HAL_RCC_ClockConfig+0x10e>
    {
      if ((HAL_GetTick() - tickstart) > CLOCKSWITCH_TIMEOUT_VALUE)
 80011a4:	f7ff fa38 	bl	8000618 <HAL_GetTick>
 80011a8:	4602      	mov	r2, r0
 80011aa:	68fb      	ldr	r3, [r7, #12]
 80011ac:	1ad3      	subs	r3, r2, r3
 80011ae:	f241 3288 	movw	r2, #5000	; 0x1388
 80011b2:	4293      	cmp	r3, r2
 80011b4:	d901      	bls.n	80011ba <HAL_RCC_ClockConfig+0x10e>
      {
        return HAL_TIMEOUT;
 80011b6:	2303      	movs	r3, #3
 80011b8:	e053      	b.n	8001262 <HAL_RCC_ClockConfig+0x1b6>
    while (__HAL_RCC_GET_SYSCLK_SOURCE() != (RCC_ClkInitStruct->SYSCLKSource << RCC_CFGR_SWS_Pos))
 80011ba:	4b2d      	ldr	r3, [pc, #180]	; (8001270 <HAL_RCC_ClockConfig+0x1c4>)
 80011bc:	685b      	ldr	r3, [r3, #4]
 80011be:	f003 020c 	and.w	r2, r3, #12
 80011c2:	687b      	ldr	r3, [r7, #4]
 80011c4:	685b      	ldr	r3, [r3, #4]
 80011c6:	009b      	lsls	r3, r3, #2
 80011c8:	429a      	cmp	r2, r3
 80011ca:	d1eb      	bne.n	80011a4 <HAL_RCC_ClockConfig+0xf8>
    }
  }

#if defined(FLASH_ACR_LATENCY)
  /* Decreasing the number of wait states because of lower CPU frequency */
  if (FLatency < __HAL_FLASH_GET_LATENCY())
 80011cc:	4b27      	ldr	r3, [pc, #156]	; (800126c <HAL_RCC_ClockConfig+0x1c0>)
 80011ce:	681b      	ldr	r3, [r3, #0]
 80011d0:	f003 0307 	and.w	r3, r3, #7
 80011d4:	683a      	ldr	r2, [r7, #0]
 80011d6:	429a      	cmp	r2, r3
 80011d8:	d210      	bcs.n	80011fc <HAL_RCC_ClockConfig+0x150>
  {
    /* Program the new number of wait states to the LATENCY bits in the FLASH_ACR register */
    __HAL_FLASH_SET_LATENCY(FLatency);
 80011da:	4b24      	ldr	r3, [pc, #144]	; (800126c <HAL_RCC_ClockConfig+0x1c0>)
 80011dc:	681b      	ldr	r3, [r3, #0]
 80011de:	f023 0207 	bic.w	r2, r3, #7
 80011e2:	4922      	ldr	r1, [pc, #136]	; (800126c <HAL_RCC_ClockConfig+0x1c0>)
 80011e4:	683b      	ldr	r3, [r7, #0]
 80011e6:	4313      	orrs	r3, r2
 80011e8:	600b      	str	r3, [r1, #0]

    /* Check that the new number of wait states is taken into account to access the Flash
    memory by reading the FLASH_ACR register */
    if (__HAL_FLASH_GET_LATENCY() != FLatency)
 80011ea:	4b20      	ldr	r3, [pc, #128]	; (800126c <HAL_RCC_ClockConfig+0x1c0>)
 80011ec:	681b      	ldr	r3, [r3, #0]
 80011ee:	f003 0307 	and.w	r3, r3, #7
 80011f2:	683a      	ldr	r2, [r7, #0]
 80011f4:	429a      	cmp	r2, r3
 80011f6:	d001      	beq.n	80011fc <HAL_RCC_ClockConfig+0x150>
  {
    return HAL_ERROR;
 80011f8:	2301      	movs	r3, #1
 80011fa:	e032      	b.n	8001262 <HAL_RCC_ClockConfig+0x1b6>
  }
}
#endif /* FLASH_ACR_LATENCY */

/*-------------------------- PCLK1 Configuration ---------------------------*/
if (((RCC_ClkInitStruct->ClockType) & RCC_CLOCKTYPE_PCLK1) == RCC_CLOCKTYPE_PCLK1)
 80011fc:	687b      	ldr	r3, [r7, #4]
 80011fe:	681b      	ldr	r3, [r3, #0]
 8001200:	f003 0304 	and.w	r3, r3, #4
 8001204:	2b00      	cmp	r3, #0
 8001206:	d008      	beq.n	800121a <HAL_RCC_ClockConfig+0x16e>
  {
    assert_param(IS_RCC_PCLK(RCC_ClkInitStruct->APB1CLKDivider));
    MODIFY_REG(RCC->CFGR, RCC_CFGR_PPRE1, RCC_ClkInitStruct->APB1CLKDivider);
 8001208:	4b19      	ldr	r3, [pc, #100]	; (8001270 <HAL_RCC_ClockConfig+0x1c4>)
 800120a:	685b      	ldr	r3, [r3, #4]
 800120c:	f423 62e0 	bic.w	r2, r3, #1792	; 0x700
 8001210:	687b      	ldr	r3, [r7, #4]
 8001212:	68db      	ldr	r3, [r3, #12]
 8001214:	4916      	ldr	r1, [pc, #88]	; (8001270 <HAL_RCC_ClockConfig+0x1c4>)
 8001216:	4313      	orrs	r3, r2
 8001218:	604b      	str	r3, [r1, #4]
  }

  /*-------------------------- PCLK2 Configuration ---------------------------*/
  if (((RCC_ClkInitStruct->ClockType) & RCC_CLOCKTYPE_PCLK2) == RCC_CLOCKTYPE_PCLK2)
 800121a:	687b      	ldr	r3, [r7, #4]
 800121c:	681b      	ldr	r3, [r3, #0]
 800121e:	f003 0308 	and.w	r3, r3, #8
 8001222:	2b00      	cmp	r3, #0
 8001224:	d009      	beq.n	800123a <HAL_RCC_ClockConfig+0x18e>
  {
    assert_param(IS_RCC_PCLK(RCC_ClkInitStruct->APB2CLKDivider));
    MODIFY_REG(RCC->CFGR, RCC_CFGR_PPRE2, ((RCC_ClkInitStruct->APB2CLKDivider) << 3));
 8001226:	4b12      	ldr	r3, [pc, #72]	; (8001270 <HAL_RCC_ClockConfig+0x1c4>)
 8001228:	685b      	ldr	r3, [r3, #4]
 800122a:	f423 5260 	bic.w	r2, r3, #14336	; 0x3800
 800122e:	687b      	ldr	r3, [r7, #4]
 8001230:	691b      	ldr	r3, [r3, #16]
 8001232:	00db      	lsls	r3, r3, #3
 8001234:	490e      	ldr	r1, [pc, #56]	; (8001270 <HAL_RCC_ClockConfig+0x1c4>)
 8001236:	4313      	orrs	r3, r2
 8001238:	604b      	str	r3, [r1, #4]
  }

  /* Update the SystemCoreClock global variable */
  SystemCoreClock = HAL_RCC_GetSysClockFreq() >> AHBPrescTable[(RCC->CFGR & RCC_CFGR_HPRE) >> RCC_CFGR_HPRE_Pos];
 800123a:	f000 f821 	bl	8001280 <HAL_RCC_GetSysClockFreq>
 800123e:	4602      	mov	r2, r0
 8001240:	4b0b      	ldr	r3, [pc, #44]	; (8001270 <HAL_RCC_ClockConfig+0x1c4>)
 8001242:	685b      	ldr	r3, [r3, #4]
 8001244:	091b      	lsrs	r3, r3, #4
 8001246:	f003 030f 	and.w	r3, r3, #15
 800124a:	490a      	ldr	r1, [pc, #40]	; (8001274 <HAL_RCC_ClockConfig+0x1c8>)
 800124c:	5ccb      	ldrb	r3, [r1, r3]
 800124e:	fa22 f303 	lsr.w	r3, r2, r3
 8001252:	4a09      	ldr	r2, [pc, #36]	; (8001278 <HAL_RCC_ClockConfig+0x1cc>)
 8001254:	6013      	str	r3, [r2, #0]

  /* Configure the source of time base considering new system clocks settings*/
  HAL_InitTick(uwTickPrio);
 8001256:	4b09      	ldr	r3, [pc, #36]	; (800127c <HAL_RCC_ClockConfig+0x1d0>)
 8001258:	681b      	ldr	r3, [r3, #0]
 800125a:	4618      	mov	r0, r3
 800125c:	f7ff f99a 	bl	8000594 <HAL_InitTick>

  return HAL_OK;
 8001260:	2300      	movs	r3, #0
}
 8001262:	4618      	mov	r0, r3
 8001264:	3710      	adds	r7, #16
 8001266:	46bd      	mov	sp, r7
 8001268:	bd80      	pop	{r7, pc}
 800126a:	bf00      	nop
 800126c:	40022000 	.word	0x40022000
 8001270:	40021000 	.word	0x40021000
 8001274:	08001c14 	.word	0x08001c14
 8001278:	20000000 	.word	0x20000000
 800127c:	20000004 	.word	0x20000004

08001280 <HAL_RCC_GetSysClockFreq>:
  *         right SYSCLK value. Otherwise, any configuration based on this function will be incorrect.
  *
  * @retval SYSCLK frequency
  */
uint32_t HAL_RCC_GetSysClockFreq(void)
{
 8001280:	b480      	push	{r7}
 8001282:	b087      	sub	sp, #28
 8001284:	af00      	add	r7, sp, #0
#else
  static const uint8_t aPredivFactorTable[2U] = {1, 2};
#endif /*RCC_CFGR2_PREDIV1*/

#endif
  uint32_t tmpreg = 0U, prediv = 0U, pllclk = 0U, pllmul = 0U;
 8001286:	2300      	movs	r3, #0
 8001288:	60fb      	str	r3, [r7, #12]
 800128a:	2300      	movs	r3, #0
 800128c:	60bb      	str	r3, [r7, #8]
 800128e:	2300      	movs	r3, #0
 8001290:	617b      	str	r3, [r7, #20]
 8001292:	2300      	movs	r3, #0
 8001294:	607b      	str	r3, [r7, #4]
  uint32_t sysclockfreq = 0U;
 8001296:	2300      	movs	r3, #0
 8001298:	613b      	str	r3, [r7, #16]
#if defined(RCC_CFGR2_PREDIV1SRC)
  uint32_t prediv2 = 0U, pll2mul = 0U;
#endif /*RCC_CFGR2_PREDIV1SRC*/

  tmpreg = RCC->CFGR;
 800129a:	4b1e      	ldr	r3, [pc, #120]	; (8001314 <HAL_RCC_GetSysClockFreq+0x94>)
 800129c:	685b      	ldr	r3, [r3, #4]
 800129e:	60fb      	str	r3, [r7, #12]

  /* Get SYSCLK source -------------------------------------------------------*/
  switch (tmpreg & RCC_CFGR_SWS)
 80012a0:	68fb      	ldr	r3, [r7, #12]
 80012a2:	f003 030c 	and.w	r3, r3, #12
 80012a6:	2b04      	cmp	r3, #4
 80012a8:	d002      	beq.n	80012b0 <HAL_RCC_GetSysClockFreq+0x30>
 80012aa:	2b08      	cmp	r3, #8
 80012ac:	d003      	beq.n	80012b6 <HAL_RCC_GetSysClockFreq+0x36>
 80012ae:	e027      	b.n	8001300 <HAL_RCC_GetSysClockFreq+0x80>
  {
    case RCC_SYSCLKSOURCE_STATUS_HSE:  /* HSE used as system clock */
    {
      sysclockfreq = HSE_VALUE;
 80012b0:	4b19      	ldr	r3, [pc, #100]	; (8001318 <HAL_RCC_GetSysClockFreq+0x98>)
 80012b2:	613b      	str	r3, [r7, #16]
      break;
 80012b4:	e027      	b.n	8001306 <HAL_RCC_GetSysClockFreq+0x86>
    }
    case RCC_SYSCLKSOURCE_STATUS_PLLCLK:  /* PLL used as system clock */
    {
      pllmul = aPLLMULFactorTable[(uint32_t)(tmpreg & RCC_CFGR_PLLMULL) >> RCC_CFGR_PLLMULL_Pos];
 80012b6:	68fb      	ldr	r3, [r7, #12]
 80012b8:	0c9b      	lsrs	r3, r3, #18
 80012ba:	f003 030f 	and.w	r3, r3, #15
 80012be:	4a17      	ldr	r2, [pc, #92]	; (800131c <HAL_RCC_GetSysClockFreq+0x9c>)
 80012c0:	5cd3      	ldrb	r3, [r2, r3]
 80012c2:	607b      	str	r3, [r7, #4]
      if ((tmpreg & RCC_CFGR_PLLSRC) != RCC_PLLSOURCE_HSI_DIV2)
 80012c4:	68fb      	ldr	r3, [r7, #12]
 80012c6:	f403 3380 	and.w	r3, r3, #65536	; 0x10000
 80012ca:	2b00      	cmp	r3, #0
 80012cc:	d010      	beq.n	80012f0 <HAL_RCC_GetSysClockFreq+0x70>
      {
#if defined(RCC_CFGR2_PREDIV1)
        prediv = aPredivFactorTable[(uint32_t)(RCC->CFGR2 & RCC_CFGR2_PREDIV1) >> RCC_CFGR2_PREDIV1_Pos];
#else
        prediv = aPredivFactorTable[(uint32_t)(RCC->CFGR & RCC_CFGR_PLLXTPRE) >> RCC_CFGR_PLLXTPRE_Pos];
 80012ce:	4b11      	ldr	r3, [pc, #68]	; (8001314 <HAL_RCC_GetSysClockFreq+0x94>)
 80012d0:	685b      	ldr	r3, [r3, #4]
 80012d2:	0c5b      	lsrs	r3, r3, #17
 80012d4:	f003 0301 	and.w	r3, r3, #1
 80012d8:	4a11      	ldr	r2, [pc, #68]	; (8001320 <HAL_RCC_GetSysClockFreq+0xa0>)
 80012da:	5cd3      	ldrb	r3, [r2, r3]
 80012dc:	60bb      	str	r3, [r7, #8]
        {
          pllclk = pllclk / 2;
        }
#else
        /* HSE used as PLL clock source : PLLCLK = HSE/PREDIV1 * PLLMUL */
        pllclk = (uint32_t)((HSE_VALUE  * pllmul) / prediv);
 80012de:	687b      	ldr	r3, [r7, #4]
 80012e0:	4a0d      	ldr	r2, [pc, #52]	; (8001318 <HAL_RCC_GetSysClockFreq+0x98>)
 80012e2:	fb03 f202 	mul.w	r2, r3, r2
 80012e6:	68bb      	ldr	r3, [r7, #8]
 80012e8:	fbb2 f3f3 	udiv	r3, r2, r3
 80012ec:	617b      	str	r3, [r7, #20]
 80012ee:	e004      	b.n	80012fa <HAL_RCC_GetSysClockFreq+0x7a>
#endif /*RCC_CFGR2_PREDIV1SRC*/
      }
      else
      {
        /* HSI used as PLL clock source : PLLCLK = HSI/2 * PLLMUL */
        pllclk = (uint32_t)((HSI_VALUE >> 1) * pllmul);
 80012f0:	687b      	ldr	r3, [r7, #4]
 80012f2:	4a0c      	ldr	r2, [pc, #48]	; (8001324 <HAL_RCC_GetSysClockFreq+0xa4>)
 80012f4:	fb02 f303 	mul.w	r3, r2, r3
 80012f8:	617b      	str	r3, [r7, #20]
      }
      sysclockfreq = pllclk;
 80012fa:	697b      	ldr	r3, [r7, #20]
 80012fc:	613b      	str	r3, [r7, #16]
      break;
 80012fe:	e002      	b.n	8001306 <HAL_RCC_GetSysClockFreq+0x86>
    }
    case RCC_SYSCLKSOURCE_STATUS_HSI:  /* HSI used as system clock source */
    default: /* HSI used as system clock */
    {
      sysclockfreq = HSI_VALUE;
 8001300:	4b05      	ldr	r3, [pc, #20]	; (8001318 <HAL_RCC_GetSysClockFreq+0x98>)
 8001302:	613b      	str	r3, [r7, #16]
      break;
 8001304:	bf00      	nop
    }
  }
  return sysclockfreq;
 8001306:	693b      	ldr	r3, [r7, #16]
}
 8001308:	4618      	mov	r0, r3
 800130a:	371c      	adds	r7, #28
 800130c:	46bd      	mov	sp, r7
 800130e:	bc80      	pop	{r7}
 8001310:	4770      	bx	lr
 8001312:	bf00      	nop
 8001314:	40021000 	.word	0x40021000
 8001318:	007a1200 	.word	0x007a1200
 800131c:	08001c24 	.word	0x08001c24
 8001320:	08001c34 	.word	0x08001c34
 8001324:	003d0900 	.word	0x003d0900

08001328 <RCC_Delay>:
  * @brief  This function provides delay (in milliseconds) based on CPU cycles method.
  * @param  mdelay: specifies the delay time length, in milliseconds.
  * @retval None
  */
static void RCC_Delay(uint32_t mdelay)
{
 8001328:	b480      	push	{r7}
 800132a:	b085      	sub	sp, #20
 800132c:	af00      	add	r7, sp, #0
 800132e:	6078      	str	r0, [r7, #4]
  __IO uint32_t Delay = mdelay * (SystemCoreClock / 8U / 1000U);
 8001330:	4b0a      	ldr	r3, [pc, #40]	; (800135c <RCC_Delay+0x34>)
 8001332:	681b      	ldr	r3, [r3, #0]
 8001334:	4a0a      	ldr	r2, [pc, #40]	; (8001360 <RCC_Delay+0x38>)
 8001336:	fba2 2303 	umull	r2, r3, r2, r3
 800133a:	0a5b      	lsrs	r3, r3, #9
 800133c:	687a      	ldr	r2, [r7, #4]
 800133e:	fb02 f303 	mul.w	r3, r2, r3
 8001342:	60fb      	str	r3, [r7, #12]
  do
  {
    __NOP();
 8001344:	bf00      	nop
  }
  while (Delay --);
 8001346:	68fb      	ldr	r3, [r7, #12]
 8001348:	1e5a      	subs	r2, r3, #1
 800134a:	60fa      	str	r2, [r7, #12]
 800134c:	2b00      	cmp	r3, #0
 800134e:	d1f9      	bne.n	8001344 <RCC_Delay+0x1c>
}
 8001350:	bf00      	nop
 8001352:	bf00      	nop
 8001354:	3714      	adds	r7, #20
 8001356:	46bd      	mov	sp, r7
 8001358:	bc80      	pop	{r7}
 800135a:	4770      	bx	lr
 800135c:	20000000 	.word	0x20000000
 8001360:	10624dd3 	.word	0x10624dd3

08001364 <HAL_TIM_PWM_Init>:
  *         Ex: call @ref HAL_TIM_PWM_DeInit() before HAL_TIM_PWM_Init()
  * @param  htim TIM PWM handle
  * @retval HAL status
  */
HAL_StatusTypeDef HAL_TIM_PWM_Init(TIM_HandleTypeDef *htim)
{
 8001364:	b580      	push	{r7, lr}
 8001366:	b082      	sub	sp, #8
 8001368:	af00      	add	r7, sp, #0
 800136a:	6078      	str	r0, [r7, #4]
  /* Check the TIM handle allocation */
  if (htim == NULL)
 800136c:	687b      	ldr	r3, [r7, #4]
 800136e:	2b00      	cmp	r3, #0
 8001370:	d101      	bne.n	8001376 <HAL_TIM_PWM_Init+0x12>
  {
    return HAL_ERROR;
 8001372:	2301      	movs	r3, #1
 8001374:	e041      	b.n	80013fa <HAL_TIM_PWM_Init+0x96>
  assert_param(IS_TIM_COUNTER_MODE(htim->Init.CounterMode));
  assert_param(IS_TIM_CLOCKDIVISION_DIV(htim->Init.ClockDivision));
  assert_param(IS_TIM_PERIOD(htim->Init.Period));
  assert_param(IS_TIM_AUTORELOAD_PRELOAD(htim->Init.AutoReloadPreload));

  if (htim->State == HAL_TIM_STATE_RESET)
 8001376:	687b      	ldr	r3, [r7, #4]
 8001378:	f893 303d 	ldrb.w	r3, [r3, #61]	; 0x3d
 800137c:	b2db      	uxtb	r3, r3
 800137e:	2b00      	cmp	r3, #0
 8001380:	d106      	bne.n	8001390 <HAL_TIM_PWM_Init+0x2c>
  {
    /* Allocate lock resource and initialize it */
    htim->Lock = HAL_UNLOCKED;
 8001382:	687b      	ldr	r3, [r7, #4]
 8001384:	2200      	movs	r2, #0
 8001386:	f883 203c 	strb.w	r2, [r3, #60]	; 0x3c
    }
    /* Init the low level hardware : GPIO, CLOCK, NVIC */
    htim->PWM_MspInitCallback(htim);
#else
    /* Init the low level hardware : GPIO, CLOCK, NVIC and DMA */
    HAL_TIM_PWM_MspInit(htim);
 800138a:	6878      	ldr	r0, [r7, #4]
 800138c:	f7ff f846 	bl	800041c <HAL_TIM_PWM_MspInit>
#endif /* USE_HAL_TIM_REGISTER_CALLBACKS */
  }

  /* Set the TIM state */
  htim->State = HAL_TIM_STATE_BUSY;
 8001390:	687b      	ldr	r3, [r7, #4]
 8001392:	2202      	movs	r2, #2
 8001394:	f883 203d 	strb.w	r2, [r3, #61]	; 0x3d

  /* Init the base time for the PWM */
  TIM_Base_SetConfig(htim->Instance, &htim->Init);
 8001398:	687b      	ldr	r3, [r7, #4]
 800139a:	681a      	ldr	r2, [r3, #0]
 800139c:	687b      	ldr	r3, [r7, #4]
 800139e:	3304      	adds	r3, #4
 80013a0:	4619      	mov	r1, r3
 80013a2:	4610      	mov	r0, r2
 80013a4:	f000 f992 	bl	80016cc <TIM_Base_SetConfig>

  /* Initialize the DMA burst operation state */
  htim->DMABurstState = HAL_DMA_BURST_STATE_READY;
 80013a8:	687b      	ldr	r3, [r7, #4]
 80013aa:	2201      	movs	r2, #1
 80013ac:	f883 2046 	strb.w	r2, [r3, #70]	; 0x46

  /* Initialize the TIM channels state */
  TIM_CHANNEL_STATE_SET_ALL(htim, HAL_TIM_CHANNEL_STATE_READY);
 80013b0:	687b      	ldr	r3, [r7, #4]
 80013b2:	2201      	movs	r2, #1
 80013b4:	f883 203e 	strb.w	r2, [r3, #62]	; 0x3e
 80013b8:	687b      	ldr	r3, [r7, #4]
 80013ba:	2201      	movs	r2, #1
 80013bc:	f883 203f 	strb.w	r2, [r3, #63]	; 0x3f
 80013c0:	687b      	ldr	r3, [r7, #4]
 80013c2:	2201      	movs	r2, #1
 80013c4:	f883 2040 	strb.w	r2, [r3, #64]	; 0x40
 80013c8:	687b      	ldr	r3, [r7, #4]
 80013ca:	2201      	movs	r2, #1
 80013cc:	f883 2041 	strb.w	r2, [r3, #65]	; 0x41
  TIM_CHANNEL_N_STATE_SET_ALL(htim, HAL_TIM_CHANNEL_STATE_READY);
 80013d0:	687b      	ldr	r3, [r7, #4]
 80013d2:	2201      	movs	r2, #1
 80013d4:	f883 2042 	strb.w	r2, [r3, #66]	; 0x42
 80013d8:	687b      	ldr	r3, [r7, #4]
 80013da:	2201      	movs	r2, #1
 80013dc:	f883 2043 	strb.w	r2, [r3, #67]	; 0x43
 80013e0:	687b      	ldr	r3, [r7, #4]
 80013e2:	2201      	movs	r2, #1
 80013e4:	f883 2044 	strb.w	r2, [r3, #68]	; 0x44
 80013e8:	687b      	ldr	r3, [r7, #4]
 80013ea:	2201      	movs	r2, #1
 80013ec:	f883 2045 	strb.w	r2, [r3, #69]	; 0x45

  /* Initialize the TIM state*/
  htim->State = HAL_TIM_STATE_READY;
 80013f0:	687b      	ldr	r3, [r7, #4]
 80013f2:	2201      	movs	r2, #1
 80013f4:	f883 203d 	strb.w	r2, [r3, #61]	; 0x3d

  return HAL_OK;
 80013f8:	2300      	movs	r3, #0
}
 80013fa:	4618      	mov	r0, r3
 80013fc:	3708      	adds	r7, #8
 80013fe:	46bd      	mov	sp, r7
 8001400:	bd80      	pop	{r7, pc}
	...

08001404 <HAL_TIM_PWM_Start>:
  *            @arg TIM_CHANNEL_3: TIM Channel 3 selected
  *            @arg TIM_CHANNEL_4: TIM Channel 4 selected
  * @retval HAL status
  */
HAL_StatusTypeDef HAL_TIM_PWM_Start(TIM_HandleTypeDef *htim, uint32_t Channel)
{
 8001404:	b580      	push	{r7, lr}
 8001406:	b084      	sub	sp, #16
 8001408:	af00      	add	r7, sp, #0
 800140a:	6078      	str	r0, [r7, #4]
 800140c:	6039      	str	r1, [r7, #0]

  /* Check the parameters */
  assert_param(IS_TIM_CCX_INSTANCE(htim->Instance, Channel));

  /* Check the TIM channel state */
  if (TIM_CHANNEL_STATE_GET(htim, Channel) != HAL_TIM_CHANNEL_STATE_READY)
 800140e:	683b      	ldr	r3, [r7, #0]
 8001410:	2b00      	cmp	r3, #0
 8001412:	d109      	bne.n	8001428 <HAL_TIM_PWM_Start+0x24>
 8001414:	687b      	ldr	r3, [r7, #4]
 8001416:	f893 303e 	ldrb.w	r3, [r3, #62]	; 0x3e
 800141a:	b2db      	uxtb	r3, r3
 800141c:	2b01      	cmp	r3, #1
 800141e:	bf14      	ite	ne
 8001420:	2301      	movne	r3, #1
 8001422:	2300      	moveq	r3, #0
 8001424:	b2db      	uxtb	r3, r3
 8001426:	e022      	b.n	800146e <HAL_TIM_PWM_Start+0x6a>
 8001428:	683b      	ldr	r3, [r7, #0]
 800142a:	2b04      	cmp	r3, #4
 800142c:	d109      	bne.n	8001442 <HAL_TIM_PWM_Start+0x3e>
 800142e:	687b      	ldr	r3, [r7, #4]
 8001430:	f893 303f 	ldrb.w	r3, [r3, #63]	; 0x3f
 8001434:	b2db      	uxtb	r3, r3
 8001436:	2b01      	cmp	r3, #1
 8001438:	bf14      	ite	ne
 800143a:	2301      	movne	r3, #1
 800143c:	2300      	moveq	r3, #0
 800143e:	b2db      	uxtb	r3, r3
 8001440:	e015      	b.n	800146e <HAL_TIM_PWM_Start+0x6a>
 8001442:	683b      	ldr	r3, [r7, #0]
 8001444:	2b08      	cmp	r3, #8
 8001446:	d109      	bne.n	800145c <HAL_TIM_PWM_Start+0x58>
 8001448:	687b      	ldr	r3, [r7, #4]
 800144a:	f893 3040 	ldrb.w	r3, [r3, #64]	; 0x40
 800144e:	b2db      	uxtb	r3, r3
 8001450:	2b01      	cmp	r3, #1
 8001452:	bf14      	ite	ne
 8001454:	2301      	movne	r3, #1
 8001456:	2300      	moveq	r3, #0
 8001458:	b2db      	uxtb	r3, r3
 800145a:	e008      	b.n	800146e <HAL_TIM_PWM_Start+0x6a>
 800145c:	687b      	ldr	r3, [r7, #4]
 800145e:	f893 3041 	ldrb.w	r3, [r3, #65]	; 0x41
 8001462:	b2db      	uxtb	r3, r3
 8001464:	2b01      	cmp	r3, #1
 8001466:	bf14      	ite	ne
 8001468:	2301      	movne	r3, #1
 800146a:	2300      	moveq	r3, #0
 800146c:	b2db      	uxtb	r3, r3
 800146e:	2b00      	cmp	r3, #0
 8001470:	d001      	beq.n	8001476 <HAL_TIM_PWM_Start+0x72>
  {
    return HAL_ERROR;
 8001472:	2301      	movs	r3, #1
 8001474:	e05e      	b.n	8001534 <HAL_TIM_PWM_Start+0x130>
  }

  /* Set the TIM channel state */
  TIM_CHANNEL_STATE_SET(htim, Channel, HAL_TIM_CHANNEL_STATE_BUSY);
 8001476:	683b      	ldr	r3, [r7, #0]
 8001478:	2b00      	cmp	r3, #0
 800147a:	d104      	bne.n	8001486 <HAL_TIM_PWM_Start+0x82>
 800147c:	687b      	ldr	r3, [r7, #4]
 800147e:	2202      	movs	r2, #2
 8001480:	f883 203e 	strb.w	r2, [r3, #62]	; 0x3e
 8001484:	e013      	b.n	80014ae <HAL_TIM_PWM_Start+0xaa>
 8001486:	683b      	ldr	r3, [r7, #0]
 8001488:	2b04      	cmp	r3, #4
 800148a:	d104      	bne.n	8001496 <HAL_TIM_PWM_Start+0x92>
 800148c:	687b      	ldr	r3, [r7, #4]
 800148e:	2202      	movs	r2, #2
 8001490:	f883 203f 	strb.w	r2, [r3, #63]	; 0x3f
 8001494:	e00b      	b.n	80014ae <HAL_TIM_PWM_Start+0xaa>
 8001496:	683b      	ldr	r3, [r7, #0]
 8001498:	2b08      	cmp	r3, #8
 800149a:	d104      	bne.n	80014a6 <HAL_TIM_PWM_Start+0xa2>
 800149c:	687b      	ldr	r3, [r7, #4]
 800149e:	2202      	movs	r2, #2
 80014a0:	f883 2040 	strb.w	r2, [r3, #64]	; 0x40
 80014a4:	e003      	b.n	80014ae <HAL_TIM_PWM_Start+0xaa>
 80014a6:	687b      	ldr	r3, [r7, #4]
 80014a8:	2202      	movs	r2, #2
 80014aa:	f883 2041 	strb.w	r2, [r3, #65]	; 0x41

  /* Enable the Capture compare channel */
  TIM_CCxChannelCmd(htim->Instance, Channel, TIM_CCx_ENABLE);
 80014ae:	687b      	ldr	r3, [r7, #4]
 80014b0:	681b      	ldr	r3, [r3, #0]
 80014b2:	2201      	movs	r2, #1
 80014b4:	6839      	ldr	r1, [r7, #0]
 80014b6:	4618      	mov	r0, r3
 80014b8:	f000 faf2 	bl	8001aa0 <TIM_CCxChannelCmd>

  if (IS_TIM_BREAK_INSTANCE(htim->Instance) != RESET)
 80014bc:	687b      	ldr	r3, [r7, #4]
 80014be:	681b      	ldr	r3, [r3, #0]
 80014c0:	4a1e      	ldr	r2, [pc, #120]	; (800153c <HAL_TIM_PWM_Start+0x138>)
 80014c2:	4293      	cmp	r3, r2
 80014c4:	d107      	bne.n	80014d6 <HAL_TIM_PWM_Start+0xd2>
  {
    /* Enable the main output */
    __HAL_TIM_MOE_ENABLE(htim);
 80014c6:	687b      	ldr	r3, [r7, #4]
 80014c8:	681b      	ldr	r3, [r3, #0]
 80014ca:	6c5a      	ldr	r2, [r3, #68]	; 0x44
 80014cc:	687b      	ldr	r3, [r7, #4]
 80014ce:	681b      	ldr	r3, [r3, #0]
 80014d0:	f442 4200 	orr.w	r2, r2, #32768	; 0x8000
 80014d4:	645a      	str	r2, [r3, #68]	; 0x44
  }

  /* Enable the Peripheral, except in trigger mode where enable is automatically done with trigger */
  if (IS_TIM_SLAVE_INSTANCE(htim->Instance))
 80014d6:	687b      	ldr	r3, [r7, #4]
 80014d8:	681b      	ldr	r3, [r3, #0]
 80014da:	4a18      	ldr	r2, [pc, #96]	; (800153c <HAL_TIM_PWM_Start+0x138>)
 80014dc:	4293      	cmp	r3, r2
 80014de:	d00e      	beq.n	80014fe <HAL_TIM_PWM_Start+0xfa>
 80014e0:	687b      	ldr	r3, [r7, #4]
 80014e2:	681b      	ldr	r3, [r3, #0]
 80014e4:	f1b3 4f80 	cmp.w	r3, #1073741824	; 0x40000000
 80014e8:	d009      	beq.n	80014fe <HAL_TIM_PWM_Start+0xfa>
 80014ea:	687b      	ldr	r3, [r7, #4]
 80014ec:	681b      	ldr	r3, [r3, #0]
 80014ee:	4a14      	ldr	r2, [pc, #80]	; (8001540 <HAL_TIM_PWM_Start+0x13c>)
 80014f0:	4293      	cmp	r3, r2
 80014f2:	d004      	beq.n	80014fe <HAL_TIM_PWM_Start+0xfa>
 80014f4:	687b      	ldr	r3, [r7, #4]
 80014f6:	681b      	ldr	r3, [r3, #0]
 80014f8:	4a12      	ldr	r2, [pc, #72]	; (8001544 <HAL_TIM_PWM_Start+0x140>)
 80014fa:	4293      	cmp	r3, r2
 80014fc:	d111      	bne.n	8001522 <HAL_TIM_PWM_Start+0x11e>
  {
    tmpsmcr = htim->Instance->SMCR & TIM_SMCR_SMS;
 80014fe:	687b      	ldr	r3, [r7, #4]
 8001500:	681b      	ldr	r3, [r3, #0]
 8001502:	689b      	ldr	r3, [r3, #8]
 8001504:	f003 0307 	and.w	r3, r3, #7
 8001508:	60fb      	str	r3, [r7, #12]
    if (!IS_TIM_SLAVEMODE_TRIGGER_ENABLED(tmpsmcr))
 800150a:	68fb      	ldr	r3, [r7, #12]
 800150c:	2b06      	cmp	r3, #6
 800150e:	d010      	beq.n	8001532 <HAL_TIM_PWM_Start+0x12e>
    {
      __HAL_TIM_ENABLE(htim);
 8001510:	687b      	ldr	r3, [r7, #4]
 8001512:	681b      	ldr	r3, [r3, #0]
 8001514:	681a      	ldr	r2, [r3, #0]
 8001516:	687b      	ldr	r3, [r7, #4]
 8001518:	681b      	ldr	r3, [r3, #0]
 800151a:	f042 0201 	orr.w	r2, r2, #1
 800151e:	601a      	str	r2, [r3, #0]
    if (!IS_TIM_SLAVEMODE_TRIGGER_ENABLED(tmpsmcr))
 8001520:	e007      	b.n	8001532 <HAL_TIM_PWM_Start+0x12e>
    }
  }
  else
  {
    __HAL_TIM_ENABLE(htim);
 8001522:	687b      	ldr	r3, [r7, #4]
 8001524:	681b      	ldr	r3, [r3, #0]
 8001526:	681a      	ldr	r2, [r3, #0]
 8001528:	687b      	ldr	r3, [r7, #4]
 800152a:	681b      	ldr	r3, [r3, #0]
 800152c:	f042 0201 	orr.w	r2, r2, #1
 8001530:	601a      	str	r2, [r3, #0]
  }

  /* Return function status */
  return HAL_OK;
 8001532:	2300      	movs	r3, #0
}
 8001534:	4618      	mov	r0, r3
 8001536:	3710      	adds	r7, #16
 8001538:	46bd      	mov	sp, r7
 800153a:	bd80      	pop	{r7, pc}
 800153c:	40012c00 	.word	0x40012c00
 8001540:	40000400 	.word	0x40000400
 8001544:	40000800 	.word	0x40000800

08001548 <HAL_TIM_PWM_ConfigChannel>:
  * @retval HAL status
  */
HAL_StatusTypeDef HAL_TIM_PWM_ConfigChannel(TIM_HandleTypeDef *htim,
                                            const TIM_OC_InitTypeDef *sConfig,
                                            uint32_t Channel)
{
 8001548:	b580      	push	{r7, lr}
 800154a:	b086      	sub	sp, #24
 800154c:	af00      	add	r7, sp, #0
 800154e:	60f8      	str	r0, [r7, #12]
 8001550:	60b9      	str	r1, [r7, #8]
 8001552:	607a      	str	r2, [r7, #4]
  HAL_StatusTypeDef status = HAL_OK;
 8001554:	2300      	movs	r3, #0
 8001556:	75fb      	strb	r3, [r7, #23]
  assert_param(IS_TIM_PWM_MODE(sConfig->OCMode));
  assert_param(IS_TIM_OC_POLARITY(sConfig->OCPolarity));
  assert_param(IS_TIM_FAST_STATE(sConfig->OCFastMode));

  /* Process Locked */
  __HAL_LOCK(htim);
 8001558:	68fb      	ldr	r3, [r7, #12]
 800155a:	f893 303c 	ldrb.w	r3, [r3, #60]	; 0x3c
 800155e:	2b01      	cmp	r3, #1
 8001560:	d101      	bne.n	8001566 <HAL_TIM_PWM_ConfigChannel+0x1e>
 8001562:	2302      	movs	r3, #2
 8001564:	e0ae      	b.n	80016c4 <HAL_TIM_PWM_ConfigChannel+0x17c>
 8001566:	68fb      	ldr	r3, [r7, #12]
 8001568:	2201      	movs	r2, #1
 800156a:	f883 203c 	strb.w	r2, [r3, #60]	; 0x3c

  switch (Channel)
 800156e:	687b      	ldr	r3, [r7, #4]
 8001570:	2b0c      	cmp	r3, #12
 8001572:	f200 809f 	bhi.w	80016b4 <HAL_TIM_PWM_ConfigChannel+0x16c>
 8001576:	a201      	add	r2, pc, #4	; (adr r2, 800157c <HAL_TIM_PWM_ConfigChannel+0x34>)
 8001578:	f852 f023 	ldr.w	pc, [r2, r3, lsl #2]
 800157c:	080015b1 	.word	0x080015b1
 8001580:	080016b5 	.word	0x080016b5
 8001584:	080016b5 	.word	0x080016b5
 8001588:	080016b5 	.word	0x080016b5
 800158c:	080015f1 	.word	0x080015f1
 8001590:	080016b5 	.word	0x080016b5
 8001594:	080016b5 	.word	0x080016b5
 8001598:	080016b5 	.word	0x080016b5
 800159c:	08001633 	.word	0x08001633
 80015a0:	080016b5 	.word	0x080016b5
 80015a4:	080016b5 	.word	0x080016b5
 80015a8:	080016b5 	.word	0x080016b5
 80015ac:	08001673 	.word	0x08001673
    {
      /* Check the parameters */
      assert_param(IS_TIM_CC1_INSTANCE(htim->Instance));

      /* Configure the Channel 1 in PWM mode */
      TIM_OC1_SetConfig(htim->Instance, sConfig);
 80015b0:	68fb      	ldr	r3, [r7, #12]
 80015b2:	681b      	ldr	r3, [r3, #0]
 80015b4:	68b9      	ldr	r1, [r7, #8]
 80015b6:	4618      	mov	r0, r3
 80015b8:	f000 f8ea 	bl	8001790 <TIM_OC1_SetConfig>

      /* Set the Preload enable bit for channel1 */
      htim->Instance->CCMR1 |= TIM_CCMR1_OC1PE;
 80015bc:	68fb      	ldr	r3, [r7, #12]
 80015be:	681b      	ldr	r3, [r3, #0]
 80015c0:	699a      	ldr	r2, [r3, #24]
 80015c2:	68fb      	ldr	r3, [r7, #12]
 80015c4:	681b      	ldr	r3, [r3, #0]
 80015c6:	f042 0208 	orr.w	r2, r2, #8
 80015ca:	619a      	str	r2, [r3, #24]

      /* Configure the Output Fast mode */
      htim->Instance->CCMR1 &= ~TIM_CCMR1_OC1FE;
 80015cc:	68fb      	ldr	r3, [r7, #12]
 80015ce:	681b      	ldr	r3, [r3, #0]
 80015d0:	699a      	ldr	r2, [r3, #24]
 80015d2:	68fb      	ldr	r3, [r7, #12]
 80015d4:	681b      	ldr	r3, [r3, #0]
 80015d6:	f022 0204 	bic.w	r2, r2, #4
 80015da:	619a      	str	r2, [r3, #24]
      htim->Instance->CCMR1 |= sConfig->OCFastMode;
 80015dc:	68fb      	ldr	r3, [r7, #12]
 80015de:	681b      	ldr	r3, [r3, #0]
 80015e0:	6999      	ldr	r1, [r3, #24]
 80015e2:	68bb      	ldr	r3, [r7, #8]
 80015e4:	691a      	ldr	r2, [r3, #16]
 80015e6:	68fb      	ldr	r3, [r7, #12]
 80015e8:	681b      	ldr	r3, [r3, #0]
 80015ea:	430a      	orrs	r2, r1
 80015ec:	619a      	str	r2, [r3, #24]
      break;
 80015ee:	e064      	b.n	80016ba <HAL_TIM_PWM_ConfigChannel+0x172>
    {
      /* Check the parameters */
      assert_param(IS_TIM_CC2_INSTANCE(htim->Instance));

      /* Configure the Channel 2 in PWM mode */
      TIM_OC2_SetConfig(htim->Instance, sConfig);
 80015f0:	68fb      	ldr	r3, [r7, #12]
 80015f2:	681b      	ldr	r3, [r3, #0]
 80015f4:	68b9      	ldr	r1, [r7, #8]
 80015f6:	4618      	mov	r0, r3
 80015f8:	f000 f930 	bl	800185c <TIM_OC2_SetConfig>

      /* Set the Preload enable bit for channel2 */
      htim->Instance->CCMR1 |= TIM_CCMR1_OC2PE;
 80015fc:	68fb      	ldr	r3, [r7, #12]
 80015fe:	681b      	ldr	r3, [r3, #0]
 8001600:	699a      	ldr	r2, [r3, #24]
 8001602:	68fb      	ldr	r3, [r7, #12]
 8001604:	681b      	ldr	r3, [r3, #0]
 8001606:	f442 6200 	orr.w	r2, r2, #2048	; 0x800
 800160a:	619a      	str	r2, [r3, #24]

      /* Configure the Output Fast mode */
      htim->Instance->CCMR1 &= ~TIM_CCMR1_OC2FE;
 800160c:	68fb      	ldr	r3, [r7, #12]
 800160e:	681b      	ldr	r3, [r3, #0]
 8001610:	699a      	ldr	r2, [r3, #24]
 8001612:	68fb      	ldr	r3, [r7, #12]
 8001614:	681b      	ldr	r3, [r3, #0]
 8001616:	f422 6280 	bic.w	r2, r2, #1024	; 0x400
 800161a:	619a      	str	r2, [r3, #24]
      htim->Instance->CCMR1 |= sConfig->OCFastMode << 8U;
 800161c:	68fb      	ldr	r3, [r7, #12]
 800161e:	681b      	ldr	r3, [r3, #0]
 8001620:	6999      	ldr	r1, [r3, #24]
 8001622:	68bb      	ldr	r3, [r7, #8]
 8001624:	691b      	ldr	r3, [r3, #16]
 8001626:	021a      	lsls	r2, r3, #8
 8001628:	68fb      	ldr	r3, [r7, #12]
 800162a:	681b      	ldr	r3, [r3, #0]
 800162c:	430a      	orrs	r2, r1
 800162e:	619a      	str	r2, [r3, #24]
      break;
 8001630:	e043      	b.n	80016ba <HAL_TIM_PWM_ConfigChannel+0x172>
    {
      /* Check the parameters */
      assert_param(IS_TIM_CC3_INSTANCE(htim->Instance));

      /* Configure the Channel 3 in PWM mode */
      TIM_OC3_SetConfig(htim->Instance, sConfig);
 8001632:	68fb      	ldr	r3, [r7, #12]
 8001634:	681b      	ldr	r3, [r3, #0]
 8001636:	68b9      	ldr	r1, [r7, #8]
 8001638:	4618      	mov	r0, r3
 800163a:	f000 f979 	bl	8001930 <TIM_OC3_SetConfig>

      /* Set the Preload enable bit for channel3 */
      htim->Instance->CCMR2 |= TIM_CCMR2_OC3PE;
 800163e:	68fb      	ldr	r3, [r7, #12]
 8001640:	681b      	ldr	r3, [r3, #0]
 8001642:	69da      	ldr	r2, [r3, #28]
 8001644:	68fb      	ldr	r3, [r7, #12]
 8001646:	681b      	ldr	r3, [r3, #0]
 8001648:	f042 0208 	orr.w	r2, r2, #8
 800164c:	61da      	str	r2, [r3, #28]

      /* Configure the Output Fast mode */
      htim->Instance->CCMR2 &= ~TIM_CCMR2_OC3FE;
 800164e:	68fb      	ldr	r3, [r7, #12]
 8001650:	681b      	ldr	r3, [r3, #0]
 8001652:	69da      	ldr	r2, [r3, #28]
 8001654:	68fb      	ldr	r3, [r7, #12]
 8001656:	681b      	ldr	r3, [r3, #0]
 8001658:	f022 0204 	bic.w	r2, r2, #4
 800165c:	61da      	str	r2, [r3, #28]
      htim->Instance->CCMR2 |= sConfig->OCFastMode;
 800165e:	68fb      	ldr	r3, [r7, #12]
 8001660:	681b      	ldr	r3, [r3, #0]
 8001662:	69d9      	ldr	r1, [r3, #28]
 8001664:	68bb      	ldr	r3, [r7, #8]
 8001666:	691a      	ldr	r2, [r3, #16]
 8001668:	68fb      	ldr	r3, [r7, #12]
 800166a:	681b      	ldr	r3, [r3, #0]
 800166c:	430a      	orrs	r2, r1
 800166e:	61da      	str	r2, [r3, #28]
      break;
 8001670:	e023      	b.n	80016ba <HAL_TIM_PWM_ConfigChannel+0x172>
    {
      /* Check the parameters */
      assert_param(IS_TIM_CC4_INSTANCE(htim->Instance));

      /* Configure the Channel 4 in PWM mode */
      TIM_OC4_SetConfig(htim->Instance, sConfig);
 8001672:	68fb      	ldr	r3, [r7, #12]
 8001674:	681b      	ldr	r3, [r3, #0]
 8001676:	68b9      	ldr	r1, [r7, #8]
 8001678:	4618      	mov	r0, r3
 800167a:	f000 f9c3 	bl	8001a04 <TIM_OC4_SetConfig>

      /* Set the Preload enable bit for channel4 */
      htim->Instance->CCMR2 |= TIM_CCMR2_OC4PE;
 800167e:	68fb      	ldr	r3, [r7, #12]
 8001680:	681b      	ldr	r3, [r3, #0]
 8001682:	69da      	ldr	r2, [r3, #28]
 8001684:	68fb      	ldr	r3, [r7, #12]
 8001686:	681b      	ldr	r3, [r3, #0]
 8001688:	f442 6200 	orr.w	r2, r2, #2048	; 0x800
 800168c:	61da      	str	r2, [r3, #28]

      /* Configure the Output Fast mode */
      htim->Instance->CCMR2 &= ~TIM_CCMR2_OC4FE;
 800168e:	68fb      	ldr	r3, [r7, #12]
 8001690:	681b      	ldr	r3, [r3, #0]
 8001692:	69da      	ldr	r2, [r3, #28]
 8001694:	68fb      	ldr	r3, [r7, #12]
 8001696:	681b      	ldr	r3, [r3, #0]
 8001698:	f422 6280 	bic.w	r2, r2, #1024	; 0x400
 800169c:	61da      	str	r2, [r3, #28]
      htim->Instance->CCMR2 |= sConfig->OCFastMode << 8U;
 800169e:	68fb      	ldr	r3, [r7, #12]
 80016a0:	681b      	ldr	r3, [r3, #0]
 80016a2:	69d9      	ldr	r1, [r3, #28]
 80016a4:	68bb      	ldr	r3, [r7, #8]
 80016a6:	691b      	ldr	r3, [r3, #16]
 80016a8:	021a      	lsls	r2, r3, #8
 80016aa:	68fb      	ldr	r3, [r7, #12]
 80016ac:	681b      	ldr	r3, [r3, #0]
 80016ae:	430a      	orrs	r2, r1
 80016b0:	61da      	str	r2, [r3, #28]
      break;
 80016b2:	e002      	b.n	80016ba <HAL_TIM_PWM_ConfigChannel+0x172>
    }

    default:
      status = HAL_ERROR;
 80016b4:	2301      	movs	r3, #1
 80016b6:	75fb      	strb	r3, [r7, #23]
      break;
 80016b8:	bf00      	nop
  }

  __HAL_UNLOCK(htim);
 80016ba:	68fb      	ldr	r3, [r7, #12]
 80016bc:	2200      	movs	r2, #0
 80016be:	f883 203c 	strb.w	r2, [r3, #60]	; 0x3c

  return status;
 80016c2:	7dfb      	ldrb	r3, [r7, #23]
}
 80016c4:	4618      	mov	r0, r3
 80016c6:	3718      	adds	r7, #24
 80016c8:	46bd      	mov	sp, r7
 80016ca:	bd80      	pop	{r7, pc}

080016cc <TIM_Base_SetConfig>:
  * @param  TIMx TIM peripheral
  * @param  Structure TIM Base configuration structure
  * @retval None
  */
void TIM_Base_SetConfig(TIM_TypeDef *TIMx, const TIM_Base_InitTypeDef *Structure)
{
 80016cc:	b480      	push	{r7}
 80016ce:	b085      	sub	sp, #20
 80016d0:	af00      	add	r7, sp, #0
 80016d2:	6078      	str	r0, [r7, #4]
 80016d4:	6039      	str	r1, [r7, #0]
  uint32_t tmpcr1;
  tmpcr1 = TIMx->CR1;
 80016d6:	687b      	ldr	r3, [r7, #4]
 80016d8:	681b      	ldr	r3, [r3, #0]
 80016da:	60fb      	str	r3, [r7, #12]

  /* Set TIM Time Base Unit parameters ---------------------------------------*/
  if (IS_TIM_COUNTER_MODE_SELECT_INSTANCE(TIMx))
 80016dc:	687b      	ldr	r3, [r7, #4]
 80016de:	4a29      	ldr	r2, [pc, #164]	; (8001784 <TIM_Base_SetConfig+0xb8>)
 80016e0:	4293      	cmp	r3, r2
 80016e2:	d00b      	beq.n	80016fc <TIM_Base_SetConfig+0x30>
 80016e4:	687b      	ldr	r3, [r7, #4]
 80016e6:	f1b3 4f80 	cmp.w	r3, #1073741824	; 0x40000000
 80016ea:	d007      	beq.n	80016fc <TIM_Base_SetConfig+0x30>
 80016ec:	687b      	ldr	r3, [r7, #4]
 80016ee:	4a26      	ldr	r2, [pc, #152]	; (8001788 <TIM_Base_SetConfig+0xbc>)
 80016f0:	4293      	cmp	r3, r2
 80016f2:	d003      	beq.n	80016fc <TIM_Base_SetConfig+0x30>
 80016f4:	687b      	ldr	r3, [r7, #4]
 80016f6:	4a25      	ldr	r2, [pc, #148]	; (800178c <TIM_Base_SetConfig+0xc0>)
 80016f8:	4293      	cmp	r3, r2
 80016fa:	d108      	bne.n	800170e <TIM_Base_SetConfig+0x42>
  {
    /* Select the Counter Mode */
    tmpcr1 &= ~(TIM_CR1_DIR | TIM_CR1_CMS);
 80016fc:	68fb      	ldr	r3, [r7, #12]
 80016fe:	f023 0370 	bic.w	r3, r3, #112	; 0x70
 8001702:	60fb      	str	r3, [r7, #12]
    tmpcr1 |= Structure->CounterMode;
 8001704:	683b      	ldr	r3, [r7, #0]
 8001706:	685b      	ldr	r3, [r3, #4]
 8001708:	68fa      	ldr	r2, [r7, #12]
 800170a:	4313      	orrs	r3, r2
 800170c:	60fb      	str	r3, [r7, #12]
  }

  if (IS_TIM_CLOCK_DIVISION_INSTANCE(TIMx))
 800170e:	687b      	ldr	r3, [r7, #4]
 8001710:	4a1c      	ldr	r2, [pc, #112]	; (8001784 <TIM_Base_SetConfig+0xb8>)
 8001712:	4293      	cmp	r3, r2
 8001714:	d00b      	beq.n	800172e <TIM_Base_SetConfig+0x62>
 8001716:	687b      	ldr	r3, [r7, #4]
 8001718:	f1b3 4f80 	cmp.w	r3, #1073741824	; 0x40000000
 800171c:	d007      	beq.n	800172e <TIM_Base_SetConfig+0x62>
 800171e:	687b      	ldr	r3, [r7, #4]
 8001720:	4a19      	ldr	r2, [pc, #100]	; (8001788 <TIM_Base_SetConfig+0xbc>)
 8001722:	4293      	cmp	r3, r2
 8001724:	d003      	beq.n	800172e <TIM_Base_SetConfig+0x62>
 8001726:	687b      	ldr	r3, [r7, #4]
 8001728:	4a18      	ldr	r2, [pc, #96]	; (800178c <TIM_Base_SetConfig+0xc0>)
 800172a:	4293      	cmp	r3, r2
 800172c:	d108      	bne.n	8001740 <TIM_Base_SetConfig+0x74>
  {
    /* Set the clock division */
    tmpcr1 &= ~TIM_CR1_CKD;
 800172e:	68fb      	ldr	r3, [r7, #12]
 8001730:	f423 7340 	bic.w	r3, r3, #768	; 0x300
 8001734:	60fb      	str	r3, [r7, #12]
    tmpcr1 |= (uint32_t)Structure->ClockDivision;
 8001736:	683b      	ldr	r3, [r7, #0]
 8001738:	68db      	ldr	r3, [r3, #12]
 800173a:	68fa      	ldr	r2, [r7, #12]
 800173c:	4313      	orrs	r3, r2
 800173e:	60fb      	str	r3, [r7, #12]
  }

  /* Set the auto-reload preload */
  MODIFY_REG(tmpcr1, TIM_CR1_ARPE, Structure->AutoReloadPreload);
 8001740:	68fb      	ldr	r3, [r7, #12]
 8001742:	f023 0280 	bic.w	r2, r3, #128	; 0x80
 8001746:	683b      	ldr	r3, [r7, #0]
 8001748:	695b      	ldr	r3, [r3, #20]
 800174a:	4313      	orrs	r3, r2
 800174c:	60fb      	str	r3, [r7, #12]

  TIMx->CR1 = tmpcr1;
 800174e:	687b      	ldr	r3, [r7, #4]
 8001750:	68fa      	ldr	r2, [r7, #12]
 8001752:	601a      	str	r2, [r3, #0]

  /* Set the Autoreload value */
  TIMx->ARR = (uint32_t)Structure->Period ;
 8001754:	683b      	ldr	r3, [r7, #0]
 8001756:	689a      	ldr	r2, [r3, #8]
 8001758:	687b      	ldr	r3, [r7, #4]
 800175a:	62da      	str	r2, [r3, #44]	; 0x2c

  /* Set the Prescaler value */
  TIMx->PSC = Structure->Prescaler;
 800175c:	683b      	ldr	r3, [r7, #0]
 800175e:	681a      	ldr	r2, [r3, #0]
 8001760:	687b      	ldr	r3, [r7, #4]
 8001762:	629a      	str	r2, [r3, #40]	; 0x28

  if (IS_TIM_REPETITION_COUNTER_INSTANCE(TIMx))
 8001764:	687b      	ldr	r3, [r7, #4]
 8001766:	4a07      	ldr	r2, [pc, #28]	; (8001784 <TIM_Base_SetConfig+0xb8>)
 8001768:	4293      	cmp	r3, r2
 800176a:	d103      	bne.n	8001774 <TIM_Base_SetConfig+0xa8>
  {
    /* Set the Repetition Counter value */
    TIMx->RCR = Structure->RepetitionCounter;
 800176c:	683b      	ldr	r3, [r7, #0]
 800176e:	691a      	ldr	r2, [r3, #16]
 8001770:	687b      	ldr	r3, [r7, #4]
 8001772:	631a      	str	r2, [r3, #48]	; 0x30
  }

  /* Generate an update event to reload the Prescaler
     and the repetition counter (only for advanced timer) value immediately */
  TIMx->EGR = TIM_EGR_UG;
 8001774:	687b      	ldr	r3, [r7, #4]
 8001776:	2201      	movs	r2, #1
 8001778:	615a      	str	r2, [r3, #20]
}
 800177a:	bf00      	nop
 800177c:	3714      	adds	r7, #20
 800177e:	46bd      	mov	sp, r7
 8001780:	bc80      	pop	{r7}
 8001782:	4770      	bx	lr
 8001784:	40012c00 	.word	0x40012c00
 8001788:	40000400 	.word	0x40000400
 800178c:	40000800 	.word	0x40000800

08001790 <TIM_OC1_SetConfig>:
  * @param  TIMx to select the TIM peripheral
  * @param  OC_Config The output configuration structure
  * @retval None
  */
static void TIM_OC1_SetConfig(TIM_TypeDef *TIMx, const TIM_OC_InitTypeDef *OC_Config)
{
 8001790:	b480      	push	{r7}
 8001792:	b087      	sub	sp, #28
 8001794:	af00      	add	r7, sp, #0
 8001796:	6078      	str	r0, [r7, #4]
 8001798:	6039      	str	r1, [r7, #0]
  uint32_t tmpccmrx;
  uint32_t tmpccer;
  uint32_t tmpcr2;

  /* Get the TIMx CCER register value */
  tmpccer = TIMx->CCER;
 800179a:	687b      	ldr	r3, [r7, #4]
 800179c:	6a1b      	ldr	r3, [r3, #32]
 800179e:	617b      	str	r3, [r7, #20]

  /* Disable the Channel 1: Reset the CC1E Bit */
  TIMx->CCER &= ~TIM_CCER_CC1E;
 80017a0:	687b      	ldr	r3, [r7, #4]
 80017a2:	6a1b      	ldr	r3, [r3, #32]
 80017a4:	f023 0201 	bic.w	r2, r3, #1
 80017a8:	687b      	ldr	r3, [r7, #4]
 80017aa:	621a      	str	r2, [r3, #32]

  /* Get the TIMx CR2 register value */
  tmpcr2 =  TIMx->CR2;
 80017ac:	687b      	ldr	r3, [r7, #4]
 80017ae:	685b      	ldr	r3, [r3, #4]
 80017b0:	613b      	str	r3, [r7, #16]

  /* Get the TIMx CCMR1 register value */
  tmpccmrx = TIMx->CCMR1;
 80017b2:	687b      	ldr	r3, [r7, #4]
 80017b4:	699b      	ldr	r3, [r3, #24]
 80017b6:	60fb      	str	r3, [r7, #12]

  /* Reset the Output Compare Mode Bits */
  tmpccmrx &= ~TIM_CCMR1_OC1M;
 80017b8:	68fb      	ldr	r3, [r7, #12]
 80017ba:	f023 0370 	bic.w	r3, r3, #112	; 0x70
 80017be:	60fb      	str	r3, [r7, #12]
  tmpccmrx &= ~TIM_CCMR1_CC1S;
 80017c0:	68fb      	ldr	r3, [r7, #12]
 80017c2:	f023 0303 	bic.w	r3, r3, #3
 80017c6:	60fb      	str	r3, [r7, #12]
  /* Select the Output Compare Mode */
  tmpccmrx |= OC_Config->OCMode;
 80017c8:	683b      	ldr	r3, [r7, #0]
 80017ca:	681b      	ldr	r3, [r3, #0]
 80017cc:	68fa      	ldr	r2, [r7, #12]
 80017ce:	4313      	orrs	r3, r2
 80017d0:	60fb      	str	r3, [r7, #12]

  /* Reset the Output Polarity level */
  tmpccer &= ~TIM_CCER_CC1P;
 80017d2:	697b      	ldr	r3, [r7, #20]
 80017d4:	f023 0302 	bic.w	r3, r3, #2
 80017d8:	617b      	str	r3, [r7, #20]
  /* Set the Output Compare Polarity */
  tmpccer |= OC_Config->OCPolarity;
 80017da:	683b      	ldr	r3, [r7, #0]
 80017dc:	689b      	ldr	r3, [r3, #8]
 80017de:	697a      	ldr	r2, [r7, #20]
 80017e0:	4313      	orrs	r3, r2
 80017e2:	617b      	str	r3, [r7, #20]

  if (IS_TIM_CCXN_INSTANCE(TIMx, TIM_CHANNEL_1))
 80017e4:	687b      	ldr	r3, [r7, #4]
 80017e6:	4a1c      	ldr	r2, [pc, #112]	; (8001858 <TIM_OC1_SetConfig+0xc8>)
 80017e8:	4293      	cmp	r3, r2
 80017ea:	d10c      	bne.n	8001806 <TIM_OC1_SetConfig+0x76>
  {
    /* Check parameters */
    assert_param(IS_TIM_OCN_POLARITY(OC_Config->OCNPolarity));

    /* Reset the Output N Polarity level */
    tmpccer &= ~TIM_CCER_CC1NP;
 80017ec:	697b      	ldr	r3, [r7, #20]
 80017ee:	f023 0308 	bic.w	r3, r3, #8
 80017f2:	617b      	str	r3, [r7, #20]
    /* Set the Output N Polarity */
    tmpccer |= OC_Config->OCNPolarity;
 80017f4:	683b      	ldr	r3, [r7, #0]
 80017f6:	68db      	ldr	r3, [r3, #12]
 80017f8:	697a      	ldr	r2, [r7, #20]
 80017fa:	4313      	orrs	r3, r2
 80017fc:	617b      	str	r3, [r7, #20]
    /* Reset the Output N State */
    tmpccer &= ~TIM_CCER_CC1NE;
 80017fe:	697b      	ldr	r3, [r7, #20]
 8001800:	f023 0304 	bic.w	r3, r3, #4
 8001804:	617b      	str	r3, [r7, #20]
  }

  if (IS_TIM_BREAK_INSTANCE(TIMx))
 8001806:	687b      	ldr	r3, [r7, #4]
 8001808:	4a13      	ldr	r2, [pc, #76]	; (8001858 <TIM_OC1_SetConfig+0xc8>)
 800180a:	4293      	cmp	r3, r2
 800180c:	d111      	bne.n	8001832 <TIM_OC1_SetConfig+0xa2>
    /* Check parameters */
    assert_param(IS_TIM_OCNIDLE_STATE(OC_Config->OCNIdleState));
    assert_param(IS_TIM_OCIDLE_STATE(OC_Config->OCIdleState));

    /* Reset the Output Compare and Output Compare N IDLE State */
    tmpcr2 &= ~TIM_CR2_OIS1;
 800180e:	693b      	ldr	r3, [r7, #16]
 8001810:	f423 7380 	bic.w	r3, r3, #256	; 0x100
 8001814:	613b      	str	r3, [r7, #16]
    tmpcr2 &= ~TIM_CR2_OIS1N;
 8001816:	693b      	ldr	r3, [r7, #16]
 8001818:	f423 7300 	bic.w	r3, r3, #512	; 0x200
 800181c:	613b      	str	r3, [r7, #16]
    /* Set the Output Idle state */
    tmpcr2 |= OC_Config->OCIdleState;
 800181e:	683b      	ldr	r3, [r7, #0]
 8001820:	695b      	ldr	r3, [r3, #20]
 8001822:	693a      	ldr	r2, [r7, #16]
 8001824:	4313      	orrs	r3, r2
 8001826:	613b      	str	r3, [r7, #16]
    /* Set the Output N Idle state */
    tmpcr2 |= OC_Config->OCNIdleState;
 8001828:	683b      	ldr	r3, [r7, #0]
 800182a:	699b      	ldr	r3, [r3, #24]
 800182c:	693a      	ldr	r2, [r7, #16]
 800182e:	4313      	orrs	r3, r2
 8001830:	613b      	str	r3, [r7, #16]
  }

  /* Write to TIMx CR2 */
  TIMx->CR2 = tmpcr2;
 8001832:	687b      	ldr	r3, [r7, #4]
 8001834:	693a      	ldr	r2, [r7, #16]
 8001836:	605a      	str	r2, [r3, #4]

  /* Write to TIMx CCMR1 */
  TIMx->CCMR1 = tmpccmrx;
 8001838:	687b      	ldr	r3, [r7, #4]
 800183a:	68fa      	ldr	r2, [r7, #12]
 800183c:	619a      	str	r2, [r3, #24]

  /* Set the Capture Compare Register value */
  TIMx->CCR1 = OC_Config->Pulse;
 800183e:	683b      	ldr	r3, [r7, #0]
 8001840:	685a      	ldr	r2, [r3, #4]
 8001842:	687b      	ldr	r3, [r7, #4]
 8001844:	635a      	str	r2, [r3, #52]	; 0x34

  /* Write to TIMx CCER */
  TIMx->CCER = tmpccer;
 8001846:	687b      	ldr	r3, [r7, #4]
 8001848:	697a      	ldr	r2, [r7, #20]
 800184a:	621a      	str	r2, [r3, #32]
}
 800184c:	bf00      	nop
 800184e:	371c      	adds	r7, #28
 8001850:	46bd      	mov	sp, r7
 8001852:	bc80      	pop	{r7}
 8001854:	4770      	bx	lr
 8001856:	bf00      	nop
 8001858:	40012c00 	.word	0x40012c00

0800185c <TIM_OC2_SetConfig>:
  * @param  TIMx to select the TIM peripheral
  * @param  OC_Config The output configuration structure
  * @retval None
  */
void TIM_OC2_SetConfig(TIM_TypeDef *TIMx, const TIM_OC_InitTypeDef *OC_Config)
{
 800185c:	b480      	push	{r7}
 800185e:	b087      	sub	sp, #28
 8001860:	af00      	add	r7, sp, #0
 8001862:	6078      	str	r0, [r7, #4]
 8001864:	6039      	str	r1, [r7, #0]
  uint32_t tmpccmrx;
  uint32_t tmpccer;
  uint32_t tmpcr2;

  /* Get the TIMx CCER register value */
  tmpccer = TIMx->CCER;
 8001866:	687b      	ldr	r3, [r7, #4]
 8001868:	6a1b      	ldr	r3, [r3, #32]
 800186a:	617b      	str	r3, [r7, #20]

  /* Disable the Channel 2: Reset the CC2E Bit */
  TIMx->CCER &= ~TIM_CCER_CC2E;
 800186c:	687b      	ldr	r3, [r7, #4]
 800186e:	6a1b      	ldr	r3, [r3, #32]
 8001870:	f023 0210 	bic.w	r2, r3, #16
 8001874:	687b      	ldr	r3, [r7, #4]
 8001876:	621a      	str	r2, [r3, #32]

  /* Get the TIMx CR2 register value */
  tmpcr2 =  TIMx->CR2;
 8001878:	687b      	ldr	r3, [r7, #4]
 800187a:	685b      	ldr	r3, [r3, #4]
 800187c:	613b      	str	r3, [r7, #16]

  /* Get the TIMx CCMR1 register value */
  tmpccmrx = TIMx->CCMR1;
 800187e:	687b      	ldr	r3, [r7, #4]
 8001880:	699b      	ldr	r3, [r3, #24]
 8001882:	60fb      	str	r3, [r7, #12]

  /* Reset the Output Compare mode and Capture/Compare selection Bits */
  tmpccmrx &= ~TIM_CCMR1_OC2M;
 8001884:	68fb      	ldr	r3, [r7, #12]
 8001886:	f423 43e0 	bic.w	r3, r3, #28672	; 0x7000
 800188a:	60fb      	str	r3, [r7, #12]
  tmpccmrx &= ~TIM_CCMR1_CC2S;
 800188c:	68fb      	ldr	r3, [r7, #12]
 800188e:	f423 7340 	bic.w	r3, r3, #768	; 0x300
 8001892:	60fb      	str	r3, [r7, #12]

  /* Select the Output Compare Mode */
  tmpccmrx |= (OC_Config->OCMode << 8U);
 8001894:	683b      	ldr	r3, [r7, #0]
 8001896:	681b      	ldr	r3, [r3, #0]
 8001898:	021b      	lsls	r3, r3, #8
 800189a:	68fa      	ldr	r2, [r7, #12]
 800189c:	4313      	orrs	r3, r2
 800189e:	60fb      	str	r3, [r7, #12]

  /* Reset the Output Polarity level */
  tmpccer &= ~TIM_CCER_CC2P;
 80018a0:	697b      	ldr	r3, [r7, #20]
 80018a2:	f023 0320 	bic.w	r3, r3, #32
 80018a6:	617b      	str	r3, [r7, #20]
  /* Set the Output Compare Polarity */
  tmpccer |= (OC_Config->OCPolarity << 4U);
 80018a8:	683b      	ldr	r3, [r7, #0]
 80018aa:	689b      	ldr	r3, [r3, #8]
 80018ac:	011b      	lsls	r3, r3, #4
 80018ae:	697a      	ldr	r2, [r7, #20]
 80018b0:	4313      	orrs	r3, r2
 80018b2:	617b      	str	r3, [r7, #20]

  if (IS_TIM_CCXN_INSTANCE(TIMx, TIM_CHANNEL_2))
 80018b4:	687b      	ldr	r3, [r7, #4]
 80018b6:	4a1d      	ldr	r2, [pc, #116]	; (800192c <TIM_OC2_SetConfig+0xd0>)
 80018b8:	4293      	cmp	r3, r2
 80018ba:	d10d      	bne.n	80018d8 <TIM_OC2_SetConfig+0x7c>
  {
    assert_param(IS_TIM_OCN_POLARITY(OC_Config->OCNPolarity));

    /* Reset the Output N Polarity level */
    tmpccer &= ~TIM_CCER_CC2NP;
 80018bc:	697b      	ldr	r3, [r7, #20]
 80018be:	f023 0380 	bic.w	r3, r3, #128	; 0x80
 80018c2:	617b      	str	r3, [r7, #20]
    /* Set the Output N Polarity */
    tmpccer |= (OC_Config->OCNPolarity << 4U);
 80018c4:	683b      	ldr	r3, [r7, #0]
 80018c6:	68db      	ldr	r3, [r3, #12]
 80018c8:	011b      	lsls	r3, r3, #4
 80018ca:	697a      	ldr	r2, [r7, #20]
 80018cc:	4313      	orrs	r3, r2
 80018ce:	617b      	str	r3, [r7, #20]
    /* Reset the Output N State */
    tmpccer &= ~TIM_CCER_CC2NE;
 80018d0:	697b      	ldr	r3, [r7, #20]
 80018d2:	f023 0340 	bic.w	r3, r3, #64	; 0x40
 80018d6:	617b      	str	r3, [r7, #20]

  }

  if (IS_TIM_BREAK_INSTANCE(TIMx))
 80018d8:	687b      	ldr	r3, [r7, #4]
 80018da:	4a14      	ldr	r2, [pc, #80]	; (800192c <TIM_OC2_SetConfig+0xd0>)
 80018dc:	4293      	cmp	r3, r2
 80018de:	d113      	bne.n	8001908 <TIM_OC2_SetConfig+0xac>
    /* Check parameters */
    assert_param(IS_TIM_OCNIDLE_STATE(OC_Config->OCNIdleState));
    assert_param(IS_TIM_OCIDLE_STATE(OC_Config->OCIdleState));

    /* Reset the Output Compare and Output Compare N IDLE State */
    tmpcr2 &= ~TIM_CR2_OIS2;
 80018e0:	693b      	ldr	r3, [r7, #16]
 80018e2:	f423 6380 	bic.w	r3, r3, #1024	; 0x400
 80018e6:	613b      	str	r3, [r7, #16]
    tmpcr2 &= ~TIM_CR2_OIS2N;
 80018e8:	693b      	ldr	r3, [r7, #16]
 80018ea:	f423 6300 	bic.w	r3, r3, #2048	; 0x800
 80018ee:	613b      	str	r3, [r7, #16]
    /* Set the Output Idle state */
    tmpcr2 |= (OC_Config->OCIdleState << 2U);
 80018f0:	683b      	ldr	r3, [r7, #0]
 80018f2:	695b      	ldr	r3, [r3, #20]
 80018f4:	009b      	lsls	r3, r3, #2
 80018f6:	693a      	ldr	r2, [r7, #16]
 80018f8:	4313      	orrs	r3, r2
 80018fa:	613b      	str	r3, [r7, #16]
    /* Set the Output N Idle state */
    tmpcr2 |= (OC_Config->OCNIdleState << 2U);
 80018fc:	683b      	ldr	r3, [r7, #0]
 80018fe:	699b      	ldr	r3, [r3, #24]
 8001900:	009b      	lsls	r3, r3, #2
 8001902:	693a      	ldr	r2, [r7, #16]
 8001904:	4313      	orrs	r3, r2
 8001906:	613b      	str	r3, [r7, #16]
  }

  /* Write to TIMx CR2 */
  TIMx->CR2 = tmpcr2;
 8001908:	687b      	ldr	r3, [r7, #4]
 800190a:	693a      	ldr	r2, [r7, #16]
 800190c:	605a      	str	r2, [r3, #4]

  /* Write to TIMx CCMR1 */
  TIMx->CCMR1 = tmpccmrx;
 800190e:	687b      	ldr	r3, [r7, #4]
 8001910:	68fa      	ldr	r2, [r7, #12]
 8001912:	619a      	str	r2, [r3, #24]

  /* Set the Capture Compare Register value */
  TIMx->CCR2 = OC_Config->Pulse;
 8001914:	683b      	ldr	r3, [r7, #0]
 8001916:	685a      	ldr	r2, [r3, #4]
 8001918:	687b      	ldr	r3, [r7, #4]
 800191a:	639a      	str	r2, [r3, #56]	; 0x38

  /* Write to TIMx CCER */
  TIMx->CCER = tmpccer;
 800191c:	687b      	ldr	r3, [r7, #4]
 800191e:	697a      	ldr	r2, [r7, #20]
 8001920:	621a      	str	r2, [r3, #32]
}
 8001922:	bf00      	nop
 8001924:	371c      	adds	r7, #28
 8001926:	46bd      	mov	sp, r7
 8001928:	bc80      	pop	{r7}
 800192a:	4770      	bx	lr
 800192c:	40012c00 	.word	0x40012c00

08001930 <TIM_OC3_SetConfig>:
  * @param  TIMx to select the TIM peripheral
  * @param  OC_Config The output configuration structure
  * @retval None
  */
static void TIM_OC3_SetConfig(TIM_TypeDef *TIMx, const TIM_OC_InitTypeDef *OC_Config)
{
 8001930:	b480      	push	{r7}
 8001932:	b087      	sub	sp, #28
 8001934:	af00      	add	r7, sp, #0
 8001936:	6078      	str	r0, [r7, #4]
 8001938:	6039      	str	r1, [r7, #0]
  uint32_t tmpccmrx;
  uint32_t tmpccer;
  uint32_t tmpcr2;

  /* Get the TIMx CCER register value */
  tmpccer = TIMx->CCER;
 800193a:	687b      	ldr	r3, [r7, #4]
 800193c:	6a1b      	ldr	r3, [r3, #32]
 800193e:	617b      	str	r3, [r7, #20]

  /* Disable the Channel 3: Reset the CC2E Bit */
  TIMx->CCER &= ~TIM_CCER_CC3E;
 8001940:	687b      	ldr	r3, [r7, #4]
 8001942:	6a1b      	ldr	r3, [r3, #32]
 8001944:	f423 7280 	bic.w	r2, r3, #256	; 0x100
 8001948:	687b      	ldr	r3, [r7, #4]
 800194a:	621a      	str	r2, [r3, #32]

  /* Get the TIMx CR2 register value */
  tmpcr2 =  TIMx->CR2;
 800194c:	687b      	ldr	r3, [r7, #4]
 800194e:	685b      	ldr	r3, [r3, #4]
 8001950:	613b      	str	r3, [r7, #16]

  /* Get the TIMx CCMR2 register value */
  tmpccmrx = TIMx->CCMR2;
 8001952:	687b      	ldr	r3, [r7, #4]
 8001954:	69db      	ldr	r3, [r3, #28]
 8001956:	60fb      	str	r3, [r7, #12]

  /* Reset the Output Compare mode and Capture/Compare selection Bits */
  tmpccmrx &= ~TIM_CCMR2_OC3M;
 8001958:	68fb      	ldr	r3, [r7, #12]
 800195a:	f023 0370 	bic.w	r3, r3, #112	; 0x70
 800195e:	60fb      	str	r3, [r7, #12]
  tmpccmrx &= ~TIM_CCMR2_CC3S;
 8001960:	68fb      	ldr	r3, [r7, #12]
 8001962:	f023 0303 	bic.w	r3, r3, #3
 8001966:	60fb      	str	r3, [r7, #12]
  /* Select the Output Compare Mode */
  tmpccmrx |= OC_Config->OCMode;
 8001968:	683b      	ldr	r3, [r7, #0]
 800196a:	681b      	ldr	r3, [r3, #0]
 800196c:	68fa      	ldr	r2, [r7, #12]
 800196e:	4313      	orrs	r3, r2
 8001970:	60fb      	str	r3, [r7, #12]

  /* Reset the Output Polarity level */
  tmpccer &= ~TIM_CCER_CC3P;
 8001972:	697b      	ldr	r3, [r7, #20]
 8001974:	f423 7300 	bic.w	r3, r3, #512	; 0x200
 8001978:	617b      	str	r3, [r7, #20]
  /* Set the Output Compare Polarity */
  tmpccer |= (OC_Config->OCPolarity << 8U);
 800197a:	683b      	ldr	r3, [r7, #0]
 800197c:	689b      	ldr	r3, [r3, #8]
 800197e:	021b      	lsls	r3, r3, #8
 8001980:	697a      	ldr	r2, [r7, #20]
 8001982:	4313      	orrs	r3, r2
 8001984:	617b      	str	r3, [r7, #20]

  if (IS_TIM_CCXN_INSTANCE(TIMx, TIM_CHANNEL_3))
 8001986:	687b      	ldr	r3, [r7, #4]
 8001988:	4a1d      	ldr	r2, [pc, #116]	; (8001a00 <TIM_OC3_SetConfig+0xd0>)
 800198a:	4293      	cmp	r3, r2
 800198c:	d10d      	bne.n	80019aa <TIM_OC3_SetConfig+0x7a>
  {
    assert_param(IS_TIM_OCN_POLARITY(OC_Config->OCNPolarity));

    /* Reset the Output N Polarity level */
    tmpccer &= ~TIM_CCER_CC3NP;
 800198e:	697b      	ldr	r3, [r7, #20]
 8001990:	f423 6300 	bic.w	r3, r3, #2048	; 0x800
 8001994:	617b      	str	r3, [r7, #20]
    /* Set the Output N Polarity */
    tmpccer |= (OC_Config->OCNPolarity << 8U);
 8001996:	683b      	ldr	r3, [r7, #0]
 8001998:	68db      	ldr	r3, [r3, #12]
 800199a:	021b      	lsls	r3, r3, #8
 800199c:	697a      	ldr	r2, [r7, #20]
 800199e:	4313      	orrs	r3, r2
 80019a0:	617b      	str	r3, [r7, #20]
    /* Reset the Output N State */
    tmpccer &= ~TIM_CCER_CC3NE;
 80019a2:	697b      	ldr	r3, [r7, #20]
 80019a4:	f423 6380 	bic.w	r3, r3, #1024	; 0x400
 80019a8:	617b      	str	r3, [r7, #20]
  }

  if (IS_TIM_BREAK_INSTANCE(TIMx))
 80019aa:	687b      	ldr	r3, [r7, #4]
 80019ac:	4a14      	ldr	r2, [pc, #80]	; (8001a00 <TIM_OC3_SetConfig+0xd0>)
 80019ae:	4293      	cmp	r3, r2
 80019b0:	d113      	bne.n	80019da <TIM_OC3_SetConfig+0xaa>
    /* Check parameters */
    assert_param(IS_TIM_OCNIDLE_STATE(OC_Config->OCNIdleState));
    assert_param(IS_TIM_OCIDLE_STATE(OC_Config->OCIdleState));

    /* Reset the Output Compare and Output Compare N IDLE State */
    tmpcr2 &= ~TIM_CR2_OIS3;
 80019b2:	693b      	ldr	r3, [r7, #16]
 80019b4:	f423 5380 	bic.w	r3, r3, #4096	; 0x1000
 80019b8:	613b      	str	r3, [r7, #16]
    tmpcr2 &= ~TIM_CR2_OIS3N;
 80019ba:	693b      	ldr	r3, [r7, #16]
 80019bc:	f423 5300 	bic.w	r3, r3, #8192	; 0x2000
 80019c0:	613b      	str	r3, [r7, #16]
    /* Set the Output Idle state */
    tmpcr2 |= (OC_Config->OCIdleState << 4U);
 80019c2:	683b      	ldr	r3, [r7, #0]
 80019c4:	695b      	ldr	r3, [r3, #20]
 80019c6:	011b      	lsls	r3, r3, #4
 80019c8:	693a      	ldr	r2, [r7, #16]
 80019ca:	4313      	orrs	r3, r2
 80019cc:	613b      	str	r3, [r7, #16]
    /* Set the Output N Idle state */
    tmpcr2 |= (OC_Config->OCNIdleState << 4U);
 80019ce:	683b      	ldr	r3, [r7, #0]
 80019d0:	699b      	ldr	r3, [r3, #24]
 80019d2:	011b      	lsls	r3, r3, #4
 80019d4:	693a      	ldr	r2, [r7, #16]
 80019d6:	4313      	orrs	r3, r2
 80019d8:	613b      	str	r3, [r7, #16]
  }

  /* Write to TIMx CR2 */
  TIMx->CR2 = tmpcr2;
 80019da:	687b      	ldr	r3, [r7, #4]
 80019dc:	693a      	ldr	r2, [r7, #16]
 80019de:	605a      	str	r2, [r3, #4]

  /* Write to TIMx CCMR2 */
  TIMx->CCMR2 = tmpccmrx;
 80019e0:	687b      	ldr	r3, [r7, #4]
 80019e2:	68fa      	ldr	r2, [r7, #12]
 80019e4:	61da      	str	r2, [r3, #28]

  /* Set the Capture Compare Register value */
  TIMx->CCR3 = OC_Config->Pulse;
 80019e6:	683b      	ldr	r3, [r7, #0]
 80019e8:	685a      	ldr	r2, [r3, #4]
 80019ea:	687b      	ldr	r3, [r7, #4]
 80019ec:	63da      	str	r2, [r3, #60]	; 0x3c

  /* Write to TIMx CCER */
  TIMx->CCER = tmpccer;
 80019ee:	687b      	ldr	r3, [r7, #4]
 80019f0:	697a      	ldr	r2, [r7, #20]
 80019f2:	621a      	str	r2, [r3, #32]
}
 80019f4:	bf00      	nop
 80019f6:	371c      	adds	r7, #28
 80019f8:	46bd      	mov	sp, r7
 80019fa:	bc80      	pop	{r7}
 80019fc:	4770      	bx	lr
 80019fe:	bf00      	nop
 8001a00:	40012c00 	.word	0x40012c00

08001a04 <TIM_OC4_SetConfig>:
  * @param  TIMx to select the TIM peripheral
  * @param  OC_Config The output configuration structure
  * @retval None
  */
static void TIM_OC4_SetConfig(TIM_TypeDef *TIMx, const TIM_OC_InitTypeDef *OC_Config)
{
 8001a04:	b480      	push	{r7}
 8001a06:	b087      	sub	sp, #28
 8001a08:	af00      	add	r7, sp, #0
 8001a0a:	6078      	str	r0, [r7, #4]
 8001a0c:	6039      	str	r1, [r7, #0]
  uint32_t tmpccmrx;
  uint32_t tmpccer;
  uint32_t tmpcr2;

  /* Get the TIMx CCER register value */
  tmpccer = TIMx->CCER;
 8001a0e:	687b      	ldr	r3, [r7, #4]
 8001a10:	6a1b      	ldr	r3, [r3, #32]
 8001a12:	613b      	str	r3, [r7, #16]

  /* Disable the Channel 4: Reset the CC4E Bit */
  TIMx->CCER &= ~TIM_CCER_CC4E;
 8001a14:	687b      	ldr	r3, [r7, #4]
 8001a16:	6a1b      	ldr	r3, [r3, #32]
 8001a18:	f423 5280 	bic.w	r2, r3, #4096	; 0x1000
 8001a1c:	687b      	ldr	r3, [r7, #4]
 8001a1e:	621a      	str	r2, [r3, #32]

  /* Get the TIMx CR2 register value */
  tmpcr2 =  TIMx->CR2;
 8001a20:	687b      	ldr	r3, [r7, #4]
 8001a22:	685b      	ldr	r3, [r3, #4]
 8001a24:	617b      	str	r3, [r7, #20]

  /* Get the TIMx CCMR2 register value */
  tmpccmrx = TIMx->CCMR2;
 8001a26:	687b      	ldr	r3, [r7, #4]
 8001a28:	69db      	ldr	r3, [r3, #28]
 8001a2a:	60fb      	str	r3, [r7, #12]

  /* Reset the Output Compare mode and Capture/Compare selection Bits */
  tmpccmrx &= ~TIM_CCMR2_OC4M;
 8001a2c:	68fb      	ldr	r3, [r7, #12]
 8001a2e:	f423 43e0 	bic.w	r3, r3, #28672	; 0x7000
 8001a32:	60fb      	str	r3, [r7, #12]
  tmpccmrx &= ~TIM_CCMR2_CC4S;
 8001a34:	68fb      	ldr	r3, [r7, #12]
 8001a36:	f423 7340 	bic.w	r3, r3, #768	; 0x300
 8001a3a:	60fb      	str	r3, [r7, #12]

  /* Select the Output Compare Mode */
  tmpccmrx |= (OC_Config->OCMode << 8U);
 8001a3c:	683b      	ldr	r3, [r7, #0]
 8001a3e:	681b      	ldr	r3, [r3, #0]
 8001a40:	021b      	lsls	r3, r3, #8
 8001a42:	68fa      	ldr	r2, [r7, #12]
 8001a44:	4313      	orrs	r3, r2
 8001a46:	60fb      	str	r3, [r7, #12]

  /* Reset the Output Polarity level */
  tmpccer &= ~TIM_CCER_CC4P;
 8001a48:	693b      	ldr	r3, [r7, #16]
 8001a4a:	f423 5300 	bic.w	r3, r3, #8192	; 0x2000
 8001a4e:	613b      	str	r3, [r7, #16]
  /* Set the Output Compare Polarity */
  tmpccer |= (OC_Config->OCPolarity << 12U);
 8001a50:	683b      	ldr	r3, [r7, #0]
 8001a52:	689b      	ldr	r3, [r3, #8]
 8001a54:	031b      	lsls	r3, r3, #12
 8001a56:	693a      	ldr	r2, [r7, #16]
 8001a58:	4313      	orrs	r3, r2
 8001a5a:	613b      	str	r3, [r7, #16]

  if (IS_TIM_BREAK_INSTANCE(TIMx))
 8001a5c:	687b      	ldr	r3, [r7, #4]
 8001a5e:	4a0f      	ldr	r2, [pc, #60]	; (8001a9c <TIM_OC4_SetConfig+0x98>)
 8001a60:	4293      	cmp	r3, r2
 8001a62:	d109      	bne.n	8001a78 <TIM_OC4_SetConfig+0x74>
  {
    /* Check parameters */
    assert_param(IS_TIM_OCIDLE_STATE(OC_Config->OCIdleState));

    /* Reset the Output Compare IDLE State */
    tmpcr2 &= ~TIM_CR2_OIS4;
 8001a64:	697b      	ldr	r3, [r7, #20]
 8001a66:	f423 4380 	bic.w	r3, r3, #16384	; 0x4000
 8001a6a:	617b      	str	r3, [r7, #20]

    /* Set the Output Idle state */
    tmpcr2 |= (OC_Config->OCIdleState << 6U);
 8001a6c:	683b      	ldr	r3, [r7, #0]
 8001a6e:	695b      	ldr	r3, [r3, #20]
 8001a70:	019b      	lsls	r3, r3, #6
 8001a72:	697a      	ldr	r2, [r7, #20]
 8001a74:	4313      	orrs	r3, r2
 8001a76:	617b      	str	r3, [r7, #20]
  }

  /* Write to TIMx CR2 */
  TIMx->CR2 = tmpcr2;
 8001a78:	687b      	ldr	r3, [r7, #4]
 8001a7a:	697a      	ldr	r2, [r7, #20]
 8001a7c:	605a      	str	r2, [r3, #4]

  /* Write to TIMx CCMR2 */
  TIMx->CCMR2 = tmpccmrx;
 8001a7e:	687b      	ldr	r3, [r7, #4]
 8001a80:	68fa      	ldr	r2, [r7, #12]
 8001a82:	61da      	str	r2, [r3, #28]

  /* Set the Capture Compare Register value */
  TIMx->CCR4 = OC_Config->Pulse;
 8001a84:	683b      	ldr	r3, [r7, #0]
 8001a86:	685a      	ldr	r2, [r3, #4]
 8001a88:	687b      	ldr	r3, [r7, #4]
 8001a8a:	641a      	str	r2, [r3, #64]	; 0x40

  /* Write to TIMx CCER */
  TIMx->CCER = tmpccer;
 8001a8c:	687b      	ldr	r3, [r7, #4]
 8001a8e:	693a      	ldr	r2, [r7, #16]
 8001a90:	621a      	str	r2, [r3, #32]
}
 8001a92:	bf00      	nop
 8001a94:	371c      	adds	r7, #28
 8001a96:	46bd      	mov	sp, r7
 8001a98:	bc80      	pop	{r7}
 8001a9a:	4770      	bx	lr
 8001a9c:	40012c00 	.word	0x40012c00

08001aa0 <TIM_CCxChannelCmd>:
  * @param  ChannelState specifies the TIM Channel CCxE bit new state.
  *          This parameter can be: TIM_CCx_ENABLE or TIM_CCx_DISABLE.
  * @retval None
  */
void TIM_CCxChannelCmd(TIM_TypeDef *TIMx, uint32_t Channel, uint32_t ChannelState)
{
 8001aa0:	b480      	push	{r7}
 8001aa2:	b087      	sub	sp, #28
 8001aa4:	af00      	add	r7, sp, #0
 8001aa6:	60f8      	str	r0, [r7, #12]
 8001aa8:	60b9      	str	r1, [r7, #8]
 8001aaa:	607a      	str	r2, [r7, #4]

  /* Check the parameters */
  assert_param(IS_TIM_CC1_INSTANCE(TIMx));
  assert_param(IS_TIM_CHANNELS(Channel));

  tmp = TIM_CCER_CC1E << (Channel & 0x1FU); /* 0x1FU = 31 bits max shift */
 8001aac:	68bb      	ldr	r3, [r7, #8]
 8001aae:	f003 031f 	and.w	r3, r3, #31
 8001ab2:	2201      	movs	r2, #1
 8001ab4:	fa02 f303 	lsl.w	r3, r2, r3
 8001ab8:	617b      	str	r3, [r7, #20]

  /* Reset the CCxE Bit */
  TIMx->CCER &= ~tmp;
 8001aba:	68fb      	ldr	r3, [r7, #12]
 8001abc:	6a1a      	ldr	r2, [r3, #32]
 8001abe:	697b      	ldr	r3, [r7, #20]
 8001ac0:	43db      	mvns	r3, r3
 8001ac2:	401a      	ands	r2, r3
 8001ac4:	68fb      	ldr	r3, [r7, #12]
 8001ac6:	621a      	str	r2, [r3, #32]

  /* Set or reset the CCxE Bit */
  TIMx->CCER |= (uint32_t)(ChannelState << (Channel & 0x1FU)); /* 0x1FU = 31 bits max shift */
 8001ac8:	68fb      	ldr	r3, [r7, #12]
 8001aca:	6a1a      	ldr	r2, [r3, #32]
 8001acc:	68bb      	ldr	r3, [r7, #8]
 8001ace:	f003 031f 	and.w	r3, r3, #31
 8001ad2:	6879      	ldr	r1, [r7, #4]
 8001ad4:	fa01 f303 	lsl.w	r3, r1, r3
 8001ad8:	431a      	orrs	r2, r3
 8001ada:	68fb      	ldr	r3, [r7, #12]
 8001adc:	621a      	str	r2, [r3, #32]
}
 8001ade:	bf00      	nop
 8001ae0:	371c      	adds	r7, #28
 8001ae2:	46bd      	mov	sp, r7
 8001ae4:	bc80      	pop	{r7}
 8001ae6:	4770      	bx	lr

08001ae8 <HAL_TIMEx_MasterConfigSynchronization>:
  *         mode.
  * @retval HAL status
  */
HAL_StatusTypeDef HAL_TIMEx_MasterConfigSynchronization(TIM_HandleTypeDef *htim,
                                                        const TIM_MasterConfigTypeDef *sMasterConfig)
{
 8001ae8:	b480      	push	{r7}
 8001aea:	b085      	sub	sp, #20
 8001aec:	af00      	add	r7, sp, #0
 8001aee:	6078      	str	r0, [r7, #4]
 8001af0:	6039      	str	r1, [r7, #0]
  assert_param(IS_TIM_MASTER_INSTANCE(htim->Instance));
  assert_param(IS_TIM_TRGO_SOURCE(sMasterConfig->MasterOutputTrigger));
  assert_param(IS_TIM_MSM_STATE(sMasterConfig->MasterSlaveMode));

  /* Check input state */
  __HAL_LOCK(htim);
 8001af2:	687b      	ldr	r3, [r7, #4]
 8001af4:	f893 303c 	ldrb.w	r3, [r3, #60]	; 0x3c
 8001af8:	2b01      	cmp	r3, #1
 8001afa:	d101      	bne.n	8001b00 <HAL_TIMEx_MasterConfigSynchronization+0x18>
 8001afc:	2302      	movs	r3, #2
 8001afe:	e046      	b.n	8001b8e <HAL_TIMEx_MasterConfigSynchronization+0xa6>
 8001b00:	687b      	ldr	r3, [r7, #4]
 8001b02:	2201      	movs	r2, #1
 8001b04:	f883 203c 	strb.w	r2, [r3, #60]	; 0x3c

  /* Change the handler state */
  htim->State = HAL_TIM_STATE_BUSY;
 8001b08:	687b      	ldr	r3, [r7, #4]
 8001b0a:	2202      	movs	r2, #2
 8001b0c:	f883 203d 	strb.w	r2, [r3, #61]	; 0x3d

  /* Get the TIMx CR2 register value */
  tmpcr2 = htim->Instance->CR2;
 8001b10:	687b      	ldr	r3, [r7, #4]
 8001b12:	681b      	ldr	r3, [r3, #0]
 8001b14:	685b      	ldr	r3, [r3, #4]
 8001b16:	60fb      	str	r3, [r7, #12]

  /* Get the TIMx SMCR register value */
  tmpsmcr = htim->Instance->SMCR;
 8001b18:	687b      	ldr	r3, [r7, #4]
 8001b1a:	681b      	ldr	r3, [r3, #0]
 8001b1c:	689b      	ldr	r3, [r3, #8]
 8001b1e:	60bb      	str	r3, [r7, #8]

  /* Reset the MMS Bits */
  tmpcr2 &= ~TIM_CR2_MMS;
 8001b20:	68fb      	ldr	r3, [r7, #12]
 8001b22:	f023 0370 	bic.w	r3, r3, #112	; 0x70
 8001b26:	60fb      	str	r3, [r7, #12]
  /* Select the TRGO source */
  tmpcr2 |=  sMasterConfig->MasterOutputTrigger;
 8001b28:	683b      	ldr	r3, [r7, #0]
 8001b2a:	681b      	ldr	r3, [r3, #0]
 8001b2c:	68fa      	ldr	r2, [r7, #12]
 8001b2e:	4313      	orrs	r3, r2
 8001b30:	60fb      	str	r3, [r7, #12]

  /* Update TIMx CR2 */
  htim->Instance->CR2 = tmpcr2;
 8001b32:	687b      	ldr	r3, [r7, #4]
 8001b34:	681b      	ldr	r3, [r3, #0]
 8001b36:	68fa      	ldr	r2, [r7, #12]
 8001b38:	605a      	str	r2, [r3, #4]

  if (IS_TIM_SLAVE_INSTANCE(htim->Instance))
 8001b3a:	687b      	ldr	r3, [r7, #4]
 8001b3c:	681b      	ldr	r3, [r3, #0]
 8001b3e:	4a16      	ldr	r2, [pc, #88]	; (8001b98 <HAL_TIMEx_MasterConfigSynchronization+0xb0>)
 8001b40:	4293      	cmp	r3, r2
 8001b42:	d00e      	beq.n	8001b62 <HAL_TIMEx_MasterConfigSynchronization+0x7a>
 8001b44:	687b      	ldr	r3, [r7, #4]
 8001b46:	681b      	ldr	r3, [r3, #0]
 8001b48:	f1b3 4f80 	cmp.w	r3, #1073741824	; 0x40000000
 8001b4c:	d009      	beq.n	8001b62 <HAL_TIMEx_MasterConfigSynchronization+0x7a>
 8001b4e:	687b      	ldr	r3, [r7, #4]
 8001b50:	681b      	ldr	r3, [r3, #0]
 8001b52:	4a12      	ldr	r2, [pc, #72]	; (8001b9c <HAL_TIMEx_MasterConfigSynchronization+0xb4>)
 8001b54:	4293      	cmp	r3, r2
 8001b56:	d004      	beq.n	8001b62 <HAL_TIMEx_MasterConfigSynchronization+0x7a>
 8001b58:	687b      	ldr	r3, [r7, #4]
 8001b5a:	681b      	ldr	r3, [r3, #0]
 8001b5c:	4a10      	ldr	r2, [pc, #64]	; (8001ba0 <HAL_TIMEx_MasterConfigSynchronization+0xb8>)
 8001b5e:	4293      	cmp	r3, r2
 8001b60:	d10c      	bne.n	8001b7c <HAL_TIMEx_MasterConfigSynchronization+0x94>
  {
    /* Reset the MSM Bit */
    tmpsmcr &= ~TIM_SMCR_MSM;
 8001b62:	68bb      	ldr	r3, [r7, #8]
 8001b64:	f023 0380 	bic.w	r3, r3, #128	; 0x80
 8001b68:	60bb      	str	r3, [r7, #8]
    /* Set master mode */
    tmpsmcr |= sMasterConfig->MasterSlaveMode;
 8001b6a:	683b      	ldr	r3, [r7, #0]
 8001b6c:	685b      	ldr	r3, [r3, #4]
 8001b6e:	68ba      	ldr	r2, [r7, #8]
 8001b70:	4313      	orrs	r3, r2
 8001b72:	60bb      	str	r3, [r7, #8]

    /* Update TIMx SMCR */
    htim->Instance->SMCR = tmpsmcr;
 8001b74:	687b      	ldr	r3, [r7, #4]
 8001b76:	681b      	ldr	r3, [r3, #0]
 8001b78:	68ba      	ldr	r2, [r7, #8]
 8001b7a:	609a      	str	r2, [r3, #8]
  }

  /* Change the htim state */
  htim->State = HAL_TIM_STATE_READY;
 8001b7c:	687b      	ldr	r3, [r7, #4]
 8001b7e:	2201      	movs	r2, #1
 8001b80:	f883 203d 	strb.w	r2, [r3, #61]	; 0x3d

  __HAL_UNLOCK(htim);
 8001b84:	687b      	ldr	r3, [r7, #4]
 8001b86:	2200      	movs	r2, #0
 8001b88:	f883 203c 	strb.w	r2, [r3, #60]	; 0x3c

  return HAL_OK;
 8001b8c:	2300      	movs	r3, #0
}
 8001b8e:	4618      	mov	r0, r3
 8001b90:	3714      	adds	r7, #20
 8001b92:	46bd      	mov	sp, r7
 8001b94:	bc80      	pop	{r7}
 8001b96:	4770      	bx	lr
 8001b98:	40012c00 	.word	0x40012c00
 8001b9c:	40000400 	.word	0x40000400
 8001ba0:	40000800 	.word	0x40000800

08001ba4 <memset>:
 8001ba4:	4603      	mov	r3, r0
 8001ba6:	4402      	add	r2, r0
 8001ba8:	4293      	cmp	r3, r2
 8001baa:	d100      	bne.n	8001bae <memset+0xa>
 8001bac:	4770      	bx	lr
 8001bae:	f803 1b01 	strb.w	r1, [r3], #1
 8001bb2:	e7f9      	b.n	8001ba8 <memset+0x4>

08001bb4 <__libc_init_array>:
 8001bb4:	b570      	push	{r4, r5, r6, lr}
 8001bb6:	2600      	movs	r6, #0
 8001bb8:	4d0c      	ldr	r5, [pc, #48]	; (8001bec <__libc_init_array+0x38>)
 8001bba:	4c0d      	ldr	r4, [pc, #52]	; (8001bf0 <__libc_init_array+0x3c>)
 8001bbc:	1b64      	subs	r4, r4, r5
 8001bbe:	10a4      	asrs	r4, r4, #2
 8001bc0:	42a6      	cmp	r6, r4
 8001bc2:	d109      	bne.n	8001bd8 <__libc_init_array+0x24>
 8001bc4:	f000 f81a 	bl	8001bfc <_init>
 8001bc8:	2600      	movs	r6, #0
 8001bca:	4d0a      	ldr	r5, [pc, #40]	; (8001bf4 <__libc_init_array+0x40>)
 8001bcc:	4c0a      	ldr	r4, [pc, #40]	; (8001bf8 <__libc_init_array+0x44>)
 8001bce:	1b64      	subs	r4, r4, r5
 8001bd0:	10a4      	asrs	r4, r4, #2
 8001bd2:	42a6      	cmp	r6, r4
 8001bd4:	d105      	bne.n	8001be2 <__libc_init_array+0x2e>
 8001bd6:	bd70      	pop	{r4, r5, r6, pc}
 8001bd8:	f855 3b04 	ldr.w	r3, [r5], #4
 8001bdc:	4798      	blx	r3
 8001bde:	3601      	adds	r6, #1
 8001be0:	e7ee      	b.n	8001bc0 <__libc_init_array+0xc>
 8001be2:	f855 3b04 	ldr.w	r3, [r5], #4
 8001be6:	4798      	blx	r3
 8001be8:	3601      	adds	r6, #1
 8001bea:	e7f2      	b.n	8001bd2 <__libc_init_array+0x1e>
 8001bec:	08001c38 	.word	0x08001c38
 8001bf0:	08001c38 	.word	0x08001c38
 8001bf4:	08001c38 	.word	0x08001c38
 8001bf8:	08001c3c 	.word	0x08001c3c

08001bfc <_init>:
 8001bfc:	b5f8      	push	{r3, r4, r5, r6, r7, lr}
 8001bfe:	bf00      	nop
 8001c00:	bcf8      	pop	{r3, r4, r5, r6, r7}
 8001c02:	bc08      	pop	{r3}
 8001c04:	469e      	mov	lr, r3
 8001c06:	4770      	bx	lr

08001c08 <_fini>:
 8001c08:	b5f8      	push	{r3, r4, r5, r6, r7, lr}
 8001c0a:	bf00      	nop
 8001c0c:	bcf8      	pop	{r3, r4, r5, r6, r7}
 8001c0e:	bc08      	pop	{r3}
 8001c10:	469e      	mov	lr, r3
 8001c12:	4770      	bx	lr
